
xxx.exe:     file format elf64-x86-64


Disassembly of section .init:

0000000000402000 <_init>:
  402000:	f3 0f 1e fa          	endbr64 
  402004:	48 83 ec 08          	sub    rsp,0x8
  402008:	48 8b 05 c9 bf 00 00 	mov    rax,QWORD PTR [rip+0xbfc9]        # 40dfd8 <__gmon_start__>
  40200f:	48 85 c0             	test   rax,rax
  402012:	74 02                	je     402016 <_init+0x16>
  402014:	ff d0                	call   rax
  402016:	48 83 c4 08          	add    rsp,0x8
  40201a:	c3                   	ret    

Disassembly of section .plt:

0000000000402020 <_Znam@plt-0x10>:
  402020:	ff 35 e2 bf 00 00    	push   QWORD PTR [rip+0xbfe2]        # 40e008 <_GLOBAL_OFFSET_TABLE_+0x8>
  402026:	ff 25 e4 bf 00 00    	jmp    QWORD PTR [rip+0xbfe4]        # 40e010 <_GLOBAL_OFFSET_TABLE_+0x10>
  40202c:	0f 1f 40 00          	nop    DWORD PTR [rax+0x0]

0000000000402030 <_Znam@plt>:
  402030:	ff 25 e2 bf 00 00    	jmp    QWORD PTR [rip+0xbfe2]        # 40e018 <_Znam@GLIBCXX_3.4>
  402036:	68 00 00 00 00       	push   0x0
  40203b:	e9 e0 ff ff ff       	jmp    402020 <_init+0x20>

0000000000402040 <_ZNSo3putEc@plt>:
  402040:	ff 25 da bf 00 00    	jmp    QWORD PTR [rip+0xbfda]        # 40e020 <_ZNSo3putEc@GLIBCXX_3.4>
  402046:	68 01 00 00 00       	push   0x1
  40204b:	e9 d0 ff ff ff       	jmp    402020 <_init+0x20>

0000000000402050 <printf@plt>:
  402050:	ff 25 d2 bf 00 00    	jmp    QWORD PTR [rip+0xbfd2]        # 40e028 <printf@GLIBC_2.2.5>
  402056:	68 02 00 00 00       	push   0x2
  40205b:	e9 c0 ff ff ff       	jmp    402020 <_init+0x20>

0000000000402060 <_ZNSt6chrono3_V212system_clock3nowEv@plt>:
  402060:	ff 25 ca bf 00 00    	jmp    QWORD PTR [rip+0xbfca]        # 40e030 <_ZNSt6chrono3_V212system_clock3nowEv@GLIBCXX_3.4.19>
  402066:	68 03 00 00 00       	push   0x3
  40206b:	e9 b0 ff ff ff       	jmp    402020 <_init+0x20>

0000000000402070 <syscall@plt>:
  402070:	ff 25 c2 bf 00 00    	jmp    QWORD PTR [rip+0xbfc2]        # 40e038 <syscall@GLIBC_2.2.5>
  402076:	68 04 00 00 00       	push   0x4
  40207b:	e9 a0 ff ff ff       	jmp    402020 <_init+0x20>

0000000000402080 <rand@plt>:
  402080:	ff 25 ba bf 00 00    	jmp    QWORD PTR [rip+0xbfba]        # 40e040 <rand@GLIBC_2.2.5>
  402086:	68 05 00 00 00       	push   0x5
  40208b:	e9 90 ff ff ff       	jmp    402020 <_init+0x20>

0000000000402090 <log@plt>:
  402090:	ff 25 b2 bf 00 00    	jmp    QWORD PTR [rip+0xbfb2]        # 40e048 <log@GLIBC_2.2.5>
  402096:	68 06 00 00 00       	push   0x6
  40209b:	e9 80 ff ff ff       	jmp    402020 <_init+0x20>

00000000004020a0 <posix_memalign@plt>:
  4020a0:	ff 25 aa bf 00 00    	jmp    QWORD PTR [rip+0xbfaa]        # 40e050 <posix_memalign@GLIBC_2.2.5>
  4020a6:	68 07 00 00 00       	push   0x7
  4020ab:	e9 70 ff ff ff       	jmp    402020 <_init+0x20>

00000000004020b0 <_ZSt20__throw_length_errorPKc@plt>:
  4020b0:	ff 25 a2 bf 00 00    	jmp    QWORD PTR [rip+0xbfa2]        # 40e058 <_ZSt20__throw_length_errorPKc@GLIBCXX_3.4>
  4020b6:	68 08 00 00 00       	push   0x8
  4020bb:	e9 60 ff ff ff       	jmp    402020 <_init+0x20>

00000000004020c0 <memset@plt>:
  4020c0:	ff 25 9a bf 00 00    	jmp    QWORD PTR [rip+0xbf9a]        # 40e060 <memset@GLIBC_2.2.5>
  4020c6:	68 09 00 00 00       	push   0x9
  4020cb:	e9 50 ff ff ff       	jmp    402020 <_init+0x20>

00000000004020d0 <_ZNSo9_M_insertImEERSoT_@plt>:
  4020d0:	ff 25 92 bf 00 00    	jmp    QWORD PTR [rip+0xbf92]        # 40e068 <_ZNSo9_M_insertImEERSoT_@GLIBCXX_3.4.9>
  4020d6:	68 0a 00 00 00       	push   0xa
  4020db:	e9 40 ff ff ff       	jmp    402020 <_init+0x20>

00000000004020e0 <_ZNSo5flushEv@plt>:
  4020e0:	ff 25 8a bf 00 00    	jmp    QWORD PTR [rip+0xbf8a]        # 40e070 <_ZNSo5flushEv@GLIBCXX_3.4>
  4020e6:	68 0b 00 00 00       	push   0xb
  4020eb:	e9 30 ff ff ff       	jmp    402020 <_init+0x20>

00000000004020f0 <sqrt@plt>:
  4020f0:	ff 25 82 bf 00 00    	jmp    QWORD PTR [rip+0xbf82]        # 40e078 <sqrt@GLIBC_2.2.5>
  4020f6:	68 0c 00 00 00       	push   0xc
  4020fb:	e9 20 ff ff ff       	jmp    402020 <_init+0x20>

0000000000402100 <memcpy@plt>:
  402100:	ff 25 7a bf 00 00    	jmp    QWORD PTR [rip+0xbf7a]        # 40e080 <memcpy@GLIBC_2.14>
  402106:	68 0d 00 00 00       	push   0xd
  40210b:	e9 10 ff ff ff       	jmp    402020 <_init+0x20>

0000000000402110 <__cxa_atexit@plt>:
  402110:	ff 25 72 bf 00 00    	jmp    QWORD PTR [rip+0xbf72]        # 40e088 <__cxa_atexit@GLIBC_2.2.5>
  402116:	68 0e 00 00 00       	push   0xe
  40211b:	e9 00 ff ff ff       	jmp    402020 <_init+0x20>

0000000000402120 <_ZdlPv@plt>:
  402120:	ff 25 6a bf 00 00    	jmp    QWORD PTR [rip+0xbf6a]        # 40e090 <_ZdlPv@GLIBCXX_3.4>
  402126:	68 0f 00 00 00       	push   0xf
  40212b:	e9 f0 fe ff ff       	jmp    402020 <_init+0x20>

0000000000402130 <srand@plt>:
  402130:	ff 25 62 bf 00 00    	jmp    QWORD PTR [rip+0xbf62]        # 40e098 <srand@GLIBC_2.2.5>
  402136:	68 10 00 00 00       	push   0x10
  40213b:	e9 e0 fe ff ff       	jmp    402020 <_init+0x20>

0000000000402140 <_Znwm@plt>:
  402140:	ff 25 5a bf 00 00    	jmp    QWORD PTR [rip+0xbf5a]        # 40e0a0 <_Znwm@GLIBCXX_3.4>
  402146:	68 11 00 00 00       	push   0x11
  40214b:	e9 d0 fe ff ff       	jmp    402020 <_init+0x20>

0000000000402150 <_ZdlPvm@plt>:
  402150:	ff 25 52 bf 00 00    	jmp    QWORD PTR [rip+0xbf52]        # 40e0a8 <_ZdlPvm@CXXABI_1.3.9>
  402156:	68 12 00 00 00       	push   0x12
  40215b:	e9 c0 fe ff ff       	jmp    402020 <_init+0x20>

0000000000402160 <roundf@plt>:
  402160:	ff 25 4a bf 00 00    	jmp    QWORD PTR [rip+0xbf4a]        # 40e0b0 <roundf@GLIBC_2.2.5>
  402166:	68 13 00 00 00       	push   0x13
  40216b:	e9 b0 fe ff ff       	jmp    402020 <_init+0x20>

0000000000402170 <_ZSt16__ostream_insertIcSt11char_traitsIcEERSt13basic_ostreamIT_T0_ES6_PKS3_l@plt>:
  402170:	ff 25 42 bf 00 00    	jmp    QWORD PTR [rip+0xbf42]        # 40e0b8 <_ZSt16__ostream_insertIcSt11char_traitsIcEERSt13basic_ostreamIT_T0_ES6_PKS3_l@GLIBCXX_3.4.9>
  402176:	68 14 00 00 00       	push   0x14
  40217b:	e9 a0 fe ff ff       	jmp    402020 <_init+0x20>

0000000000402180 <_ZNKSt5ctypeIcE13_M_widen_initEv@plt>:
  402180:	ff 25 3a bf 00 00    	jmp    QWORD PTR [rip+0xbf3a]        # 40e0c0 <_ZNKSt5ctypeIcE13_M_widen_initEv@GLIBCXX_3.4.11>
  402186:	68 15 00 00 00       	push   0x15
  40218b:	e9 90 fe ff ff       	jmp    402020 <_init+0x20>

0000000000402190 <free@plt>:
  402190:	ff 25 32 bf 00 00    	jmp    QWORD PTR [rip+0xbf32]        # 40e0c8 <free@GLIBC_2.2.5>
  402196:	68 16 00 00 00       	push   0x16
  40219b:	e9 80 fe ff ff       	jmp    402020 <_init+0x20>

00000000004021a0 <_ZSt16__throw_bad_castv@plt>:
  4021a0:	ff 25 2a bf 00 00    	jmp    QWORD PTR [rip+0xbf2a]        # 40e0d0 <_ZSt16__throw_bad_castv@GLIBCXX_3.4>
  4021a6:	68 17 00 00 00       	push   0x17
  4021ab:	e9 70 fe ff ff       	jmp    402020 <_init+0x20>

00000000004021b0 <_ZdaPv@plt>:
  4021b0:	ff 25 22 bf 00 00    	jmp    QWORD PTR [rip+0xbf22]        # 40e0d8 <_ZdaPv@GLIBCXX_3.4>
  4021b6:	68 18 00 00 00       	push   0x18
  4021bb:	e9 60 fe ff ff       	jmp    402020 <_init+0x20>

00000000004021c0 <putchar@plt>:
  4021c0:	ff 25 1a bf 00 00    	jmp    QWORD PTR [rip+0xbf1a]        # 40e0e0 <putchar@GLIBC_2.2.5>
  4021c6:	68 19 00 00 00       	push   0x19
  4021cb:	e9 50 fe ff ff       	jmp    402020 <_init+0x20>

00000000004021d0 <strtol@plt>:
  4021d0:	ff 25 12 bf 00 00    	jmp    QWORD PTR [rip+0xbf12]        # 40e0e8 <strtol@GLIBC_2.2.5>
  4021d6:	68 1a 00 00 00       	push   0x1a
  4021db:	e9 40 fe ff ff       	jmp    402020 <_init+0x20>

00000000004021e0 <__cxa_throw_bad_array_new_length@plt>:
  4021e0:	ff 25 0a bf 00 00    	jmp    QWORD PTR [rip+0xbf0a]        # 40e0f0 <__cxa_throw_bad_array_new_length@CXXABI_1.3.8>
  4021e6:	68 1b 00 00 00       	push   0x1b
  4021eb:	e9 30 fe ff ff       	jmp    402020 <_init+0x20>

00000000004021f0 <GOMP_parallel@plt>:
  4021f0:	ff 25 02 bf 00 00    	jmp    QWORD PTR [rip+0xbf02]        # 40e0f8 <GOMP_parallel@GOMP_4.0>
  4021f6:	68 1c 00 00 00       	push   0x1c
  4021fb:	e9 20 fe ff ff       	jmp    402020 <_init+0x20>

0000000000402200 <_ZNSt8ios_base4InitC1Ev@plt>:
  402200:	ff 25 fa be 00 00    	jmp    QWORD PTR [rip+0xbefa]        # 40e100 <_ZNSt8ios_base4InitC1Ev@GLIBCXX_3.4>
  402206:	68 1d 00 00 00       	push   0x1d
  40220b:	e9 10 fe ff ff       	jmp    402020 <_init+0x20>

0000000000402210 <puts@plt>:
  402210:	ff 25 f2 be 00 00    	jmp    QWORD PTR [rip+0xbef2]        # 40e108 <puts@GLIBC_2.2.5>
  402216:	68 1e 00 00 00       	push   0x1e
  40221b:	e9 00 fe ff ff       	jmp    402020 <_init+0x20>

0000000000402220 <omp_get_thread_num@plt>:
  402220:	ff 25 ea be 00 00    	jmp    QWORD PTR [rip+0xbeea]        # 40e110 <omp_get_thread_num@OMP_1.0>
  402226:	68 1f 00 00 00       	push   0x1f
  40222b:	e9 f0 fd ff ff       	jmp    402020 <_init+0x20>

0000000000402230 <_ZNSo9_M_insertIdEERSoT_@plt>:
  402230:	ff 25 e2 be 00 00    	jmp    QWORD PTR [rip+0xbee2]        # 40e118 <_ZNSo9_M_insertIdEERSoT_@GLIBCXX_3.4.9>
  402236:	68 20 00 00 00       	push   0x20
  40223b:	e9 e0 fd ff ff       	jmp    402020 <_init+0x20>

0000000000402240 <memmove@plt>:
  402240:	ff 25 da be 00 00    	jmp    QWORD PTR [rip+0xbeda]        # 40e120 <memmove@GLIBC_2.2.5>
  402246:	68 21 00 00 00       	push   0x21
  40224b:	e9 d0 fd ff ff       	jmp    402020 <_init+0x20>

0000000000402250 <_ZNSolsEi@plt>:
  402250:	ff 25 d2 be 00 00    	jmp    QWORD PTR [rip+0xbed2]        # 40e128 <_ZNSolsEi@GLIBCXX_3.4>
  402256:	68 22 00 00 00       	push   0x22
  40225b:	e9 c0 fd ff ff       	jmp    402020 <_init+0x20>

0000000000402260 <_Unwind_Resume@plt>:
  402260:	ff 25 ca be 00 00    	jmp    QWORD PTR [rip+0xbeca]        # 40e130 <_Unwind_Resume@GCC_3.0>
  402266:	68 23 00 00 00       	push   0x23
  40226b:	e9 b0 fd ff ff       	jmp    402020 <_init+0x20>

0000000000402270 <omp_get_num_threads@plt>:
  402270:	ff 25 c2 be 00 00    	jmp    QWORD PTR [rip+0xbec2]        # 40e138 <omp_get_num_threads@OMP_1.0>
  402276:	68 24 00 00 00       	push   0x24
  40227b:	e9 a0 fd ff ff       	jmp    402020 <_init+0x20>

Disassembly of section .text:

0000000000402280 <_Z15test_block_gemmmmmbi.cold>:
  402280:	e8 5b ff ff ff       	call   4021e0 <__cxa_throw_bad_array_new_length@plt>

0000000000402285 <_Z16test_tile_16x256i.cold>:
  402285:	48 8b bd b0 fe fa ff 	mov    rdi,QWORD PTR [rbp-0x50150]
  40228c:	48 8b b5 c0 fe fa ff 	mov    rsi,QWORD PTR [rbp-0x50140]
  402293:	48 29 fe             	sub    rsi,rdi
  402296:	48 85 ff             	test   rdi,rdi
  402299:	74 10                	je     4022ab <_Z16test_tile_16x256i.cold+0x26>
  40229b:	c5 f8 77             	vzeroupper 
  40229e:	e8 ad fe ff ff       	call   402150 <_ZdlPvm@plt>
  4022a3:	4c 89 e7             	mov    rdi,r12
  4022a6:	e8 b5 ff ff ff       	call   402260 <_Unwind_Resume@plt>
  4022ab:	c5 f8 77             	vzeroupper 
  4022ae:	eb f3                	jmp    4022a3 <_Z16test_tile_16x256i.cold+0x1e>

00000000004022b0 <main>:
  4022b0:	55                   	push   rbp
  4022b1:	48 83 ec 40          	sub    rsp,0x40
  4022b5:	83 ff 02             	cmp    edi,0x2
  4022b8:	74 60                	je     40231a <main+0x6a>
  4022ba:	bd 02 00 00 00       	mov    ebp,0x2
  4022bf:	83 ff 03             	cmp    edi,0x3
  4022c2:	74 6a                	je     40232e <main+0x7e>
  4022c4:	e8 17 3c 00 00       	call   405ee0 <_ZN12intel_mlperf8amx_initEv>
  4022c9:	c5 f9 ef c0          	vpxor  xmm0,xmm0,xmm0
  4022cd:	c5 f9 7f 04 24       	vmovdqa XMMWORD PTR [rsp],xmm0
  4022d2:	c5 f9 7f 44 24 30    	vmovdqa XMMWORD PTR [rsp+0x30],xmm0
  4022d8:	c5 f9 7f 44 24 20    	vmovdqa XMMWORD PTR [rsp+0x20],xmm0
  4022de:	c4 e2 79 79 05 69 8f 	vpbroadcastw xmm0,WORD PTR [rip+0x8f69]        # 40b250 <__dso_handle+0x248>
  4022e5:	00 00 
  4022e7:	48 b8 10 10 10 10 10 	movabs rax,0x1010101010101010
  4022ee:	10 10 10 
  4022f1:	48 89 44 24 30       	mov    QWORD PTR [rsp+0x30],rax
  4022f6:	c6 04 24 01          	mov    BYTE PTR [rsp],0x1
  4022fa:	c5 f9 7f 44 24 10    	vmovdqa XMMWORD PTR [rsp+0x10],xmm0
  402300:	c4 e2 78 49 c0       	tilerelease 
  402305:	c4 e2 78 49 04 24    	ldtilecfg [rsp]
  40230b:	89 ef                	mov    edi,ebp
  40230d:	e8 ee 17 00 00       	call   403b00 <_Z16test_tile_16x256i>
  402312:	48 83 c4 40          	add    rsp,0x40
  402316:	31 c0                	xor    eax,eax
  402318:	5d                   	pop    rbp
  402319:	c3                   	ret    
  40231a:	48 8b 7e 08          	mov    rdi,QWORD PTR [rsi+0x8]
  40231e:	ba 0a 00 00 00       	mov    edx,0xa
  402323:	31 f6                	xor    esi,esi
  402325:	e8 a6 fe ff ff       	call   4021d0 <strtol@plt>
  40232a:	89 c5                	mov    ebp,eax
  40232c:	eb 96                	jmp    4022c4 <main+0x14>
  40232e:	48 8b 7e 10          	mov    rdi,QWORD PTR [rsi+0x10]
  402332:	ba 0a 00 00 00       	mov    edx,0xa
  402337:	31 f6                	xor    esi,esi
  402339:	e8 92 fe ff ff       	call   4021d0 <strtol@plt>
  40233e:	eb 84                	jmp    4022c4 <main+0x14>

0000000000402340 <_GLOBAL__sub_I_main.cpp>:
  402340:	55                   	push   rbp
  402341:	48 8d 2d 09 be 00 00 	lea    rbp,[rip+0xbe09]        # 40e151 <_ZStL8__ioinit>
  402348:	48 89 ef             	mov    rdi,rbp
  40234b:	e8 b0 fe ff ff       	call   402200 <_ZNSt8ios_base4InitC1Ev@plt>
  402350:	48 8b 3d 91 bc 00 00 	mov    rdi,QWORD PTR [rip+0xbc91]        # 40dfe8 <_ZNSt8ios_base4InitD1Ev@GLIBCXX_3.4>
  402357:	48 89 ee             	mov    rsi,rbp
  40235a:	48 8d 15 a7 8c 00 00 	lea    rdx,[rip+0x8ca7]        # 40b008 <__dso_handle>
  402361:	5d                   	pop    rbp
  402362:	e9 a9 fd ff ff       	jmp    402110 <__cxa_atexit@plt>
  402367:	66 0f 1f 84 00 00 00 	nop    WORD PTR [rax+rax*1+0x0]
  40236e:	00 00 

0000000000402370 <_GLOBAL__sub_I_helper.cpp>:
  402370:	55                   	push   rbp
  402371:	48 8d 2d da bd 00 00 	lea    rbp,[rip+0xbdda]        # 40e152 <_ZStL8__ioinit>
  402378:	48 89 ef             	mov    rdi,rbp
  40237b:	e8 80 fe ff ff       	call   402200 <_ZNSt8ios_base4InitC1Ev@plt>
  402380:	48 8b 3d 61 bc 00 00 	mov    rdi,QWORD PTR [rip+0xbc61]        # 40dfe8 <_ZNSt8ios_base4InitD1Ev@GLIBCXX_3.4>
  402387:	48 89 ee             	mov    rsi,rbp
  40238a:	48 8d 15 77 8c 00 00 	lea    rdx,[rip+0x8c77]        # 40b008 <__dso_handle>
  402391:	5d                   	pop    rbp
  402392:	e9 79 fd ff ff       	jmp    402110 <__cxa_atexit@plt>
  402397:	66 0f 1f 84 00 00 00 	nop    WORD PTR [rax+rax*1+0x0]
  40239e:	00 00 

00000000004023a0 <_GLOBAL__sub_I_i_linear_tpp.cpp>:
  4023a0:	55                   	push   rbp
  4023a1:	48 8d 2d ab bd 00 00 	lea    rbp,[rip+0xbdab]        # 40e153 <_ZStL8__ioinit>
  4023a8:	48 89 ef             	mov    rdi,rbp
  4023ab:	e8 50 fe ff ff       	call   402200 <_ZNSt8ios_base4InitC1Ev@plt>
  4023b0:	48 8b 3d 31 bc 00 00 	mov    rdi,QWORD PTR [rip+0xbc31]        # 40dfe8 <_ZNSt8ios_base4InitD1Ev@GLIBCXX_3.4>
  4023b7:	48 89 ee             	mov    rsi,rbp
  4023ba:	48 8d 15 47 8c 00 00 	lea    rdx,[rip+0x8c47]        # 40b008 <__dso_handle>
  4023c1:	5d                   	pop    rbp
  4023c2:	e9 49 fd ff ff       	jmp    402110 <__cxa_atexit@plt>
  4023c7:	66 2e 0f 1f 84 00 00 	cs nop WORD PTR [rax+rax*1+0x0]
  4023ce:	00 00 00 
  4023d1:	66 2e 0f 1f 84 00 00 	cs nop WORD PTR [rax+rax*1+0x0]
  4023d8:	00 00 00 
  4023db:	0f 1f 44 00 00       	nop    DWORD PTR [rax+rax*1+0x0]

00000000004023e0 <_start>:
  4023e0:	f3 0f 1e fa          	endbr64 
  4023e4:	31 ed                	xor    ebp,ebp
  4023e6:	49 89 d1             	mov    r9,rdx
  4023e9:	5e                   	pop    rsi
  4023ea:	48 89 e2             	mov    rdx,rsp
  4023ed:	48 83 e4 f0          	and    rsp,0xfffffffffffffff0
  4023f1:	50                   	push   rax
  4023f2:	54                   	push   rsp
  4023f3:	49 c7 c0 c0 aa 40 00 	mov    r8,0x40aac0
  4023fa:	48 c7 c1 40 aa 40 00 	mov    rcx,0x40aa40
  402401:	48 c7 c7 b0 22 40 00 	mov    rdi,0x4022b0
  402408:	ff 15 c2 bb 00 00    	call   QWORD PTR [rip+0xbbc2]        # 40dfd0 <__libc_start_main@GLIBC_2.2.5>
  40240e:	f4                   	hlt    
  40240f:	66 2e 0f 1f 84 00 00 	cs nop WORD PTR [rax+rax*1+0x0]
  402416:	00 00 00 
  402419:	0f 1f 80 00 00 00 00 	nop    DWORD PTR [rax+0x0]

0000000000402420 <_dl_relocate_static_pie>:
  402420:	f3 0f 1e fa          	endbr64 
  402424:	c3                   	ret    
  402425:	66 2e 0f 1f 84 00 00 	cs nop WORD PTR [rax+rax*1+0x0]
  40242c:	00 00 00 
  40242f:	90                   	nop

0000000000402430 <deregister_tm_clones>:
  402430:	48 8d 3d 19 bd 00 00 	lea    rdi,[rip+0xbd19]        # 40e150 <__TMC_END__>
  402437:	48 8d 05 12 bd 00 00 	lea    rax,[rip+0xbd12]        # 40e150 <__TMC_END__>
  40243e:	48 39 f8             	cmp    rax,rdi
  402441:	74 15                	je     402458 <deregister_tm_clones+0x28>
  402443:	48 8b 05 7e bb 00 00 	mov    rax,QWORD PTR [rip+0xbb7e]        # 40dfc8 <_ITM_deregisterTMCloneTable>
  40244a:	48 85 c0             	test   rax,rax
  40244d:	74 09                	je     402458 <deregister_tm_clones+0x28>
  40244f:	ff e0                	jmp    rax
  402451:	0f 1f 80 00 00 00 00 	nop    DWORD PTR [rax+0x0]
  402458:	c3                   	ret    
  402459:	0f 1f 80 00 00 00 00 	nop    DWORD PTR [rax+0x0]

0000000000402460 <register_tm_clones>:
  402460:	48 8d 3d e9 bc 00 00 	lea    rdi,[rip+0xbce9]        # 40e150 <__TMC_END__>
  402467:	48 8d 35 e2 bc 00 00 	lea    rsi,[rip+0xbce2]        # 40e150 <__TMC_END__>
  40246e:	48 29 fe             	sub    rsi,rdi
  402471:	48 89 f0             	mov    rax,rsi
  402474:	48 c1 ee 3f          	shr    rsi,0x3f
  402478:	48 c1 f8 03          	sar    rax,0x3
  40247c:	48 01 c6             	add    rsi,rax
  40247f:	48 d1 fe             	sar    rsi,1
  402482:	74 14                	je     402498 <register_tm_clones+0x38>
  402484:	48 8b 05 55 bb 00 00 	mov    rax,QWORD PTR [rip+0xbb55]        # 40dfe0 <_ITM_registerTMCloneTable>
  40248b:	48 85 c0             	test   rax,rax
  40248e:	74 08                	je     402498 <register_tm_clones+0x38>
  402490:	ff e0                	jmp    rax
  402492:	66 0f 1f 44 00 00    	nop    WORD PTR [rax+rax*1+0x0]
  402498:	c3                   	ret    
  402499:	0f 1f 80 00 00 00 00 	nop    DWORD PTR [rax+0x0]

00000000004024a0 <__do_global_dtors_aux>:
  4024a0:	f3 0f 1e fa          	endbr64 
  4024a4:	80 3d a5 bc 00 00 00 	cmp    BYTE PTR [rip+0xbca5],0x0        # 40e150 <__TMC_END__>
  4024ab:	75 13                	jne    4024c0 <__do_global_dtors_aux+0x20>
  4024ad:	55                   	push   rbp
  4024ae:	48 89 e5             	mov    rbp,rsp
  4024b1:	e8 7a ff ff ff       	call   402430 <deregister_tm_clones>
  4024b6:	c6 05 93 bc 00 00 01 	mov    BYTE PTR [rip+0xbc93],0x1        # 40e150 <__TMC_END__>
  4024bd:	5d                   	pop    rbp
  4024be:	c3                   	ret    
  4024bf:	90                   	nop
  4024c0:	c3                   	ret    
  4024c1:	66 66 2e 0f 1f 84 00 	data16 cs nop WORD PTR [rax+rax*1+0x0]
  4024c8:	00 00 00 00 
  4024cc:	0f 1f 40 00          	nop    DWORD PTR [rax+0x0]

00000000004024d0 <frame_dummy>:
  4024d0:	f3 0f 1e fa          	endbr64 
  4024d4:	eb 8a                	jmp    402460 <register_tm_clones>
  4024d6:	66 2e 0f 1f 84 00 00 	cs nop WORD PTR [rax+rax*1+0x0]
  4024dd:	00 00 00 

00000000004024e0 <_Z15test_block_gemmmmmbi._omp_fn.1>:
  4024e0:	41 57                	push   r15
  4024e2:	41 56                	push   r14
  4024e4:	41 55                	push   r13
  4024e6:	41 54                	push   r12
  4024e8:	55                   	push   rbp
  4024e9:	48 89 fd             	mov    rbp,rdi
  4024ec:	53                   	push   rbx
  4024ed:	48 83 ec 38          	sub    rsp,0x38
  4024f1:	4c 8b 77 18          	mov    r14,QWORD PTR [rdi+0x18]
  4024f5:	4c 89 74 24 10       	mov    QWORD PTR [rsp+0x10],r14
  4024fa:	e8 71 fd ff ff       	call   402270 <omp_get_num_threads@plt>
  4024ff:	89 c3                	mov    ebx,eax
  402501:	e8 1a fd ff ff       	call   402220 <omp_get_thread_num@plt>
  402506:	89 c1                	mov    ecx,eax
  402508:	44 89 f0             	mov    eax,r14d
  40250b:	99                   	cdq    
  40250c:	f7 fb                	idiv   ebx
  40250e:	89 c6                	mov    esi,eax
  402510:	39 d1                	cmp    ecx,edx
  402512:	0f 8c c8 00 00 00    	jl     4025e0 <_Z15test_block_gemmmmmbi._omp_fn.1+0x100>
  402518:	0f af ce             	imul   ecx,esi
  40251b:	01 ca                	add    edx,ecx
  40251d:	8d 04 16             	lea    eax,[rsi+rdx*1]
  402520:	39 c2                	cmp    edx,eax
  402522:	0f 8d a0 00 00 00    	jge    4025c8 <_Z15test_block_gemmmmmbi._omp_fn.1+0xe8>
  402528:	48 8b 45 20          	mov    rax,QWORD PTR [rbp+0x20]
  40252c:	c5 fa 10 4d 40       	vmovss xmm1,DWORD PTR [rbp+0x40]
  402531:	48 89 44 24 20       	mov    QWORD PTR [rsp+0x20],rax
  402536:	48 8b 45 00          	mov    rax,QWORD PTR [rbp+0x0]
  40253a:	4c 8b 7d 38          	mov    r15,QWORD PTR [rbp+0x38]
  40253e:	48 89 c3             	mov    rbx,rax
  402541:	48 0f af 45 08       	imul   rax,QWORD PTR [rbp+0x8]
  402546:	48 c1 eb 06          	shr    rbx,0x6
  40254a:	4c 8b 75 30          	mov    r14,QWORD PTR [rbp+0x30]
  40254e:	48 89 44 24 28       	mov    QWORD PTR [rsp+0x28],rax
  402553:	48 63 c2             	movsxd rax,edx
  402556:	4c 8d 60 01          	lea    r12,[rax+0x1]
  40255a:	8d 56 ff             	lea    edx,[rsi-0x1]
  40255d:	49 8d 3c 14          	lea    rdi,[r12+rdx*1]
  402561:	4c 89 e6             	mov    rsi,r12
  402564:	4c 8b 6d 28          	mov    r13,QWORD PTR [rbp+0x28]
  402568:	49 89 ec             	mov    r12,rbp
  40256b:	48 89 7c 24 08       	mov    QWORD PTR [rsp+0x8],rdi
  402570:	48 89 dd             	mov    rbp,rbx
  402573:	c5 fa 11 4c 24 1c    	vmovss DWORD PTR [rsp+0x1c],xmm1
  402579:	48 89 f3             	mov    rbx,rsi
  40257c:	eb 05                	jmp    402583 <_Z15test_block_gemmmmmbi._omp_fn.1+0xa3>
  40257e:	66 90                	xchg   ax,ax
  402580:	48 ff c3             	inc    rbx
  402583:	48 83 fd 10          	cmp    rbp,0x10
  402587:	74 06                	je     40258f <_Z15test_block_gemmmmmbi._omp_fn.1+0xaf>
  402589:	48 83 fd 40          	cmp    rbp,0x40
  40258d:	75 2f                	jne    4025be <_Z15test_block_gemmmmmbi._omp_fn.1+0xde>
  40258f:	31 d2                	xor    edx,edx
  402591:	48 f7 74 24 10       	div    QWORD PTR [rsp+0x10]
  402596:	48 8b 44 24 20       	mov    rax,QWORD PTR [rsp+0x20]
  40259b:	49 8b 7c 24 10       	mov    rdi,QWORD PTR [r12+0x10]
  4025a0:	c5 fa 10 44 24 1c    	vmovss xmm0,DWORD PTR [rsp+0x1c]
  4025a6:	4d 89 f8             	mov    r8,r15
  4025a9:	4c 89 f6             	mov    rsi,r14
  4025ac:	48 0f af 54 24 28    	imul   rdx,QWORD PTR [rsp+0x28]
  4025b2:	48 8d 0c 10          	lea    rcx,[rax+rdx*1]
  4025b6:	4c 89 ea             	mov    rdx,r13
  4025b9:	e8 72 3c 00 00       	call   406230 <_ZN12intel_mlperf8i_linear3refEPvS1_S1_S1_f>
  4025be:	48 89 d8             	mov    rax,rbx
  4025c1:	48 39 5c 24 08       	cmp    QWORD PTR [rsp+0x8],rbx
  4025c6:	75 b8                	jne    402580 <_Z15test_block_gemmmmmbi._omp_fn.1+0xa0>
  4025c8:	48 83 c4 38          	add    rsp,0x38
  4025cc:	5b                   	pop    rbx
  4025cd:	5d                   	pop    rbp
  4025ce:	41 5c                	pop    r12
  4025d0:	41 5d                	pop    r13
  4025d2:	41 5e                	pop    r14
  4025d4:	41 5f                	pop    r15
  4025d6:	c3                   	ret    
  4025d7:	66 0f 1f 84 00 00 00 	nop    WORD PTR [rax+rax*1+0x0]
  4025de:	00 00 
  4025e0:	ff c6                	inc    esi
  4025e2:	31 d2                	xor    edx,edx
  4025e4:	e9 2f ff ff ff       	jmp    402518 <_Z15test_block_gemmmmmbi._omp_fn.1+0x38>
  4025e9:	0f 1f 80 00 00 00 00 	nop    DWORD PTR [rax+0x0]

00000000004025f0 <_Z12naive_linearPvmS_mS_mS_fi>:
  4025f0:	41 57                	push   r15
  4025f2:	b8 04 00 00 00       	mov    eax,0x4
  4025f7:	41 56                	push   r14
  4025f9:	41 55                	push   r13
  4025fb:	41 54                	push   r12
  4025fd:	55                   	push   rbp
  4025fe:	53                   	push   rbx
  4025ff:	48 83 ec 38          	sub    rsp,0x38
  402603:	48 89 54 24 20       	mov    QWORD PTR [rsp+0x20],rdx
  402608:	48 89 4c 24 28       	mov    QWORD PTR [rsp+0x28],rcx
  40260d:	4c 89 44 24 10       	mov    QWORD PTR [rsp+0x10],r8
  402612:	c5 fa 11 44 24 0c    	vmovss DWORD PTR [rsp+0xc],xmm0
  402618:	c4 e2 79 f7 6c 24 78 	shlx   ebp,DWORD PTR [rsp+0x78],eax
  40261f:	85 ed                	test   ebp,ebp
  402621:	0f 8e 51 01 00 00    	jle    402778 <_Z12naive_linearPvmS_mS_mS_fi+0x188>
  402627:	4c 89 cb             	mov    rbx,r9
  40262a:	4d 85 c9             	test   r9,r9
  40262d:	0f 84 45 01 00 00    	je     402778 <_Z12naive_linearPvmS_mS_mS_fi+0x188>
  402633:	49 89 fd             	mov    r13,rdi
  402636:	49 89 f6             	mov    r14,rsi
  402639:	4c 89 c1             	mov    rcx,r8
  40263c:	4e 8d 3c 8d 00 00 00 	lea    r15,[r9*4+0x0]
  402643:	00 
  402644:	45 31 e4             	xor    r12d,r12d
  402647:	66 0f 1f 84 00 00 00 	nop    WORD PTR [rax+rax*1+0x0]
  40264e:	00 00 
  402650:	48 89 cf             	mov    rdi,rcx
  402653:	4c 89 fa             	mov    rdx,r15
  402656:	31 f6                	xor    esi,esi
  402658:	e8 63 fa ff ff       	call   4020c0 <memset@plt>
  40265d:	48 89 c1             	mov    rcx,rax
  402660:	41 ff c4             	inc    r12d
  402663:	4c 01 f9             	add    rcx,r15
  402666:	41 39 ec             	cmp    r12d,ebp
  402669:	75 e5                	jne    402650 <_Z12naive_linearPvmS_mS_mS_fi+0x60>
  40266b:	4d 85 f6             	test   r14,r14
  40266e:	0f 84 94 00 00 00    	je     402708 <_Z12naive_linearPvmS_mS_mS_fi+0x118>
  402674:	48 8d 04 9d 00 00 00 	lea    rax,[rbx*4+0x0]
  40267b:	00 
  40267c:	4c 8b 64 24 10       	mov    r12,QWORD PTR [rsp+0x10]
  402681:	4c 8b 4c 24 28       	mov    r9,QWORD PTR [rsp+0x28]
  402686:	48 89 44 24 18       	mov    QWORD PTR [rsp+0x18],rax
  40268b:	49 c1 e6 02          	shl    r14,0x2
  40268f:	4d 89 eb             	mov    r11,r13
  402692:	4f 8d 44 35 00       	lea    r8,[r13+r14*1+0x0]
  402697:	49 01 c4             	add    r12,rax
  40269a:	49 c1 e1 02          	shl    r9,0x2
  40269e:	45 31 ff             	xor    r15d,r15d
  4026a1:	45 31 ed             	xor    r13d,r13d
  4026a4:	0f 1f 40 00          	nop    DWORD PTR [rax+0x0]
  4026a8:	48 8b 44 24 10       	mov    rax,QWORD PTR [rsp+0x10]
  4026ad:	4c 8b 54 24 20       	mov    r10,QWORD PTR [rsp+0x20]
  4026b2:	4a 8d 3c b8          	lea    rdi,[rax+r15*4]
  4026b6:	66 2e 0f 1f 84 00 00 	cs nop WORD PTR [rax+rax*1+0x0]
  4026bd:	00 00 00 
  4026c0:	8b 37                	mov    esi,DWORD PTR [rdi]
  4026c2:	4c 89 d1             	mov    rcx,r10
  4026c5:	4c 89 d8             	mov    rax,r11
  4026c8:	0f 1f 84 00 00 00 00 	nop    DWORD PTR [rax+rax*1+0x0]
  4026cf:	00 
  4026d0:	8b 10                	mov    edx,DWORD PTR [rax]
  4026d2:	48 83 c0 04          	add    rax,0x4
  4026d6:	0f af 11             	imul   edx,DWORD PTR [rcx]
  4026d9:	4c 01 c9             	add    rcx,r9
  4026dc:	01 d6                	add    esi,edx
  4026de:	89 37                	mov    DWORD PTR [rdi],esi
  4026e0:	4c 39 c0             	cmp    rax,r8
  4026e3:	75 eb                	jne    4026d0 <_Z12naive_linearPvmS_mS_mS_fi+0xe0>
  4026e5:	48 83 c7 04          	add    rdi,0x4
  4026e9:	49 83 c2 04          	add    r10,0x4
  4026ed:	49 39 fc             	cmp    r12,rdi
  4026f0:	75 ce                	jne    4026c0 <_Z12naive_linearPvmS_mS_mS_fi+0xd0>
  4026f2:	41 ff c5             	inc    r13d
  4026f5:	4c 03 64 24 18       	add    r12,QWORD PTR [rsp+0x18]
  4026fa:	4d 01 f3             	add    r11,r14
  4026fd:	4d 01 f0             	add    r8,r14
  402700:	49 01 df             	add    r15,rbx
  402703:	41 39 ed             	cmp    r13d,ebp
  402706:	75 a0                	jne    4026a8 <_Z12naive_linearPvmS_mS_mS_fi+0xb8>
  402708:	4c 8b 64 24 10       	mov    r12,QWORD PTR [rsp+0x10]
  40270d:	48 c1 e3 02          	shl    rbx,0x2
  402711:	49 01 dc             	add    r12,rbx
  402714:	45 31 ed             	xor    r13d,r13d
  402717:	66 0f 1f 84 00 00 00 	nop    WORD PTR [rax+rax*1+0x0]
  40271e:	00 00 
  402720:	4d 89 e7             	mov    r15,r12
  402723:	4c 8b 74 24 70       	mov    r14,QWORD PTR [rsp+0x70]
  402728:	49 29 df             	sub    r15,rbx
  40272b:	0f 1f 44 00 00       	nop    DWORD PTR [rax+rax*1+0x0]
  402730:	c5 f0 57 c9          	vxorps xmm1,xmm1,xmm1
  402734:	c4 c1 72 2a 07       	vcvtsi2ss xmm0,xmm1,DWORD PTR [r15]
  402739:	c4 c1 7a 58 06       	vaddss xmm0,xmm0,DWORD PTR [r14]
  40273e:	c5 fa 59 44 24 0c    	vmulss xmm0,xmm0,DWORD PTR [rsp+0xc]
  402744:	e8 17 fa ff ff       	call   402160 <roundf@plt>
  402749:	c5 fa 2c c0          	vcvttss2si eax,xmm0
  40274d:	83 f8 7e             	cmp    eax,0x7e
  402750:	7f 3e                	jg     402790 <_Z12naive_linearPvmS_mS_mS_fi+0x1a0>
  402752:	b9 81 ff ff ff       	mov    ecx,0xffffff81
  402757:	39 c8                	cmp    eax,ecx
  402759:	0f 4c c1             	cmovl  eax,ecx
  40275c:	49 83 c7 04          	add    r15,0x4
  402760:	41 89 47 fc          	mov    DWORD PTR [r15-0x4],eax
  402764:	49 83 c6 04          	add    r14,0x4
  402768:	4d 39 e7             	cmp    r15,r12
  40276b:	75 c3                	jne    402730 <_Z12naive_linearPvmS_mS_mS_fi+0x140>
  40276d:	41 ff c5             	inc    r13d
  402770:	49 01 dc             	add    r12,rbx
  402773:	44 39 ed             	cmp    ebp,r13d
  402776:	75 a8                	jne    402720 <_Z12naive_linearPvmS_mS_mS_fi+0x130>
  402778:	48 83 c4 38          	add    rsp,0x38
  40277c:	5b                   	pop    rbx
  40277d:	5d                   	pop    rbp
  40277e:	41 5c                	pop    r12
  402780:	41 5d                	pop    r13
  402782:	41 5e                	pop    r14
  402784:	41 5f                	pop    r15
  402786:	c3                   	ret    
  402787:	66 0f 1f 84 00 00 00 	nop    WORD PTR [rax+rax*1+0x0]
  40278e:	00 00 
  402790:	41 c7 07 7f 00 00 00 	mov    DWORD PTR [r15],0x7f
  402797:	49 83 c7 04          	add    r15,0x4
  40279b:	49 83 c6 04          	add    r14,0x4
  40279f:	4d 39 fc             	cmp    r12,r15
  4027a2:	75 8c                	jne    402730 <_Z12naive_linearPvmS_mS_mS_fi+0x140>
  4027a4:	41 ff c5             	inc    r13d
  4027a7:	49 01 dc             	add    r12,rbx
  4027aa:	44 39 ed             	cmp    ebp,r13d
  4027ad:	0f 85 6d ff ff ff    	jne    402720 <_Z12naive_linearPvmS_mS_mS_fi+0x130>
  4027b3:	eb c3                	jmp    402778 <_Z12naive_linearPvmS_mS_mS_fi+0x188>
  4027b5:	66 66 2e 0f 1f 84 00 	data16 cs nop WORD PTR [rax+rax*1+0x0]
  4027bc:	00 00 00 00 

00000000004027c0 <_Z15send_data2naivePvS_S_S_ibmm>:
  4027c0:	55                   	push   rbp
  4027c1:	48 89 c8             	mov    rax,rcx
  4027c4:	48 89 e5             	mov    rbp,rsp
  4027c7:	41 57                	push   r15
  4027c9:	41 56                	push   r14
  4027cb:	41 55                	push   r13
  4027cd:	41 54                	push   r12
  4027cf:	49 89 fc             	mov    r12,rdi
  4027d2:	53                   	push   rbx
  4027d3:	48 89 d3             	mov    rbx,rdx
  4027d6:	48 83 e4 e0          	and    rsp,0xffffffffffffffe0
  4027da:	48 89 54 24 e0       	mov    QWORD PTR [rsp-0x20],rdx
  4027df:	48 89 74 24 c8       	mov    QWORD PTR [rsp-0x38],rsi
  4027e4:	48 8b 4d 10          	mov    rcx,QWORD PTR [rbp+0x10]
  4027e8:	48 8b 55 18          	mov    rdx,QWORD PTR [rbp+0x18]
  4027ec:	45 84 c9             	test   r9b,r9b
  4027ef:	0f 85 5a 03 00 00    	jne    402b4f <_Z15send_data2naivePvS_S_S_ibmm+0x38f>
  4027f5:	41 c1 e0 04          	shl    r8d,0x4
  4027f9:	44 89 44 24 dc       	mov    DWORD PTR [rsp-0x24],r8d
  4027fe:	45 85 c0             	test   r8d,r8d
  402801:	0f 8e cc 02 00 00    	jle    402ad3 <_Z15send_data2naivePvS_S_S_ibmm+0x313>
  402807:	48 85 c9             	test   rcx,rcx
  40280a:	0f 84 c3 02 00 00    	je     402ad3 <_Z15send_data2naivePvS_S_S_ibmm+0x313>
  402810:	49 89 d9             	mov    r9,rbx
  402813:	48 8d 59 ff          	lea    rbx,[rcx-0x1]
  402817:	48 89 5c 24 f0       	mov    QWORD PTR [rsp-0x10],rbx
  40281c:	48 89 cb             	mov    rbx,rcx
  40281f:	48 83 e3 e0          	and    rbx,0xffffffffffffffe0
  402823:	49 89 db             	mov    r11,rbx
  402826:	48 89 5c 24 d0       	mov    QWORD PTR [rsp-0x30],rbx
  40282b:	89 5c 24 e8          	mov    DWORD PTR [rsp-0x18],ebx
  40282f:	48 89 cb             	mov    rbx,rcx
  402832:	4c 29 db             	sub    rbx,r11
  402835:	48 89 5c 24 c0       	mov    QWORD PTR [rsp-0x40],rbx
  40283a:	48 ff cb             	dec    rbx
  40283d:	c7 44 24 f8 00 00 00 	mov    DWORD PTR [rsp-0x8],0x0
  402844:	00 
  402845:	48 89 5c 24 b8       	mov    QWORD PTR [rsp-0x48],rbx
  40284a:	48 8d 3c 8d 00 00 00 	lea    rdi,[rcx*4+0x0]
  402851:	00 
  402852:	4d 89 e0             	mov    r8,r12
  402855:	45 31 ed             	xor    r13d,r13d
  402858:	c4 e1 fb 92 c7       	kmovq  k0,rdi
  40285d:	4c 89 c7             	mov    rdi,r8
  402860:	4d 89 ce             	mov    r14,r9
  402863:	4d 89 c2             	mov    r10,r8
  402866:	49 01 c8             	add    r8,rcx
  402869:	c4 e1 fb 93 d8       	kmovq  rbx,k0
  40286e:	4c 89 ce             	mov    rsi,r9
  402871:	49 01 d9             	add    r9,rbx
  402874:	4d 39 c6             	cmp    r14,r8
  402877:	0f 93 c3             	setae  bl
  40287a:	4c 39 cf             	cmp    rdi,r9
  40287d:	41 0f 93 c7          	setae  r15b
  402881:	44 08 fb             	or     bl,r15b
  402884:	0f 84 a2 04 00 00    	je     402d2c <_Z15send_data2naivePvS_S_S_ibmm+0x56c>
  40288a:	48 83 7c 24 f0 0e    	cmp    QWORD PTR [rsp-0x10],0xe
  402890:	0f 86 96 04 00 00    	jbe    402d2c <_Z15send_data2naivePvS_S_S_ibmm+0x56c>
  402896:	48 83 7c 24 f0 1e    	cmp    QWORD PTR [rsp-0x10],0x1e
  40289c:	0f 86 7d 04 00 00    	jbe    402d1f <_Z15send_data2naivePvS_S_S_ibmm+0x55f>
  4028a2:	48 8b 5c 24 d0       	mov    rbx,QWORD PTR [rsp-0x30]
  4028a7:	48 01 fb             	add    rbx,rdi
  4028aa:	62 d1 7f 28 6f 02    	vmovdqu8 ymm0,YMMWORD PTR [r10]
  4028b0:	49 83 c2 20          	add    r10,0x20
  4028b4:	c4 e2 7d 20 c8       	vpmovsxbw ymm1,xmm0
  4028b9:	c4 e2 7d 23 d1       	vpmovsxwd ymm2,xmm1
  4028be:	c4 e3 7d 39 c0 01    	vextracti128 xmm0,ymm0,0x1
  4028c4:	c4 e3 7d 39 c9 01    	vextracti128 xmm1,ymm1,0x1
  4028ca:	c4 e2 7d 20 c0       	vpmovsxbw ymm0,xmm0
  4028cf:	c4 e2 7d 23 c9       	vpmovsxwd ymm1,xmm1
  4028d4:	c5 fe 7f 4e 20       	vmovdqu YMMWORD PTR [rsi+0x20],ymm1
  4028d9:	c4 e2 7d 23 c8       	vpmovsxwd ymm1,xmm0
  4028de:	c4 e3 7d 39 c0 01    	vextracti128 xmm0,ymm0,0x1
  4028e4:	c4 e2 7d 23 c0       	vpmovsxwd ymm0,xmm0
  4028e9:	c5 fe 7f 16          	vmovdqu YMMWORD PTR [rsi],ymm2
  4028ed:	c5 fe 7f 4e 40       	vmovdqu YMMWORD PTR [rsi+0x40],ymm1
  4028f2:	c5 fe 7f 46 60       	vmovdqu YMMWORD PTR [rsi+0x60],ymm0
  4028f7:	48 83 ee 80          	sub    rsi,0xffffffffffffff80
  4028fb:	49 39 da             	cmp    r10,rbx
  4028fe:	75 aa                	jne    4028aa <_Z15send_data2naivePvS_S_S_ibmm+0xea>
  402900:	4c 39 d9             	cmp    rcx,r11
  402903:	0f 84 b2 01 00 00    	je     402abb <_Z15send_data2naivePvS_S_S_ibmm+0x2fb>
  402909:	48 83 7c 24 b8 0e    	cmp    QWORD PTR [rsp-0x48],0xe
  40290f:	4c 8b 7c 24 c0       	mov    r15,QWORD PTR [rsp-0x40]
  402914:	0f 86 2a 04 00 00    	jbe    402d44 <_Z15send_data2naivePvS_S_S_ibmm+0x584>
  40291a:	8b 74 24 e8          	mov    esi,DWORD PTR [rsp-0x18]
  40291e:	4d 89 da             	mov    r10,r11
  402921:	4d 01 ea             	add    r10,r13
  402924:	62 91 7f 08 6f 04 14 	vmovdqu8 xmm0,XMMWORD PTR [r12+r10*1]
  40292b:	48 8b 5c 24 e0       	mov    rbx,QWORD PTR [rsp-0x20]
  402930:	c4 e2 79 20 c8       	vpmovsxbw xmm1,xmm0
  402935:	c4 e2 79 23 d1       	vpmovsxwd xmm2,xmm1
  40293a:	c5 f9 73 d8 08       	vpsrldq xmm0,xmm0,0x8
  40293f:	c5 f1 73 d9 08       	vpsrldq xmm1,xmm1,0x8
  402944:	4a 8d 1c 93          	lea    rbx,[rbx+r10*4]
  402948:	c4 e2 79 20 c0       	vpmovsxbw xmm0,xmm0
  40294d:	c4 e2 79 23 c9       	vpmovsxwd xmm1,xmm1
  402952:	c5 fa 7f 4b 10       	vmovdqu XMMWORD PTR [rbx+0x10],xmm1
  402957:	4d 89 fa             	mov    r10,r15
  40295a:	c4 e2 79 23 c8       	vpmovsxwd xmm1,xmm0
  40295f:	c5 f9 73 d8 08       	vpsrldq xmm0,xmm0,0x8
  402964:	c4 e2 79 23 c0       	vpmovsxwd xmm0,xmm0
  402969:	49 83 e2 f0          	and    r10,0xfffffffffffffff0
  40296d:	c5 fa 7f 13          	vmovdqu XMMWORD PTR [rbx],xmm2
  402971:	c5 fa 7f 4b 20       	vmovdqu XMMWORD PTR [rbx+0x20],xmm1
  402976:	c5 fa 7f 43 30       	vmovdqu XMMWORD PTR [rbx+0x30],xmm0
  40297b:	44 01 d6             	add    esi,r10d
  40297e:	4d 39 fa             	cmp    r10,r15
  402981:	0f 84 34 01 00 00    	je     402abb <_Z15send_data2naivePvS_S_S_ibmm+0x2fb>
  402987:	48 63 de             	movsxd rbx,esi
  40298a:	4d 8d 14 9e          	lea    r10,[r14+rbx*4]
  40298e:	0f be 1c 1f          	movsx  ebx,BYTE PTR [rdi+rbx*1]
  402992:	41 89 1a             	mov    DWORD PTR [r10],ebx
  402995:	8d 5e 01             	lea    ebx,[rsi+0x1]
  402998:	48 63 db             	movsxd rbx,ebx
  40299b:	48 39 d9             	cmp    rcx,rbx
  40299e:	0f 86 17 01 00 00    	jbe    402abb <_Z15send_data2naivePvS_S_S_ibmm+0x2fb>
  4029a4:	0f be 1c 1f          	movsx  ebx,BYTE PTR [rdi+rbx*1]
  4029a8:	41 89 5a 04          	mov    DWORD PTR [r10+0x4],ebx
  4029ac:	8d 5e 02             	lea    ebx,[rsi+0x2]
  4029af:	48 63 db             	movsxd rbx,ebx
  4029b2:	48 39 d9             	cmp    rcx,rbx
  4029b5:	0f 86 00 01 00 00    	jbe    402abb <_Z15send_data2naivePvS_S_S_ibmm+0x2fb>
  4029bb:	0f be 1c 1f          	movsx  ebx,BYTE PTR [rdi+rbx*1]
  4029bf:	41 89 5a 08          	mov    DWORD PTR [r10+0x8],ebx
  4029c3:	8d 5e 03             	lea    ebx,[rsi+0x3]
  4029c6:	48 63 db             	movsxd rbx,ebx
  4029c9:	48 39 d9             	cmp    rcx,rbx
  4029cc:	0f 86 e9 00 00 00    	jbe    402abb <_Z15send_data2naivePvS_S_S_ibmm+0x2fb>
  4029d2:	0f be 1c 1f          	movsx  ebx,BYTE PTR [rdi+rbx*1]
  4029d6:	41 89 5a 0c          	mov    DWORD PTR [r10+0xc],ebx
  4029da:	8d 5e 04             	lea    ebx,[rsi+0x4]
  4029dd:	48 63 db             	movsxd rbx,ebx
  4029e0:	48 39 d9             	cmp    rcx,rbx
  4029e3:	0f 86 d2 00 00 00    	jbe    402abb <_Z15send_data2naivePvS_S_S_ibmm+0x2fb>
  4029e9:	0f be 1c 1f          	movsx  ebx,BYTE PTR [rdi+rbx*1]
  4029ed:	41 89 5a 10          	mov    DWORD PTR [r10+0x10],ebx
  4029f1:	8d 5e 05             	lea    ebx,[rsi+0x5]
  4029f4:	48 63 db             	movsxd rbx,ebx
  4029f7:	48 39 d9             	cmp    rcx,rbx
  4029fa:	0f 86 bb 00 00 00    	jbe    402abb <_Z15send_data2naivePvS_S_S_ibmm+0x2fb>
  402a00:	0f be 1c 1f          	movsx  ebx,BYTE PTR [rdi+rbx*1]
  402a04:	41 89 5a 14          	mov    DWORD PTR [r10+0x14],ebx
  402a08:	8d 5e 06             	lea    ebx,[rsi+0x6]
  402a0b:	48 63 db             	movsxd rbx,ebx
  402a0e:	48 39 d9             	cmp    rcx,rbx
  402a11:	0f 86 a4 00 00 00    	jbe    402abb <_Z15send_data2naivePvS_S_S_ibmm+0x2fb>
  402a17:	0f be 1c 1f          	movsx  ebx,BYTE PTR [rdi+rbx*1]
  402a1b:	41 89 5a 18          	mov    DWORD PTR [r10+0x18],ebx
  402a1f:	8d 5e 07             	lea    ebx,[rsi+0x7]
  402a22:	48 63 db             	movsxd rbx,ebx
  402a25:	48 39 d9             	cmp    rcx,rbx
  402a28:	0f 86 8d 00 00 00    	jbe    402abb <_Z15send_data2naivePvS_S_S_ibmm+0x2fb>
  402a2e:	0f be 1c 1f          	movsx  ebx,BYTE PTR [rdi+rbx*1]
  402a32:	41 89 5a 1c          	mov    DWORD PTR [r10+0x1c],ebx
  402a36:	8d 5e 08             	lea    ebx,[rsi+0x8]
  402a39:	48 63 db             	movsxd rbx,ebx
  402a3c:	48 39 d9             	cmp    rcx,rbx
  402a3f:	76 7a                	jbe    402abb <_Z15send_data2naivePvS_S_S_ibmm+0x2fb>
  402a41:	0f be 1c 1f          	movsx  ebx,BYTE PTR [rdi+rbx*1]
  402a45:	41 89 5a 20          	mov    DWORD PTR [r10+0x20],ebx
  402a49:	8d 5e 09             	lea    ebx,[rsi+0x9]
  402a4c:	48 63 db             	movsxd rbx,ebx
  402a4f:	48 39 d9             	cmp    rcx,rbx
  402a52:	76 67                	jbe    402abb <_Z15send_data2naivePvS_S_S_ibmm+0x2fb>
  402a54:	0f be 1c 1f          	movsx  ebx,BYTE PTR [rdi+rbx*1]
  402a58:	41 89 5a 24          	mov    DWORD PTR [r10+0x24],ebx
  402a5c:	8d 5e 0a             	lea    ebx,[rsi+0xa]
  402a5f:	48 63 db             	movsxd rbx,ebx
  402a62:	48 39 d9             	cmp    rcx,rbx
  402a65:	76 54                	jbe    402abb <_Z15send_data2naivePvS_S_S_ibmm+0x2fb>
  402a67:	0f be 1c 1f          	movsx  ebx,BYTE PTR [rdi+rbx*1]
  402a6b:	41 89 5a 28          	mov    DWORD PTR [r10+0x28],ebx
  402a6f:	8d 5e 0b             	lea    ebx,[rsi+0xb]
  402a72:	48 63 db             	movsxd rbx,ebx
  402a75:	48 39 d9             	cmp    rcx,rbx
  402a78:	76 41                	jbe    402abb <_Z15send_data2naivePvS_S_S_ibmm+0x2fb>
  402a7a:	0f be 1c 1f          	movsx  ebx,BYTE PTR [rdi+rbx*1]
  402a7e:	41 89 5a 2c          	mov    DWORD PTR [r10+0x2c],ebx
  402a82:	8d 5e 0c             	lea    ebx,[rsi+0xc]
  402a85:	48 63 db             	movsxd rbx,ebx
  402a88:	48 39 d9             	cmp    rcx,rbx
  402a8b:	76 2e                	jbe    402abb <_Z15send_data2naivePvS_S_S_ibmm+0x2fb>
  402a8d:	0f be 1c 1f          	movsx  ebx,BYTE PTR [rdi+rbx*1]
  402a91:	41 89 5a 30          	mov    DWORD PTR [r10+0x30],ebx
  402a95:	8d 5e 0d             	lea    ebx,[rsi+0xd]
  402a98:	48 63 db             	movsxd rbx,ebx
  402a9b:	48 39 d9             	cmp    rcx,rbx
  402a9e:	76 1b                	jbe    402abb <_Z15send_data2naivePvS_S_S_ibmm+0x2fb>
  402aa0:	0f be 1c 1f          	movsx  ebx,BYTE PTR [rdi+rbx*1]
  402aa4:	83 c6 0e             	add    esi,0xe
  402aa7:	48 63 f6             	movsxd rsi,esi
  402aaa:	41 89 5a 34          	mov    DWORD PTR [r10+0x34],ebx
  402aae:	48 39 f1             	cmp    rcx,rsi
  402ab1:	76 08                	jbe    402abb <_Z15send_data2naivePvS_S_S_ibmm+0x2fb>
  402ab3:	0f be 34 37          	movsx  esi,BYTE PTR [rdi+rsi*1]
  402ab7:	41 89 72 38          	mov    DWORD PTR [r10+0x38],esi
  402abb:	ff 44 24 f8          	inc    DWORD PTR [rsp-0x8]
  402abf:	49 01 cd             	add    r13,rcx
  402ac2:	8b 5c 24 f8          	mov    ebx,DWORD PTR [rsp-0x8]
  402ac6:	3b 5c 24 dc          	cmp    ebx,DWORD PTR [rsp-0x24]
  402aca:	0f 85 8d fd ff ff    	jne    40285d <_Z15send_data2naivePvS_S_S_ibmm+0x9d>
  402ad0:	c5 f8 77             	vzeroupper 
  402ad3:	48 8b 5c 24 c8       	mov    rbx,QWORD PTR [rsp-0x38]
  402ad8:	45 31 c9             	xor    r9d,r9d
  402adb:	48 89 df             	mov    rdi,rbx
  402ade:	45 31 db             	xor    r11d,r11d
  402ae1:	46 8d 04 9d 00 00 00 	lea    r8d,[r11*4+0x0]
  402ae8:	00 
  402ae9:	4c 8d 97 00 04 00 00 	lea    r10,[rdi+0x400]
  402af0:	31 f6                	xor    esi,esi
  402af2:	66 0f 1f 44 00 00    	nop    WORD PTR [rax+rax*1+0x0]
  402af8:	89 f1                	mov    ecx,esi
  402afa:	83 e1 03             	and    ecx,0x3
  402afd:	44 01 c1             	add    ecx,r8d
  402b00:	4c 63 e1             	movsxd r12,ecx
  402b03:	89 f1                	mov    ecx,esi
  402b05:	c1 f9 02             	sar    ecx,0x2
  402b08:	4c 0f af e2          	imul   r12,rdx
  402b0c:	44 01 c9             	add    ecx,r9d
  402b0f:	48 63 c9             	movsxd rcx,ecx
  402b12:	48 c1 e1 02          	shl    rcx,0x2
  402b16:	4a 8d 0c a1          	lea    rcx,[rcx+r12*4]
  402b1a:	44 0f be 24 37       	movsx  r12d,BYTE PTR [rdi+rsi*1]
  402b1f:	48 ff c6             	inc    rsi
  402b22:	44 89 24 08          	mov    DWORD PTR [rax+rcx*1],r12d
  402b26:	48 83 fe 40          	cmp    rsi,0x40
  402b2a:	75 cc                	jne    402af8 <_Z15send_data2naivePvS_S_S_ibmm+0x338>
  402b2c:	48 83 c7 40          	add    rdi,0x40
  402b30:	41 83 c0 04          	add    r8d,0x4
  402b34:	49 39 fa             	cmp    r10,rdi
  402b37:	75 b7                	jne    402af0 <_Z15send_data2naivePvS_S_S_ibmm+0x330>
  402b39:	49 83 c3 10          	add    r11,0x10
  402b3d:	49 81 fb 00 01 00 00 	cmp    r11,0x100
  402b44:	0f 84 b1 01 00 00    	je     402cfb <_Z15send_data2naivePvS_S_S_ibmm+0x53b>
  402b4a:	4c 89 d7             	mov    rdi,r10
  402b4d:	eb 92                	jmp    402ae1 <_Z15send_data2naivePvS_S_S_ibmm+0x321>
  402b4f:	45 85 c0             	test   r8d,r8d
  402b52:	0f 8e 7b ff ff ff    	jle    402ad3 <_Z15send_data2naivePvS_S_S_ibmm+0x313>
  402b58:	48 89 cb             	mov    rbx,rcx
  402b5b:	48 c1 e3 06          	shl    rbx,0x6
  402b5f:	48 89 5c 24 f0       	mov    QWORD PTR [rsp-0x10],rbx
  402b64:	41 8d 70 ff          	lea    esi,[r8-0x1]
  402b68:	48 8b 5c 24 e0       	mov    rbx,QWORD PTR [rsp-0x20]
  402b6d:	48 c1 e6 0e          	shl    rsi,0xe
  402b71:	48 89 5c 24 f8       	mov    QWORD PTR [rsp-0x8],rbx
  402b76:	48 8d 1c 37          	lea    rbx,[rdi+rsi*1]
  402b7a:	48 89 5c 24 e8       	mov    QWORD PTR [rsp-0x18],rbx
  402b7f:	4c 8d 0c 8d 00 00 00 	lea    r9,[rcx*4+0x0]
  402b86:	00 
  402b87:	4c 8b 6c 24 f8       	mov    r13,QWORD PTR [rsp-0x8]
  402b8c:	49 8d 9c 24 00 04 00 	lea    rbx,[r12+0x400]
  402b93:	00 
  402b94:	4d 89 e7             	mov    r15,r12
  402b97:	45 31 f6             	xor    r14d,r14d
  402b9a:	4c 8d 9b 00 fc ff ff 	lea    r11,[rbx-0x400]
  402ba1:	4d 89 e8             	mov    r8,r13
  402ba4:	4c 89 ff             	mov    rdi,r15
  402ba7:	4d 89 ea             	mov    r10,r13
  402baa:	e9 b8 00 00 00       	jmp    402c67 <_Z15send_data2naivePvS_S_S_ibmm+0x4a7>
  402baf:	90                   	nop
  402bb0:	62 f1 7f 28 6f 01    	vmovdqu8 ymm0,YMMWORD PTR [rcx]
  402bb6:	48 83 c7 40          	add    rdi,0x40
  402bba:	c4 e2 7d 20 c8       	vpmovsxbw ymm1,xmm0
  402bbf:	c4 e2 7d 23 d1       	vpmovsxwd ymm2,xmm1
  402bc4:	c4 e3 7d 39 c0 01    	vextracti128 xmm0,ymm0,0x1
  402bca:	c4 e3 7d 39 c9 01    	vextracti128 xmm1,ymm1,0x1
  402bd0:	c4 e2 7d 20 c0       	vpmovsxbw ymm0,xmm0
  402bd5:	c4 e2 7d 23 c9       	vpmovsxwd ymm1,xmm1
  402bda:	c4 c1 7e 7f 4a 20    	vmovdqu YMMWORD PTR [r10+0x20],ymm1
  402be0:	c4 e2 7d 23 c8       	vpmovsxwd ymm1,xmm0
  402be5:	c4 e3 7d 39 c0 01    	vextracti128 xmm0,ymm0,0x1
  402beb:	c4 e2 7d 23 c0       	vpmovsxwd ymm0,xmm0
  402bf0:	c4 c1 7e 7f 12       	vmovdqu YMMWORD PTR [r10],ymm2
  402bf5:	c4 c1 7e 7f 4a 40    	vmovdqu YMMWORD PTR [r10+0x40],ymm1
  402bfb:	c4 c1 7e 7f 42 60    	vmovdqu YMMWORD PTR [r10+0x60],ymm0
  402c01:	62 f1 7f 28 6f 41 01 	vmovdqu8 ymm0,YMMWORD PTR [rcx+0x20]
  402c08:	4d 01 c8             	add    r8,r9
  402c0b:	c4 e2 7d 20 c8       	vpmovsxbw ymm1,xmm0
  402c10:	c4 e2 7d 23 d1       	vpmovsxwd ymm2,xmm1
  402c15:	c4 e3 7d 39 c0 01    	vextracti128 xmm0,ymm0,0x1
  402c1b:	c4 e3 7d 39 c9 01    	vextracti128 xmm1,ymm1,0x1
  402c21:	c4 e2 7d 20 c0       	vpmovsxbw ymm0,xmm0
  402c26:	c4 e2 7d 23 c9       	vpmovsxwd ymm1,xmm1
  402c2b:	c4 c1 7e 7f 8a a0 00 	vmovdqu YMMWORD PTR [r10+0xa0],ymm1
  402c32:	00 00 
  402c34:	c4 e2 7d 23 c8       	vpmovsxwd ymm1,xmm0
  402c39:	c4 e3 7d 39 c0 01    	vextracti128 xmm0,ymm0,0x1
  402c3f:	c4 e2 7d 23 c0       	vpmovsxwd ymm0,xmm0
  402c44:	c4 c1 7e 7f 92 80 00 	vmovdqu YMMWORD PTR [r10+0x80],ymm2
  402c4b:	00 00 
  402c4d:	c4 c1 7e 7f 8a c0 00 	vmovdqu YMMWORD PTR [r10+0xc0],ymm1
  402c54:	00 00 
  402c56:	c4 c1 7e 7f 82 e0 00 	vmovdqu YMMWORD PTR [r10+0xe0],ymm0
  402c5d:	00 00 
  402c5f:	4d 01 ca             	add    r10,r9
  402c62:	49 39 db             	cmp    r11,rbx
  402c65:	74 49                	je     402cb0 <_Z15send_data2naivePvS_S_S_ibmm+0x4f0>
  402c67:	4c 89 d9             	mov    rcx,r11
  402c6a:	49 8d b2 00 01 00 00 	lea    rsi,[r10+0x100]
  402c71:	49 83 c3 40          	add    r11,0x40
  402c75:	48 39 f1             	cmp    rcx,rsi
  402c78:	0f 83 32 ff ff ff    	jae    402bb0 <_Z15send_data2naivePvS_S_S_ibmm+0x3f0>
  402c7e:	4d 39 da             	cmp    r10,r11
  402c81:	0f 83 29 ff ff ff    	jae    402bb0 <_Z15send_data2naivePvS_S_S_ibmm+0x3f0>
  402c87:	31 c9                	xor    ecx,ecx
  402c89:	0f 1f 80 00 00 00 00 	nop    DWORD PTR [rax+0x0]
  402c90:	0f be 34 0f          	movsx  esi,BYTE PTR [rdi+rcx*1]
  402c94:	41 89 34 88          	mov    DWORD PTR [r8+rcx*4],esi
  402c98:	48 ff c1             	inc    rcx
  402c9b:	48 83 f9 40          	cmp    rcx,0x40
  402c9f:	75 ef                	jne    402c90 <_Z15send_data2naivePvS_S_S_ibmm+0x4d0>
  402ca1:	4d 01 ca             	add    r10,r9
  402ca4:	48 83 c7 40          	add    rdi,0x40
  402ca8:	4d 01 c8             	add    r8,r9
  402cab:	49 39 db             	cmp    r11,rbx
  402cae:	75 b7                	jne    402c67 <_Z15send_data2naivePvS_S_S_ibmm+0x4a7>
  402cb0:	49 83 c6 10          	add    r14,0x10
  402cb4:	49 8d 9b 00 04 00 00 	lea    rbx,[r11+0x400]
  402cbb:	49 81 c5 00 01 00 00 	add    r13,0x100
  402cc2:	49 81 c7 00 04 00 00 	add    r15,0x400
  402cc9:	49 81 fe 00 01 00 00 	cmp    r14,0x100
  402cd0:	0f 85 c4 fe ff ff    	jne    402b9a <_Z15send_data2naivePvS_S_S_ibmm+0x3da>
  402cd6:	48 8b 7c 24 f0       	mov    rdi,QWORD PTR [rsp-0x10]
  402cdb:	49 8d 8c 24 00 40 00 	lea    rcx,[r12+0x4000]
  402ce2:	00 
  402ce3:	48 01 7c 24 f8       	add    QWORD PTR [rsp-0x8],rdi
  402ce8:	4c 3b 64 24 e8       	cmp    r12,QWORD PTR [rsp-0x18]
  402ced:	0f 84 dd fd ff ff    	je     402ad0 <_Z15send_data2naivePvS_S_S_ibmm+0x310>
  402cf3:	49 89 cc             	mov    r12,rcx
  402cf6:	e9 8c fe ff ff       	jmp    402b87 <_Z15send_data2naivePvS_S_S_ibmm+0x3c7>
  402cfb:	41 83 c1 10          	add    r9d,0x10
  402cff:	48 81 c3 00 40 00 00 	add    rbx,0x4000
  402d06:	41 83 f9 40          	cmp    r9d,0x40
  402d0a:	0f 85 cb fd ff ff    	jne    402adb <_Z15send_data2naivePvS_S_S_ibmm+0x31b>
  402d10:	48 8d 65 d8          	lea    rsp,[rbp-0x28]
  402d14:	5b                   	pop    rbx
  402d15:	41 5c                	pop    r12
  402d17:	41 5d                	pop    r13
  402d19:	41 5e                	pop    r14
  402d1b:	41 5f                	pop    r15
  402d1d:	5d                   	pop    rbp
  402d1e:	c3                   	ret    
  402d1f:	49 89 cf             	mov    r15,rcx
  402d22:	45 31 d2             	xor    r10d,r10d
  402d25:	31 f6                	xor    esi,esi
  402d27:	e9 f5 fb ff ff       	jmp    402921 <_Z15send_data2naivePvS_S_S_ibmm+0x161>
  402d2c:	31 f6                	xor    esi,esi
  402d2e:	44 0f be 14 37       	movsx  r10d,BYTE PTR [rdi+rsi*1]
  402d33:	45 89 14 b6          	mov    DWORD PTR [r14+rsi*4],r10d
  402d37:	48 ff c6             	inc    rsi
  402d3a:	48 39 f1             	cmp    rcx,rsi
  402d3d:	75 ef                	jne    402d2e <_Z15send_data2naivePvS_S_S_ibmm+0x56e>
  402d3f:	e9 77 fd ff ff       	jmp    402abb <_Z15send_data2naivePvS_S_S_ibmm+0x2fb>
  402d44:	8b 74 24 e8          	mov    esi,DWORD PTR [rsp-0x18]
  402d48:	e9 3a fc ff ff       	jmp    402987 <_Z15send_data2naivePvS_S_S_ibmm+0x1c7>
  402d4d:	0f 1f 00             	nop    DWORD PTR [rax]

0000000000402d50 <_Z10send_inputPvS_mm>:
  402d50:	55                   	push   rbp
  402d51:	48 89 e5             	mov    rbp,rsp
  402d54:	41 57                	push   r15
  402d56:	41 56                	push   r14
  402d58:	41 55                	push   r13
  402d5a:	41 54                	push   r12
  402d5c:	53                   	push   rbx
  402d5d:	48 83 e4 e0          	and    rsp,0xffffffffffffffe0
  402d61:	48 89 54 24 f8       	mov    QWORD PTR [rsp-0x8],rdx
  402d66:	48 85 d2             	test   rdx,rdx
  402d69:	0f 84 bd 02 00 00    	je     40302c <_Z10send_inputPvS_mm+0x2dc>
  402d6f:	48 89 ca             	mov    rdx,rcx
  402d72:	48 85 c9             	test   rcx,rcx
  402d75:	0f 84 b1 02 00 00    	je     40302c <_Z10send_inputPvS_mm+0x2dc>
  402d7b:	48 8d 04 8d 00 00 00 	lea    rax,[rcx*4+0x0]
  402d82:	00 
  402d83:	48 89 44 24 f0       	mov    QWORD PTR [rsp-0x10],rax
  402d88:	48 89 c8             	mov    rax,rcx
  402d8b:	48 83 e0 e0          	and    rax,0xffffffffffffffe0
  402d8f:	48 89 44 24 e0       	mov    QWORD PTR [rsp-0x20],rax
  402d94:	48 89 c8             	mov    rax,rcx
  402d97:	48 83 e0 e0          	and    rax,0xffffffffffffffe0
  402d9b:	48 89 44 24 e8       	mov    QWORD PTR [rsp-0x18],rax
  402da0:	48 89 c8             	mov    rax,rcx
  402da3:	83 e0 1f             	and    eax,0x1f
  402da6:	48 89 44 24 d8       	mov    QWORD PTR [rsp-0x28],rax
  402dab:	48 ff c8             	dec    rax
  402dae:	48 89 44 24 d0       	mov    QWORD PTR [rsp-0x30],rax
  402db3:	49 89 fc             	mov    r12,rdi
  402db6:	49 89 f5             	mov    r13,rsi
  402db9:	49 89 f0             	mov    r8,rsi
  402dbc:	4c 8d 79 ff          	lea    r15,[rcx-0x1]
  402dc0:	31 db                	xor    ebx,ebx
  402dc2:	45 31 f6             	xor    r14d,r14d
  402dc5:	0f 1f 00             	nop    DWORD PTR [rax]
  402dc8:	48 89 f9             	mov    rcx,rdi
  402dcb:	4d 89 c1             	mov    r9,r8
  402dce:	48 89 fe             	mov    rsi,rdi
  402dd1:	48 01 d7             	add    rdi,rdx
  402dd4:	4c 89 c0             	mov    rax,r8
  402dd7:	4c 03 44 24 f0       	add    r8,QWORD PTR [rsp-0x10]
  402ddc:	49 39 f9             	cmp    r9,rdi
  402ddf:	41 0f 93 c2          	setae  r10b
  402de3:	4c 39 c1             	cmp    rcx,r8
  402de6:	41 0f 93 c3          	setae  r11b
  402dea:	45 08 da             	or     r10b,r11b
  402ded:	0f 84 4d 02 00 00    	je     403040 <_Z10send_inputPvS_mm+0x2f0>
  402df3:	49 83 ff 0e          	cmp    r15,0xe
  402df7:	0f 86 43 02 00 00    	jbe    403040 <_Z10send_inputPvS_mm+0x2f0>
  402dfd:	49 83 ff 1e          	cmp    r15,0x1e
  402e01:	0f 86 53 02 00 00    	jbe    40305a <_Z10send_inputPvS_mm+0x30a>
  402e07:	4c 8b 5c 24 e0       	mov    r11,QWORD PTR [rsp-0x20]
  402e0c:	4d 8d 14 0b          	lea    r10,[r11+rcx*1]
  402e10:	62 f1 7f 28 6f 06    	vmovdqu8 ymm0,YMMWORD PTR [rsi]
  402e16:	48 83 c6 20          	add    rsi,0x20
  402e1a:	c4 e2 7d 20 c8       	vpmovsxbw ymm1,xmm0
  402e1f:	c4 e2 7d 23 d1       	vpmovsxwd ymm2,xmm1
  402e24:	c4 e3 7d 39 c0 01    	vextracti128 xmm0,ymm0,0x1
  402e2a:	c4 e3 7d 39 c9 01    	vextracti128 xmm1,ymm1,0x1
  402e30:	c4 e2 7d 20 c0       	vpmovsxbw ymm0,xmm0
  402e35:	c4 e2 7d 23 c9       	vpmovsxwd ymm1,xmm1
  402e3a:	c5 fe 7f 48 20       	vmovdqu YMMWORD PTR [rax+0x20],ymm1
  402e3f:	c4 e2 7d 23 c8       	vpmovsxwd ymm1,xmm0
  402e44:	c4 e3 7d 39 c0 01    	vextracti128 xmm0,ymm0,0x1
  402e4a:	c4 e2 7d 23 c0       	vpmovsxwd ymm0,xmm0
  402e4f:	c5 fe 7f 10          	vmovdqu YMMWORD PTR [rax],ymm2
  402e53:	c5 fe 7f 48 40       	vmovdqu YMMWORD PTR [rax+0x40],ymm1
  402e58:	c5 fe 7f 40 60       	vmovdqu YMMWORD PTR [rax+0x60],ymm0
  402e5d:	48 83 e8 80          	sub    rax,0xffffffffffffff80
  402e61:	4c 39 d6             	cmp    rsi,r10
  402e64:	75 aa                	jne    402e10 <_Z10send_inputPvS_mm+0xc0>
  402e66:	48 8b 44 24 e8       	mov    rax,QWORD PTR [rsp-0x18]
  402e6b:	48 39 c2             	cmp    rdx,rax
  402e6e:	0f 84 a4 01 00 00    	je     403018 <_Z10send_inputPvS_mm+0x2c8>
  402e74:	48 83 7c 24 d0 0e    	cmp    QWORD PTR [rsp-0x30],0xe
  402e7a:	4c 8b 5c 24 d8       	mov    r11,QWORD PTR [rsp-0x28]
  402e7f:	76 63                	jbe    402ee4 <_Z10send_inputPvS_mm+0x194>
  402e81:	4c 8d 14 18          	lea    r10,[rax+rbx*1]
  402e85:	62 91 7f 08 6f 04 14 	vmovdqu8 xmm0,XMMWORD PTR [r12+r10*1]
  402e8c:	4b 8d 74 95 00       	lea    rsi,[r13+r10*4+0x0]
  402e91:	c4 e2 79 20 c8       	vpmovsxbw xmm1,xmm0
  402e96:	c4 e2 79 23 d1       	vpmovsxwd xmm2,xmm1
  402e9b:	c5 f9 73 d8 08       	vpsrldq xmm0,xmm0,0x8
  402ea0:	c5 f1 73 d9 08       	vpsrldq xmm1,xmm1,0x8
  402ea5:	c4 e2 79 20 c0       	vpmovsxbw xmm0,xmm0
  402eaa:	c4 e2 79 23 c9       	vpmovsxwd xmm1,xmm1
  402eaf:	c5 fa 7f 4e 10       	vmovdqu XMMWORD PTR [rsi+0x10],xmm1
  402eb4:	c4 e2 79 23 c8       	vpmovsxwd xmm1,xmm0
  402eb9:	c5 f9 73 d8 08       	vpsrldq xmm0,xmm0,0x8
  402ebe:	c4 e2 79 23 c0       	vpmovsxwd xmm0,xmm0
  402ec3:	c5 fa 7f 16          	vmovdqu XMMWORD PTR [rsi],xmm2
  402ec7:	c5 fa 7f 4e 20       	vmovdqu XMMWORD PTR [rsi+0x20],xmm1
  402ecc:	c5 fa 7f 46 30       	vmovdqu XMMWORD PTR [rsi+0x30],xmm0
  402ed1:	4c 89 de             	mov    rsi,r11
  402ed4:	48 83 e6 f0          	and    rsi,0xfffffffffffffff0
  402ed8:	48 01 f0             	add    rax,rsi
  402edb:	49 39 f3             	cmp    r11,rsi
  402ede:	0f 84 34 01 00 00    	je     403018 <_Z10send_inputPvS_mm+0x2c8>
  402ee4:	49 8d 34 81          	lea    rsi,[r9+rax*4]
  402ee8:	44 0f be 0c 01       	movsx  r9d,BYTE PTR [rcx+rax*1]
  402eed:	44 89 0e             	mov    DWORD PTR [rsi],r9d
  402ef0:	4c 8d 48 01          	lea    r9,[rax+0x1]
  402ef4:	4c 39 ca             	cmp    rdx,r9
  402ef7:	0f 86 1b 01 00 00    	jbe    403018 <_Z10send_inputPvS_mm+0x2c8>
  402efd:	44 0f be 4c 01 01    	movsx  r9d,BYTE PTR [rcx+rax*1+0x1]
  402f03:	44 89 4e 04          	mov    DWORD PTR [rsi+0x4],r9d
  402f07:	4c 8d 48 02          	lea    r9,[rax+0x2]
  402f0b:	4c 39 ca             	cmp    rdx,r9
  402f0e:	0f 86 04 01 00 00    	jbe    403018 <_Z10send_inputPvS_mm+0x2c8>
  402f14:	44 0f be 4c 01 02    	movsx  r9d,BYTE PTR [rcx+rax*1+0x2]
  402f1a:	44 89 4e 08          	mov    DWORD PTR [rsi+0x8],r9d
  402f1e:	4c 8d 48 03          	lea    r9,[rax+0x3]
  402f22:	4c 39 ca             	cmp    rdx,r9
  402f25:	0f 86 ed 00 00 00    	jbe    403018 <_Z10send_inputPvS_mm+0x2c8>
  402f2b:	44 0f be 4c 01 03    	movsx  r9d,BYTE PTR [rcx+rax*1+0x3]
  402f31:	44 89 4e 0c          	mov    DWORD PTR [rsi+0xc],r9d
  402f35:	4c 8d 48 04          	lea    r9,[rax+0x4]
  402f39:	4c 39 ca             	cmp    rdx,r9
  402f3c:	0f 86 d6 00 00 00    	jbe    403018 <_Z10send_inputPvS_mm+0x2c8>
  402f42:	44 0f be 4c 01 04    	movsx  r9d,BYTE PTR [rcx+rax*1+0x4]
  402f48:	44 89 4e 10          	mov    DWORD PTR [rsi+0x10],r9d
  402f4c:	4c 8d 48 05          	lea    r9,[rax+0x5]
  402f50:	4c 39 ca             	cmp    rdx,r9
  402f53:	0f 86 bf 00 00 00    	jbe    403018 <_Z10send_inputPvS_mm+0x2c8>
  402f59:	44 0f be 4c 01 05    	movsx  r9d,BYTE PTR [rcx+rax*1+0x5]
  402f5f:	44 89 4e 14          	mov    DWORD PTR [rsi+0x14],r9d
  402f63:	4c 8d 48 06          	lea    r9,[rax+0x6]
  402f67:	4c 39 ca             	cmp    rdx,r9
  402f6a:	0f 86 a8 00 00 00    	jbe    403018 <_Z10send_inputPvS_mm+0x2c8>
  402f70:	44 0f be 4c 01 06    	movsx  r9d,BYTE PTR [rcx+rax*1+0x6]
  402f76:	44 89 4e 18          	mov    DWORD PTR [rsi+0x18],r9d
  402f7a:	4c 8d 48 07          	lea    r9,[rax+0x7]
  402f7e:	4c 39 ca             	cmp    rdx,r9
  402f81:	0f 86 91 00 00 00    	jbe    403018 <_Z10send_inputPvS_mm+0x2c8>
  402f87:	44 0f be 4c 01 07    	movsx  r9d,BYTE PTR [rcx+rax*1+0x7]
  402f8d:	44 89 4e 1c          	mov    DWORD PTR [rsi+0x1c],r9d
  402f91:	4c 8d 48 08          	lea    r9,[rax+0x8]
  402f95:	4c 39 ca             	cmp    rdx,r9
  402f98:	76 7e                	jbe    403018 <_Z10send_inputPvS_mm+0x2c8>
  402f9a:	44 0f be 4c 01 08    	movsx  r9d,BYTE PTR [rcx+rax*1+0x8]
  402fa0:	44 89 4e 20          	mov    DWORD PTR [rsi+0x20],r9d
  402fa4:	4c 8d 48 09          	lea    r9,[rax+0x9]
  402fa8:	4c 39 ca             	cmp    rdx,r9
  402fab:	76 6b                	jbe    403018 <_Z10send_inputPvS_mm+0x2c8>
  402fad:	44 0f be 4c 01 09    	movsx  r9d,BYTE PTR [rcx+rax*1+0x9]
  402fb3:	44 89 4e 24          	mov    DWORD PTR [rsi+0x24],r9d
  402fb7:	4c 8d 48 0a          	lea    r9,[rax+0xa]
  402fbb:	4c 39 ca             	cmp    rdx,r9
  402fbe:	76 58                	jbe    403018 <_Z10send_inputPvS_mm+0x2c8>
  402fc0:	44 0f be 4c 01 0a    	movsx  r9d,BYTE PTR [rcx+rax*1+0xa]
  402fc6:	44 89 4e 28          	mov    DWORD PTR [rsi+0x28],r9d
  402fca:	4c 8d 48 0b          	lea    r9,[rax+0xb]
  402fce:	4c 39 ca             	cmp    rdx,r9
  402fd1:	76 45                	jbe    403018 <_Z10send_inputPvS_mm+0x2c8>
  402fd3:	44 0f be 4c 01 0b    	movsx  r9d,BYTE PTR [rcx+rax*1+0xb]
  402fd9:	44 89 4e 2c          	mov    DWORD PTR [rsi+0x2c],r9d
  402fdd:	4c 8d 48 0c          	lea    r9,[rax+0xc]
  402fe1:	4c 39 ca             	cmp    rdx,r9
  402fe4:	76 32                	jbe    403018 <_Z10send_inputPvS_mm+0x2c8>
  402fe6:	44 0f be 4c 01 0c    	movsx  r9d,BYTE PTR [rcx+rax*1+0xc]
  402fec:	44 89 4e 30          	mov    DWORD PTR [rsi+0x30],r9d
  402ff0:	4c 8d 48 0d          	lea    r9,[rax+0xd]
  402ff4:	4c 39 ca             	cmp    rdx,r9
  402ff7:	76 1f                	jbe    403018 <_Z10send_inputPvS_mm+0x2c8>
  402ff9:	44 0f be 4c 01 0d    	movsx  r9d,BYTE PTR [rcx+rax*1+0xd]
  402fff:	44 89 4e 34          	mov    DWORD PTR [rsi+0x34],r9d
  403003:	4c 8d 48 0e          	lea    r9,[rax+0xe]
  403007:	4c 39 ca             	cmp    rdx,r9
  40300a:	76 0c                	jbe    403018 <_Z10send_inputPvS_mm+0x2c8>
  40300c:	0f be 44 01 0e       	movsx  eax,BYTE PTR [rcx+rax*1+0xe]
  403011:	89 46 38             	mov    DWORD PTR [rsi+0x38],eax
  403014:	0f 1f 40 00          	nop    DWORD PTR [rax+0x0]
  403018:	49 ff c6             	inc    r14
  40301b:	48 01 d3             	add    rbx,rdx
  40301e:	4c 39 74 24 f8       	cmp    QWORD PTR [rsp-0x8],r14
  403023:	0f 85 9f fd ff ff    	jne    402dc8 <_Z10send_inputPvS_mm+0x78>
  403029:	c5 f8 77             	vzeroupper 
  40302c:	48 8d 65 d8          	lea    rsp,[rbp-0x28]
  403030:	5b                   	pop    rbx
  403031:	41 5c                	pop    r12
  403033:	41 5d                	pop    r13
  403035:	41 5e                	pop    r14
  403037:	41 5f                	pop    r15
  403039:	5d                   	pop    rbp
  40303a:	c3                   	ret    
  40303b:	0f 1f 44 00 00       	nop    DWORD PTR [rax+rax*1+0x0]
  403040:	31 c0                	xor    eax,eax
  403042:	66 0f 1f 44 00 00    	nop    WORD PTR [rax+rax*1+0x0]
  403048:	0f be 34 01          	movsx  esi,BYTE PTR [rcx+rax*1]
  40304c:	41 89 34 81          	mov    DWORD PTR [r9+rax*4],esi
  403050:	48 ff c0             	inc    rax
  403053:	48 39 c2             	cmp    rdx,rax
  403056:	75 f0                	jne    403048 <_Z10send_inputPvS_mm+0x2f8>
  403058:	eb be                	jmp    403018 <_Z10send_inputPvS_mm+0x2c8>
  40305a:	49 89 d3             	mov    r11,rdx
  40305d:	31 c0                	xor    eax,eax
  40305f:	e9 1d fe ff ff       	jmp    402e81 <_Z10send_inputPvS_mm+0x131>
  403064:	66 66 2e 0f 1f 84 00 	data16 cs nop WORD PTR [rax+rax*1+0x0]
  40306b:	00 00 00 00 
  40306f:	90                   	nop

0000000000403070 <_Z11send_weightPvS_mm>:
  403070:	41 57                	push   r15
  403072:	48 89 d0             	mov    rax,rdx
  403075:	48 c1 e8 06          	shr    rax,0x6
  403079:	41 56                	push   r14
  40307b:	48 89 ca             	mov    rdx,rcx
  40307e:	41 55                	push   r13
  403080:	41 54                	push   r12
  403082:	55                   	push   rbp
  403083:	53                   	push   rbx
  403084:	48 89 c3             	mov    rbx,rax
  403087:	48 c1 e3 0a          	shl    rbx,0xa
  40308b:	48 c1 ea 06          	shr    rdx,0x6
  40308f:	48 89 5c 24 e0       	mov    QWORD PTR [rsp-0x20],rbx
  403094:	0f 84 e7 00 00 00    	je     403181 <_Z11send_weightPvS_mm+0x111>
  40309a:	48 85 c0             	test   rax,rax
  40309d:	0f 84 de 00 00 00    	je     403181 <_Z11send_weightPvS_mm+0x111>
  4030a3:	48 89 c3             	mov    rbx,rax
  4030a6:	48 c1 e0 04          	shl    rax,0x4
  4030aa:	48 c1 e3 0c          	shl    rbx,0xc
  4030ae:	48 89 44 24 e8       	mov    QWORD PTR [rsp-0x18],rax
  4030b3:	48 89 5c 24 f0       	mov    QWORD PTR [rsp-0x10],rbx
  4030b8:	48 8d 1c 95 00 00 00 	lea    rbx,[rdx*4+0x0]
  4030bf:	00 
  4030c0:	48 89 5c 24 f8       	mov    QWORD PTR [rsp-0x8],rbx
  4030c5:	49 89 fb             	mov    r11,rdi
  4030c8:	49 89 f1             	mov    r9,rsi
  4030cb:	48 89 cf             	mov    rdi,rcx
  4030ce:	31 db                	xor    ebx,ebx
  4030d0:	41 bc 40 00 00 00    	mov    r12d,0x40
  4030d6:	49 89 d8             	mov    r8,rbx
  4030d9:	49 c1 e0 04          	shl    r8,0x4
  4030dd:	45 31 ed             	xor    r13d,r13d
  4030e0:	4d 89 ee             	mov    r14,r13
  4030e3:	31 ed                	xor    ebp,ebp
  4030e5:	48 8d 0c ad 00 00 00 	lea    rcx,[rbp*4+0x0]
  4030ec:	00 
  4030ed:	4b 8d 34 1e          	lea    rsi,[r14+r11*1]
  4030f1:	48 83 c5 10          	add    rbp,0x10
  4030f5:	4c 8d 51 40          	lea    r10,[rcx+0x40]
  4030f9:	0f 1f 80 00 00 00 00 	nop    DWORD PTR [rax+0x0]
  403100:	31 c0                	xor    eax,eax
  403102:	66 0f 1f 44 00 00    	nop    WORD PTR [rax+rax*1+0x0]
  403108:	48 89 c2             	mov    rdx,rax
  40310b:	83 e2 03             	and    edx,0x3
  40310e:	48 01 ca             	add    rdx,rcx
  403111:	48 0f af d7          	imul   rdx,rdi
  403115:	49 89 d7             	mov    r15,rdx
  403118:	48 89 c2             	mov    rdx,rax
  40311b:	48 c1 ea 02          	shr    rdx,0x2
  40311f:	4c 01 c2             	add    rdx,r8
  403122:	48 c1 e2 02          	shl    rdx,0x2
  403126:	4a 8d 14 ba          	lea    rdx,[rdx+r15*4]
  40312a:	44 0f be 3c 06       	movsx  r15d,BYTE PTR [rsi+rax*1]
  40312f:	48 ff c0             	inc    rax
  403132:	45 89 3c 11          	mov    DWORD PTR [r9+rdx*1],r15d
  403136:	48 83 f8 40          	cmp    rax,0x40
  40313a:	75 cc                	jne    403108 <_Z11send_weightPvS_mm+0x98>
  40313c:	48 83 c1 04          	add    rcx,0x4
  403140:	48 83 c6 40          	add    rsi,0x40
  403144:	49 39 ca             	cmp    r10,rcx
  403147:	75 b7                	jne    403100 <_Z11send_weightPvS_mm+0x90>
  403149:	49 81 c6 00 04 00 00 	add    r14,0x400
  403150:	48 3b 6c 24 e8       	cmp    rbp,QWORD PTR [rsp-0x18]
  403155:	75 8e                	jne    4030e5 <_Z11send_weightPvS_mm+0x75>
  403157:	49 83 c0 10          	add    r8,0x10
  40315b:	4c 03 6c 24 e0       	add    r13,QWORD PTR [rsp-0x20]
  403160:	4d 39 e0             	cmp    r8,r12
  403163:	0f 85 77 ff ff ff    	jne    4030e0 <_Z11send_weightPvS_mm+0x70>
  403169:	48 83 c3 04          	add    rbx,0x4
  40316d:	49 83 c4 40          	add    r12,0x40
  403171:	4c 03 5c 24 f0       	add    r11,QWORD PTR [rsp-0x10]
  403176:	48 3b 5c 24 f8       	cmp    rbx,QWORD PTR [rsp-0x8]
  40317b:	0f 85 55 ff ff ff    	jne    4030d6 <_Z11send_weightPvS_mm+0x66>
  403181:	5b                   	pop    rbx
  403182:	5d                   	pop    rbp
  403183:	41 5c                	pop    r12
  403185:	41 5d                	pop    r13
  403187:	41 5e                	pop    r14
  403189:	41 5f                	pop    r15
  40318b:	c3                   	ret    
  40318c:	0f 1f 40 00          	nop    DWORD PTR [rax+0x0]

0000000000403190 <_Z24performance_test_256x256iPvmS_S_Pffmm>:
  403190:	41 57                	push   r15
  403192:	41 56                	push   r14
  403194:	41 55                	push   r13
  403196:	41 54                	push   r12
  403198:	55                   	push   rbp
  403199:	89 fd                	mov    ebp,edi
  40319b:	c1 ed 1f             	shr    ebp,0x1f
  40319e:	53                   	push   rbx
  40319f:	48 89 d3             	mov    rbx,rdx
  4031a2:	31 d2                	xor    edx,edx
  4031a4:	48 83 ec 48          	sub    rsp,0x48
  4031a8:	48 8b 84 24 80 00 00 	mov    rax,QWORD PTR [rsp+0x80]
  4031af:	00 
  4031b0:	01 fd                	add    ebp,edi
  4031b2:	48 f7 b4 24 88 00 00 	div    QWORD PTR [rsp+0x88]
  4031b9:	00 
  4031ba:	48 89 74 24 28       	mov    QWORD PTR [rsp+0x28],rsi
  4031bf:	48 89 4c 24 30       	mov    QWORD PTR [rsp+0x30],rcx
  4031c4:	c5 fa 11 04 24       	vmovss DWORD PTR [rsp],xmm0
  4031c9:	d1 fd                	sar    ebp,1
  4031cb:	89 6c 24 04          	mov    DWORD PTR [rsp+0x4],ebp
  4031cf:	48 89 44 24 38       	mov    QWORD PTR [rsp+0x38],rax
  4031d4:	89 f8                	mov    eax,edi
  4031d6:	c1 e0 04             	shl    eax,0x4
  4031d9:	48 98                	cdqe   
  4031db:	48 0f af c3          	imul   rax,rbx
  4031df:	48 83 bc 24 80 00 00 	cmp    QWORD PTR [rsp+0x80],0x0
  4031e6:	00 00 
  4031e8:	48 89 44 24 20       	mov    QWORD PTR [rsp+0x20],rax
  4031ed:	0f 84 9e 00 00 00    	je     403291 <_Z24performance_test_256x256iPvmS_S_Pffmm+0x101>
  4031f3:	83 ff 01             	cmp    edi,0x1
  4031f6:	0f 8e 95 00 00 00    	jle    403291 <_Z24performance_test_256x256iPvmS_S_Pffmm+0x101>
  4031fc:	48 89 d8             	mov    rax,rbx
  4031ff:	48 c1 e0 05          	shl    rax,0x5
  403203:	48 89 44 24 08       	mov    QWORD PTR [rsp+0x8],rax
  403208:	48 8d 04 1b          	lea    rax,[rbx+rbx*1]
  40320c:	48 89 44 24 10       	mov    QWORD PTR [rsp+0x10],rax
  403211:	48 c7 44 24 18 00 00 	mov    QWORD PTR [rsp+0x18],0x0
  403218:	00 00 
  40321a:	4d 89 c4             	mov    r12,r8
  40321d:	4d 89 cd             	mov    r13,r9
  403220:	48 8b 44 24 18       	mov    rax,QWORD PTR [rsp+0x18]
  403225:	31 d2                	xor    edx,edx
  403227:	48 f7 74 24 38       	div    QWORD PTR [rsp+0x38]
  40322c:	48 8b 54 24 30       	mov    rdx,QWORD PTR [rsp+0x30]
  403231:	48 8b 7c 24 28       	mov    rdi,QWORD PTR [rsp+0x28]
  403236:	45 31 ff             	xor    r15d,r15d
  403239:	48 0f af 44 24 20    	imul   rax,QWORD PTR [rsp+0x20]
  40323f:	48 8d 2c 02          	lea    rbp,[rdx+rax*1]
  403243:	4c 8d 34 07          	lea    r14,[rdi+rax*1]
  403247:	48 89 e8             	mov    rax,rbp
  40324a:	4c 89 f5             	mov    rbp,r14
  40324d:	49 89 c6             	mov    r14,rax
  403250:	c5 fa 10 04 24       	vmovss xmm0,DWORD PTR [rsp]
  403255:	4c 89 f2             	mov    rdx,r14
  403258:	48 89 ef             	mov    rdi,rbp
  40325b:	4d 89 e8             	mov    r8,r13
  40325e:	4c 89 e1             	mov    rcx,r12
  403261:	48 89 de             	mov    rsi,rbx
  403264:	41 ff c7             	inc    r15d
  403267:	e8 b4 10 00 00       	call   404320 <_ZN12intel_mlperf24_tile_dot_product_16x256ILi2ELi16ENS_9io_policyILi16ELNS_8i_formatE0EEEE7computeEPvmS5_S5_Pff>
  40326c:	48 03 6c 24 08       	add    rbp,QWORD PTR [rsp+0x8]
  403271:	4c 03 74 24 10       	add    r14,QWORD PTR [rsp+0x10]
  403276:	44 39 7c 24 04       	cmp    DWORD PTR [rsp+0x4],r15d
  40327b:	7f d3                	jg     403250 <_Z24performance_test_256x256iPvmS_S_Pffmm+0xc0>
  40327d:	48 ff 44 24 18       	inc    QWORD PTR [rsp+0x18]
  403282:	48 8b 44 24 18       	mov    rax,QWORD PTR [rsp+0x18]
  403287:	48 39 84 24 80 00 00 	cmp    QWORD PTR [rsp+0x80],rax
  40328e:	00 
  40328f:	75 8f                	jne    403220 <_Z24performance_test_256x256iPvmS_S_Pffmm+0x90>
  403291:	48 83 c4 48          	add    rsp,0x48
  403295:	5b                   	pop    rbx
  403296:	5d                   	pop    rbp
  403297:	41 5c                	pop    r12
  403299:	41 5d                	pop    r13
  40329b:	41 5e                	pop    r14
  40329d:	41 5f                	pop    r15
  40329f:	c3                   	ret    

00000000004032a0 <_Z21accuracy_test_256x256iPvmS_S_Pff>:
  4032a0:	41 57                	push   r15
  4032a2:	41 56                	push   r14
  4032a4:	41 55                	push   r13
  4032a6:	4d 89 c5             	mov    r13,r8
  4032a9:	41 54                	push   r12
  4032ab:	49 89 d4             	mov    r12,rdx
  4032ae:	55                   	push   rbp
  4032af:	89 fd                	mov    ebp,edi
  4032b1:	c1 ed 1f             	shr    ebp,0x1f
  4032b4:	53                   	push   rbx
  4032b5:	01 fd                	add    ebp,edi
  4032b7:	d1 fd                	sar    ebp,1
  4032b9:	48 83 ec 38          	sub    rsp,0x38
  4032bd:	89 7c 24 1c          	mov    DWORD PTR [rsp+0x1c],edi
  4032c1:	48 89 74 24 20       	mov    QWORD PTR [rsp+0x20],rsi
  4032c6:	48 89 4c 24 28       	mov    QWORD PTR [rsp+0x28],rcx
  4032cb:	4c 89 4c 24 08       	mov    QWORD PTR [rsp+0x8],r9
  4032d0:	89 6c 24 18          	mov    DWORD PTR [rsp+0x18],ebp
  4032d4:	c5 fa 11 44 24 14    	vmovss DWORD PTR [rsp+0x14],xmm0
  4032da:	83 ff 01             	cmp    edi,0x1
  4032dd:	7e 3d                	jle    40331c <_Z21accuracy_test_256x256iPvmS_S_Pff+0x7c>
  4032df:	48 89 d3             	mov    rbx,rdx
  4032e2:	48 c1 e3 05          	shl    rbx,0x5
  4032e6:	45 31 ff             	xor    r15d,r15d
  4032e9:	49 89 ce             	mov    r14,rcx
  4032ec:	48 89 f5             	mov    rbp,rsi
  4032ef:	90                   	nop
  4032f0:	c5 fa 10 44 24 14    	vmovss xmm0,DWORD PTR [rsp+0x14]
  4032f6:	4c 8b 44 24 08       	mov    r8,QWORD PTR [rsp+0x8]
  4032fb:	4c 89 f2             	mov    rdx,r14
  4032fe:	48 89 ef             	mov    rdi,rbp
  403301:	4c 89 e9             	mov    rcx,r13
  403304:	4c 89 e6             	mov    rsi,r12
  403307:	41 ff c7             	inc    r15d
  40330a:	e8 11 10 00 00       	call   404320 <_ZN12intel_mlperf24_tile_dot_product_16x256ILi2ELi16ENS_9io_policyILi16ELNS_8i_formatE0EEEE7computeEPvmS5_S5_Pff>
  40330f:	48 01 dd             	add    rbp,rbx
  403312:	49 01 de             	add    r14,rbx
  403315:	44 39 7c 24 18       	cmp    DWORD PTR [rsp+0x18],r15d
  40331a:	7f d4                	jg     4032f0 <_Z21accuracy_test_256x256iPvmS_S_Pff+0x50>
  40331c:	f6 44 24 1c 01       	test   BYTE PTR [rsp+0x1c],0x1
  403321:	75 15                	jne    403338 <_Z21accuracy_test_256x256iPvmS_S_Pff+0x98>
  403323:	48 83 c4 38          	add    rsp,0x38
  403327:	5b                   	pop    rbx
  403328:	5d                   	pop    rbp
  403329:	41 5c                	pop    r12
  40332b:	41 5d                	pop    r13
  40332d:	41 5e                	pop    r14
  40332f:	41 5f                	pop    r15
  403331:	c3                   	ret    
  403332:	66 0f 1f 44 00 00    	nop    WORD PTR [rax+rax*1+0x0]
  403338:	8b 6c 24 18          	mov    ebp,DWORD PTR [rsp+0x18]
  40333c:	48 8b 54 24 28       	mov    rdx,QWORD PTR [rsp+0x28]
  403341:	c1 e5 05             	shl    ebp,0x5
  403344:	48 63 ed             	movsxd rbp,ebp
  403347:	49 0f af ec          	imul   rbp,r12
  40334b:	48 8b 7c 24 20       	mov    rdi,QWORD PTR [rsp+0x20]
  403350:	c5 fa 10 44 24 14    	vmovss xmm0,DWORD PTR [rsp+0x14]
  403356:	4c 8b 44 24 08       	mov    r8,QWORD PTR [rsp+0x8]
  40335b:	48 83 c4 38          	add    rsp,0x38
  40335f:	5b                   	pop    rbx
  403360:	48 01 ea             	add    rdx,rbp
  403363:	48 01 ef             	add    rdi,rbp
  403366:	5d                   	pop    rbp
  403367:	4c 89 e6             	mov    rsi,r12
  40336a:	41 5c                	pop    r12
  40336c:	4c 89 e9             	mov    rcx,r13
  40336f:	41 5d                	pop    r13
  403371:	41 5e                	pop    r14
  403373:	41 5f                	pop    r15
  403375:	e9 56 18 00 00       	jmp    404bd0 <_ZN12intel_mlperf24_tile_dot_product_16x256ILi1ELi16ENS_9io_policyILi16ELNS_8i_formatE0EEEE7computeEPvmS5_S5_Pff>
  40337a:	66 0f 1f 44 00 00    	nop    WORD PTR [rax+rax*1+0x0]

0000000000403380 <_Z12set_data_actPvmm>:
  403380:	41 55                	push   r13
  403382:	41 54                	push   r12
  403384:	49 89 d4             	mov    r12,rdx
  403387:	55                   	push   rbp
  403388:	48 89 f5             	mov    rbp,rsi
  40338b:	53                   	push   rbx
  40338c:	48 89 fb             	mov    rbx,rdi
  40338f:	48 83 ec 38          	sub    rsp,0x38
  403393:	e8 c8 ec ff ff       	call   402060 <_ZNSt6chrono3_V212system_clock3nowEv@plt>
  403398:	89 c1                	mov    ecx,eax
  40339a:	48 89 c8             	mov    rax,rcx
  40339d:	48 ba 05 00 00 00 02 	movabs rdx,0x200000005
  4033a4:	00 00 00 
  4033a7:	48 f7 e2             	mul    rdx
  4033aa:	48 89 c8             	mov    rax,rcx
  4033ad:	c5 f9 28 05 8b 7e 00 	vmovapd xmm0,XMMWORD PTR [rip+0x7e8b]        # 40b240 <__dso_handle+0x238>
  4033b4:	00 
  4033b5:	48 29 d0             	sub    rax,rdx
  4033b8:	48 d1 e8             	shr    rax,1
  4033bb:	48 01 c2             	add    rdx,rax
  4033be:	48 c1 ea 1e          	shr    rdx,0x1e
  4033c2:	48 89 d0             	mov    rax,rdx
  4033c5:	48 c1 e0 1f          	shl    rax,0x1f
  4033c9:	48 29 d0             	sub    rax,rdx
  4033cc:	48 29 c1             	sub    rcx,rax
  4033cf:	b8 01 00 00 00       	mov    eax,0x1
  4033d4:	48 0f 44 c8          	cmove  rcx,rax
  4033d8:	49 0f af ec          	imul   rbp,r12
  4033dc:	48 89 4c 24 08       	mov    QWORD PTR [rsp+0x8],rcx
  4033e1:	48 c7 44 24 20 00 00 	mov    QWORD PTR [rsp+0x20],0x0
  4033e8:	00 00 
  4033ea:	48 c1 e5 04          	shl    rbp,0x4
  4033ee:	c6 44 24 28 00       	mov    BYTE PTR [rsp+0x28],0x0
  4033f3:	c5 f9 29 44 24 10    	vmovapd XMMWORD PTR [rsp+0x10],xmm0
  4033f9:	74 3a                	je     403435 <_Z12set_data_actPvmm+0xb5>
  4033fb:	48 01 dd             	add    rbp,rbx
  4033fe:	4c 8d 64 24 10       	lea    r12,[rsp+0x10]
  403403:	4c 8d 6c 24 08       	lea    r13,[rsp+0x8]
  403408:	0f 1f 84 00 00 00 00 	nop    DWORD PTR [rax+rax*1+0x0]
  40340f:	00 
  403410:	4c 89 e2             	mov    rdx,r12
  403413:	4c 89 ee             	mov    rsi,r13
  403416:	4c 89 e7             	mov    rdi,r12
  403419:	e8 52 1f 00 00       	call   405370 <_ZNSt19normal_distributionIdEclISt26linear_congruential_engineImLm16807ELm0ELm2147483647EEEEdRT_RKNS0_10param_typeE>
  40341e:	c5 fb 59 05 12 7e 00 	vmulsd xmm0,xmm0,QWORD PTR [rip+0x7e12]        # 40b238 <__dso_handle+0x230>
  403425:	00 
  403426:	48 ff c3             	inc    rbx
  403429:	c5 fb 2c c0          	vcvttsd2si eax,xmm0
  40342d:	88 43 ff             	mov    BYTE PTR [rbx-0x1],al
  403430:	48 39 dd             	cmp    rbp,rbx
  403433:	75 db                	jne    403410 <_Z12set_data_actPvmm+0x90>
  403435:	48 83 c4 38          	add    rsp,0x38
  403439:	5b                   	pop    rbx
  40343a:	5d                   	pop    rbp
  40343b:	41 5c                	pop    r12
  40343d:	41 5d                	pop    r13
  40343f:	c3                   	ret    

0000000000403440 <_Z15test_block_gemmmmmbi>:
  403440:	55                   	push   rbp
  403441:	48 89 f8             	mov    rax,rdi
  403444:	48 83 c0 0f          	add    rax,0xf
  403448:	48 89 e5             	mov    rbp,rsp
  40344b:	41 57                	push   r15
  40344d:	49 89 c7             	mov    r15,rax
  403450:	49 c1 ef 04          	shr    r15,0x4
  403454:	41 56                	push   r14
  403456:	48 89 f0             	mov    rax,rsi
  403459:	49 0f af c7          	imul   rax,r15
  40345d:	41 55                	push   r13
  40345f:	c4 e1 f9 6e d6       	vmovq  xmm2,rsi
  403464:	48 c1 e0 04          	shl    rax,0x4
  403468:	41 54                	push   r12
  40346a:	48 83 c0 40          	add    rax,0x40
  40346e:	c4 e1 f9 6e df       	vmovq  xmm3,rdi
  403473:	53                   	push   rbx
  403474:	c4 e3 e1 22 c6 01    	vpinsrq xmm0,xmm3,rsi,0x1
  40347a:	49 89 f5             	mov    r13,rsi
  40347d:	48 81 ec 08 01 00 00 	sub    rsp,0x108
  403484:	48 29 c4             	sub    rsp,rax
  403487:	48 8d 44 24 3f       	lea    rax,[rsp+0x3f]
  40348c:	48 89 b5 00 ff ff ff 	mov    QWORD PTR [rbp-0x100],rsi
  403493:	45 89 c4             	mov    r12d,r8d
  403496:	49 89 f0             	mov    r8,rsi
  403499:	48 89 c6             	mov    rsi,rax
  40349c:	c4 e1 f9 7e d0       	vmovq  rax,xmm2
  4034a1:	48 0f af c2          	imul   rax,rdx
  4034a5:	c4 e3 e9 22 ca 01    	vpinsrq xmm1,xmm2,rdx,0x1
  4034ab:	48 89 95 60 ff ff ff 	mov    QWORD PTR [rbp-0xa0],rdx
  4034b2:	48 89 95 f8 fe ff ff 	mov    QWORD PTR [rbp-0x108],rdx
  4034b9:	48 89 d3             	mov    rbx,rdx
  4034bc:	48 69 d0 c0 01 00 00 	imul   rdx,rax,0x1c0
  4034c3:	48 83 e6 c0          	and    rsi,0xffffffffffffffc0
  4034c7:	49 c1 e8 06          	shr    r8,0x6
  4034cb:	48 c1 eb 06          	shr    rbx,0x6
  4034cf:	48 89 bd 08 ff ff ff 	mov    QWORD PTR [rbp-0xf8],rdi
  4034d6:	48 89 b5 38 ff ff ff 	mov    QWORD PTR [rbp-0xc8],rsi
  4034dd:	48 8d bd 48 ff ff ff 	lea    rdi,[rbp-0xb8]
  4034e4:	be 00 10 00 00       	mov    esi,0x1000
  4034e9:	41 89 ce             	mov    r14d,ecx
  4034ec:	c5 f9 7f 8d 10 ff ff 	vmovdqa XMMWORD PTR [rbp-0xf0],xmm1
  4034f3:	ff 
  4034f4:	4c 89 85 70 ff ff ff 	mov    QWORD PTR [rbp-0x90],r8
  4034fb:	4c 89 85 d0 fe ff ff 	mov    QWORD PTR [rbp-0x130],r8
  403502:	c5 f9 7f 85 50 ff ff 	vmovdqa XMMWORD PTR [rbp-0xb0],xmm0
  403509:	ff 
  40350a:	c6 85 68 ff ff ff 01 	mov    BYTE PTR [rbp-0x98],0x1
  403511:	48 89 9d 78 ff ff ff 	mov    QWORD PTR [rbp-0x88],rbx
  403518:	48 c7 85 48 ff ff ff 	mov    QWORD PTR [rbp-0xb8],0x0
  40351f:	00 00 00 00 
  403523:	48 89 85 f0 fe ff ff 	mov    QWORD PTR [rbp-0x110],rax
  40352a:	e8 71 eb ff ff       	call   4020a0 <posix_memalign@plt>
  40352f:	48 8b 85 08 ff ff ff 	mov    rax,QWORD PTR [rbp-0xf8]
  403536:	48 8b 95 48 ff ff ff 	mov    rdx,QWORD PTR [rbp-0xb8]
  40353d:	48 0f af 85 f8 fe ff 	imul   rax,QWORD PTR [rbp-0x108]
  403544:	ff 
  403545:	c4 e1 f9 6e e2       	vmovq  xmm4,rdx
  40354a:	48 8b bd 38 ff ff ff 	mov    rdi,QWORD PTR [rbp-0xc8]
  403551:	48 89 85 d8 fe ff ff 	mov    QWORD PTR [rbp-0x128],rax
  403558:	48 83 c0 47          	add    rax,0x47
  40355c:	48 83 e0 f0          	and    rax,0xfffffffffffffff0
  403560:	48 29 c4             	sub    rsp,rax
  403563:	48 8d 44 24 3f       	lea    rax,[rsp+0x3f]
  403568:	48 83 e0 c0          	and    rax,0xffffffffffffffc0
  40356c:	48 89 85 28 ff ff ff 	mov    QWORD PTR [rbp-0xd8],rax
  403573:	48 89 d8             	mov    rax,rbx
  403576:	48 c1 e0 08          	shl    rax,0x8
  40357a:	48 29 c4             	sub    rsp,rax
  40357d:	48 89 e0             	mov    rax,rsp
  403580:	c4 e3 d9 22 c0 01    	vpinsrq xmm0,xmm4,rax,0x1
  403586:	48 89 95 30 ff ff ff 	mov    QWORD PTR [rbp-0xd0],rdx
  40358d:	4c 89 fe             	mov    rsi,r15
  403590:	4c 89 ea             	mov    rdx,r13
  403593:	c5 f9 7f 85 e0 fe ff 	vmovdqa XMMWORD PTR [rbp-0x120],xmm0
  40359a:	ff 
  40359b:	48 89 85 20 ff ff ff 	mov    QWORD PTR [rbp-0xe0],rax
  4035a2:	4c 8d 6d 80          	lea    r13,[rbp-0x80]
  4035a6:	e8 d5 fd ff ff       	call   403380 <_Z12set_data_actPvmm>
  4035ab:	c5 f9 6f 85 e0 fe ff 	vmovdqa xmm0,XMMWORD PTR [rbp-0x120]
  4035b2:	ff 
  4035b3:	c5 f9 6f 8d 10 ff ff 	vmovdqa xmm1,XMMWORD PTR [rbp-0xf0]
  4035ba:	ff 
  4035bb:	31 c9                	xor    ecx,ecx
  4035bd:	31 d2                	xor    edx,edx
  4035bf:	4c 89 ee             	mov    rsi,r13
  4035c2:	48 8d 3d 87 04 00 00 	lea    rdi,[rip+0x487]        # 403a50 <_Z15test_block_gemmmmmbi._omp_fn.0>
  4035c9:	48 c7 45 98 c0 01 00 	mov    QWORD PTR [rbp-0x68],0x1c0
  4035d0:	00 
  4035d1:	48 89 5d 90          	mov    QWORD PTR [rbp-0x70],rbx
  4035d5:	c5 f9 7f 45 a0       	vmovdqa XMMWORD PTR [rbp-0x60],xmm0
  4035da:	c5 f9 7f 4d 80       	vmovdqa XMMWORD PTR [rbp-0x80],xmm1
  4035df:	e8 0c ec ff ff       	call   4021f0 <GOMP_parallel@plt>
  4035e4:	45 84 f6             	test   r14b,r14b
  4035e7:	0f 84 80 01 00 00    	je     40376d <_Z15test_block_gemmmmmbi+0x32d>
  4035ed:	4c 8b 85 d0 fe ff ff 	mov    r8,QWORD PTR [rbp-0x130]
  4035f4:	49 83 f8 10          	cmp    r8,0x10
  4035f8:	0f 84 3a 01 00 00    	je     403738 <_Z15test_block_gemmmmmbi+0x2f8>
  4035fe:	49 83 f8 40          	cmp    r8,0x40
  403602:	0f 84 30 01 00 00    	je     403738 <_Z15test_block_gemmmmmbi+0x2f8>
  403608:	48 8b bd 08 ff ff ff 	mov    rdi,QWORD PTR [rbp-0xf8]
  40360f:	48 bb fe ff ff ff ff 	movabs rbx,0x1ffffffffffffffe
  403616:	ff ff 1f 
  403619:	48 0f af bd 00 ff ff 	imul   rdi,QWORD PTR [rbp-0x100]
  403620:	ff 
  403621:	48 39 df             	cmp    rdi,rbx
  403624:	0f 87 56 ec ff ff    	ja     402280 <_Z15test_block_gemmmmmbi.cold>
  40362a:	48 c1 e7 02          	shl    rdi,0x2
  40362e:	e8 fd e9 ff ff       	call   402030 <_Znam@plt>
  403633:	49 89 c6             	mov    r14,rax
  403636:	48 39 9d f0 fe ff ff 	cmp    QWORD PTR [rbp-0x110],rbx
  40363d:	0f 87 3d ec ff ff    	ja     402280 <_Z15test_block_gemmmmmbi.cold>
  403643:	48 8b bd f0 fe ff ff 	mov    rdi,QWORD PTR [rbp-0x110]
  40364a:	48 c1 e7 02          	shl    rdi,0x2
  40364e:	e8 dd e9 ff ff       	call   402030 <_Znam@plt>
  403653:	49 89 c5             	mov    r13,rax
  403656:	48 8b 85 d8 fe ff ff 	mov    rax,QWORD PTR [rbp-0x128]
  40365d:	48 39 d8             	cmp    rax,rbx
  403660:	0f 87 1a ec ff ff    	ja     402280 <_Z15test_block_gemmmmmbi.cold>
  403666:	48 89 c7             	mov    rdi,rax
  403669:	48 c1 e7 02          	shl    rdi,0x2
  40366d:	e8 be e9 ff ff       	call   402030 <_Znam@plt>
  403672:	48 8b 8d 00 ff ff ff 	mov    rcx,QWORD PTR [rbp-0x100]
  403679:	48 8b 95 08 ff ff ff 	mov    rdx,QWORD PTR [rbp-0xf8]
  403680:	48 8b bd 38 ff ff ff 	mov    rdi,QWORD PTR [rbp-0xc8]
  403687:	4c 89 f6             	mov    rsi,r14
  40368a:	49 89 c4             	mov    r12,rax
  40368d:	e8 be f6 ff ff       	call   402d50 <_Z10send_inputPvS_mm>
  403692:	48 8b 9d f8 fe ff ff 	mov    rbx,QWORD PTR [rbp-0x108]
  403699:	48 8b 95 00 ff ff ff 	mov    rdx,QWORD PTR [rbp-0x100]
  4036a0:	48 8b bd 30 ff ff ff 	mov    rdi,QWORD PTR [rbp-0xd0]
  4036a7:	48 89 d9             	mov    rcx,rbx
  4036aa:	4c 89 ee             	mov    rsi,r13
  4036ad:	e8 be f9 ff ff       	call   403070 <_Z11send_weightPvS_mm>
  4036b2:	41 57                	push   r15
  4036b4:	c5 fa 10 05 2c 7b 00 	vmovss xmm0,DWORD PTR [rip+0x7b2c]        # 40b1e8 <__dso_handle+0x1e0>
  4036bb:	00 
  4036bc:	48 8b b5 00 ff ff ff 	mov    rsi,QWORD PTR [rbp-0x100]
  4036c3:	ff b5 20 ff ff ff    	push   QWORD PTR [rbp-0xe0]
  4036c9:	49 89 d9             	mov    r9,rbx
  4036cc:	4d 89 e0             	mov    r8,r12
  4036cf:	48 89 d9             	mov    rcx,rbx
  4036d2:	4c 89 ea             	mov    rdx,r13
  4036d5:	4c 89 f7             	mov    rdi,r14
  4036d8:	e8 13 ef ff ff       	call   4025f0 <_Z12naive_linearPvmS_mS_mS_fi>
  4036dd:	58                   	pop    rax
  4036de:	5a                   	pop    rdx
  4036df:	48 8b b5 28 ff ff ff 	mov    rsi,QWORD PTR [rbp-0xd8]
  4036e6:	8b 95 08 ff ff ff    	mov    edx,DWORD PTR [rbp-0xf8]
  4036ec:	89 d9                	mov    ecx,ebx
  4036ee:	41 89 d9             	mov    r9d,ebx
  4036f1:	41 89 d8             	mov    r8d,ebx
  4036f4:	4c 89 e7             	mov    rdi,r12
  4036f7:	e8 24 27 00 00       	call   405e20 <_ZN12intel_mlperf20compare_naive_outputEPiPaiiii>
  4036fc:	4c 89 f7             	mov    rdi,r14
  4036ff:	e8 ac ea ff ff       	call   4021b0 <_ZdaPv@plt>
  403704:	4c 89 ef             	mov    rdi,r13
  403707:	e8 a4 ea ff ff       	call   4021b0 <_ZdaPv@plt>
  40370c:	4c 89 e7             	mov    rdi,r12
  40370f:	e8 9c ea ff ff       	call   4021b0 <_ZdaPv@plt>
  403714:	48 8b bd 48 ff ff ff 	mov    rdi,QWORD PTR [rbp-0xb8]
  40371b:	48 85 ff             	test   rdi,rdi
  40371e:	74 05                	je     403725 <_Z15test_block_gemmmmmbi+0x2e5>
  403720:	e8 fb e9 ff ff       	call   402120 <_ZdlPv@plt>
  403725:	48 8d 65 d8          	lea    rsp,[rbp-0x28]
  403729:	5b                   	pop    rbx
  40372a:	41 5c                	pop    r12
  40372c:	41 5d                	pop    r13
  40372e:	41 5e                	pop    r14
  403730:	41 5f                	pop    r15
  403732:	5d                   	pop    rbp
  403733:	c3                   	ret    
  403734:	0f 1f 40 00          	nop    DWORD PTR [rax+0x0]
  403738:	c5 fa 10 05 a8 7a 00 	vmovss xmm0,DWORD PTR [rip+0x7aa8]        # 40b1e8 <__dso_handle+0x1e0>
  40373f:	00 
  403740:	4c 8b 85 20 ff ff ff 	mov    r8,QWORD PTR [rbp-0xe0]
  403747:	48 8b 8d 30 ff ff ff 	mov    rcx,QWORD PTR [rbp-0xd0]
  40374e:	48 8b 95 38 ff ff ff 	mov    rdx,QWORD PTR [rbp-0xc8]
  403755:	48 8b b5 28 ff ff ff 	mov    rsi,QWORD PTR [rbp-0xd8]
  40375c:	48 8d bd 50 ff ff ff 	lea    rdi,[rbp-0xb0]
  403763:	e8 c8 2a 00 00       	call   406230 <_ZN12intel_mlperf8i_linear3refEPvS1_S1_S1_f>
  403768:	e9 9b fe ff ff       	jmp    403608 <_Z15test_block_gemmmmmbi+0x1c8>
  40376d:	48 8d 3d 9c 78 00 00 	lea    rdi,[rip+0x789c]        # 40b010 <__dso_handle+0x8>
  403774:	e8 97 ea ff ff       	call   402210 <puts@plt>
  403779:	e8 e2 e8 ff ff       	call   402060 <_ZNSt6chrono3_V212system_clock3nowEv@plt>
  40377e:	48 89 85 f0 fe ff ff 	mov    QWORD PTR [rbp-0x110],rax
  403785:	bb 10 27 00 00       	mov    ebx,0x2710
  40378a:	4c 8d bd 50 ff ff ff 	lea    r15,[rbp-0xb0]
  403791:	4c 8d 35 48 ed ff ff 	lea    r14,[rip+0xffffffffffffed48]        # 4024e0 <_Z15test_block_gemmmmmbi._omp_fn.1>
  403798:	0f 1f 84 00 00 00 00 	nop    DWORD PTR [rax+rax*1+0x0]
  40379f:	00 
  4037a0:	48 8b 85 20 ff ff ff 	mov    rax,QWORD PTR [rbp-0xe0]
  4037a7:	c5 f9 6f ad 10 ff ff 	vmovdqa xmm5,XMMWORD PTR [rbp-0xf0]
  4037ae:	ff 
  4037af:	48 89 45 b8          	mov    QWORD PTR [rbp-0x48],rax
  4037b3:	48 8b 85 28 ff ff ff 	mov    rax,QWORD PTR [rbp-0xd8]
  4037ba:	31 c9                	xor    ecx,ecx
  4037bc:	48 89 45 b0          	mov    QWORD PTR [rbp-0x50],rax
  4037c0:	48 8b 85 38 ff ff ff 	mov    rax,QWORD PTR [rbp-0xc8]
  4037c7:	44 89 e2             	mov    edx,r12d
  4037ca:	48 89 45 a8          	mov    QWORD PTR [rbp-0x58],rax
  4037ce:	48 8b 85 30 ff ff ff 	mov    rax,QWORD PTR [rbp-0xd0]
  4037d5:	4c 89 ee             	mov    rsi,r13
  4037d8:	4c 89 f7             	mov    rdi,r14
  4037db:	c7 45 c0 fa ed eb 3a 	mov    DWORD PTR [rbp-0x40],0x3aebedfa
  4037e2:	48 89 45 a0          	mov    QWORD PTR [rbp-0x60],rax
  4037e6:	48 c7 45 98 c0 01 00 	mov    QWORD PTR [rbp-0x68],0x1c0
  4037ed:	00 
  4037ee:	4c 89 7d 90          	mov    QWORD PTR [rbp-0x70],r15
  4037f2:	c5 f9 7f 6d 80       	vmovdqa XMMWORD PTR [rbp-0x80],xmm5
  4037f7:	e8 f4 e9 ff ff       	call   4021f0 <GOMP_parallel@plt>
  4037fc:	ff cb                	dec    ebx
  4037fe:	75 a0                	jne    4037a0 <_Z15test_block_gemmmmmbi+0x360>
  403800:	e8 5b e8 ff ff       	call   402060 <_ZNSt6chrono3_V212system_clock3nowEv@plt>
  403805:	48 8b b5 08 ff ff ff 	mov    rsi,QWORD PTR [rbp-0xf8]
  40380c:	48 8b 3d ad a7 00 00 	mov    rdi,QWORD PTR [rip+0xa7ad]        # 40dfc0 <_ZSt4cout@GLIBCXX_3.4>
  403813:	48 2b 85 f0 fe ff ff 	sub    rax,QWORD PTR [rbp-0x110]
  40381a:	4c 8d 2d 7c 79 00 00 	lea    r13,[rip+0x797c]        # 40b19d <__dso_handle+0x195>
  403821:	48 89 c3             	mov    rbx,rax
  403824:	e8 a7 e8 ff ff       	call   4020d0 <_ZNSo9_M_insertImEERSoT_@plt>
  403829:	48 89 c7             	mov    rdi,rax
  40382c:	ba 03 00 00 00       	mov    edx,0x3
  403831:	4c 89 ee             	mov    rsi,r13
  403834:	49 89 c4             	mov    r12,rax
  403837:	e8 34 e9 ff ff       	call   402170 <_ZSt16__ostream_insertIcSt11char_traitsIcEERSt13basic_ostreamIT_T0_ES6_PKS3_l@plt>
  40383c:	48 8b b5 00 ff ff ff 	mov    rsi,QWORD PTR [rbp-0x100]
  403843:	4c 89 e7             	mov    rdi,r12
  403846:	e8 85 e8 ff ff       	call   4020d0 <_ZNSo9_M_insertImEERSoT_@plt>
  40384b:	48 89 c7             	mov    rdi,rax
  40384e:	ba 03 00 00 00       	mov    edx,0x3
  403853:	4c 89 ee             	mov    rsi,r13
  403856:	49 89 c4             	mov    r12,rax
  403859:	e8 12 e9 ff ff       	call   402170 <_ZSt16__ostream_insertIcSt11char_traitsIcEERSt13basic_ostreamIT_T0_ES6_PKS3_l@plt>
  40385e:	48 8b b5 f8 fe ff ff 	mov    rsi,QWORD PTR [rbp-0x108]
  403865:	4c 89 e7             	mov    rdi,r12
  403868:	e8 63 e8 ff ff       	call   4020d0 <_ZNSo9_M_insertImEERSoT_@plt>
  40386d:	48 89 c7             	mov    rdi,rax
  403870:	ba 03 00 00 00       	mov    edx,0x3
  403875:	48 8d 35 41 79 00 00 	lea    rsi,[rip+0x7941]        # 40b1bd <__dso_handle+0x1b5>
  40387c:	49 89 c4             	mov    r12,rax
  40387f:	e8 ec e8 ff ff       	call   402170 <_ZSt16__ostream_insertIcSt11char_traitsIcEERSt13basic_ostreamIT_T0_ES6_PKS3_l@plt>
  403884:	c5 f8 57 c0          	vxorps xmm0,xmm0,xmm0
  403888:	c4 e1 fa 2a c3       	vcvtsi2ss xmm0,xmm0,rbx
  40388d:	4c 89 e7             	mov    rdi,r12
  403890:	c5 fa 5e 05 54 79 00 	vdivss xmm0,xmm0,DWORD PTR [rip+0x7954]        # 40b1ec <__dso_handle+0x1e4>
  403897:	00 
  403898:	c5 fa 5a c0          	vcvtss2sd xmm0,xmm0,xmm0
  40389c:	e8 8f e9 ff ff       	call   402230 <_ZNSo9_M_insertIdEERSoT_@plt>
  4038a1:	49 89 c4             	mov    r12,rax
  4038a4:	ba 04 00 00 00       	mov    edx,0x4
  4038a9:	48 8d 35 f1 78 00 00 	lea    rsi,[rip+0x78f1]        # 40b1a1 <__dso_handle+0x199>
  4038b0:	48 89 c7             	mov    rdi,rax
  4038b3:	e8 b8 e8 ff ff       	call   402170 <_ZSt16__ostream_insertIcSt11char_traitsIcEERSt13basic_ostreamIT_T0_ES6_PKS3_l@plt>
  4038b8:	49 8b 04 24          	mov    rax,QWORD PTR [r12]
  4038bc:	48 8b 40 e8          	mov    rax,QWORD PTR [rax-0x18]
  4038c0:	4d 8b ac 04 f0 00 00 	mov    r13,QWORD PTR [r12+rax*1+0xf0]
  4038c7:	00 
  4038c8:	4d 85 ed             	test   r13,r13
  4038cb:	74 49                	je     403916 <_Z15test_block_gemmmmmbi+0x4d6>
  4038cd:	41 80 7d 38 00       	cmp    BYTE PTR [r13+0x38],0x0
  4038d2:	74 1a                	je     4038ee <_Z15test_block_gemmmmmbi+0x4ae>
  4038d4:	41 0f be 75 43       	movsx  esi,BYTE PTR [r13+0x43]
  4038d9:	4c 89 e7             	mov    rdi,r12
  4038dc:	e8 5f e7 ff ff       	call   402040 <_ZNSo3putEc@plt>
  4038e1:	48 89 c7             	mov    rdi,rax
  4038e4:	e8 f7 e7 ff ff       	call   4020e0 <_ZNSo5flushEv@plt>
  4038e9:	e9 26 fe ff ff       	jmp    403714 <_Z15test_block_gemmmmmbi+0x2d4>
  4038ee:	4c 89 ef             	mov    rdi,r13
  4038f1:	e8 8a e8 ff ff       	call   402180 <_ZNKSt5ctypeIcE13_M_widen_initEv@plt>
  4038f6:	49 8b 45 00          	mov    rax,QWORD PTR [r13+0x0]
  4038fa:	be 0a 00 00 00       	mov    esi,0xa
  4038ff:	48 8b 40 30          	mov    rax,QWORD PTR [rax+0x30]
  403903:	48 81 f8 10 43 40 00 	cmp    rax,0x404310
  40390a:	74 cd                	je     4038d9 <_Z15test_block_gemmmmmbi+0x499>
  40390c:	4c 89 ef             	mov    rdi,r13
  40390f:	ff d0                	call   rax
  403911:	0f be f0             	movsx  esi,al
  403914:	eb c3                	jmp    4038d9 <_Z15test_block_gemmmmmbi+0x499>
  403916:	e8 85 e8 ff ff       	call   4021a0 <_ZSt16__throw_bad_castv@plt>
  40391b:	0f 1f 44 00 00       	nop    DWORD PTR [rax+rax*1+0x0]

0000000000403920 <_Z12set_data_weiPvS_mm>:
  403920:	41 57                	push   r15
  403922:	49 89 d7             	mov    r15,rdx
  403925:	41 56                	push   r14
  403927:	49 89 ce             	mov    r14,rcx
  40392a:	41 55                	push   r13
  40392c:	41 54                	push   r12
  40392e:	55                   	push   rbp
  40392f:	48 89 f5             	mov    rbp,rsi
  403932:	53                   	push   rbx
  403933:	48 89 fb             	mov    rbx,rdi
  403936:	48 83 ec 48          	sub    rsp,0x48
  40393a:	e8 21 e7 ff ff       	call   402060 <_ZNSt6chrono3_V212system_clock3nowEv@plt>
  40393f:	89 c1                	mov    ecx,eax
  403941:	48 89 c8             	mov    rax,rcx
  403944:	48 ba 05 00 00 00 02 	movabs rdx,0x200000005
  40394b:	00 00 00 
  40394e:	48 f7 e2             	mul    rdx
  403951:	48 89 c8             	mov    rax,rcx
  403954:	c5 f9 28 05 e4 78 00 	vmovapd xmm0,XMMWORD PTR [rip+0x78e4]        # 40b240 <__dso_handle+0x238>
  40395b:	00 
  40395c:	48 29 d0             	sub    rax,rdx
  40395f:	48 d1 e8             	shr    rax,1
  403962:	48 01 c2             	add    rdx,rax
  403965:	48 c1 ea 1e          	shr    rdx,0x1e
  403969:	48 89 d0             	mov    rax,rdx
  40396c:	48 c1 e0 1f          	shl    rax,0x1f
  403970:	48 29 d0             	sub    rax,rdx
  403973:	48 29 c1             	sub    rcx,rax
  403976:	b8 01 00 00 00       	mov    eax,0x1
  40397b:	48 0f 44 c8          	cmove  rcx,rax
  40397f:	4d 0f af fe          	imul   r15,r14
  403983:	48 89 4c 24 18       	mov    QWORD PTR [rsp+0x18],rcx
  403988:	48 c7 44 24 30 00 00 	mov    QWORD PTR [rsp+0x30],0x0
  40398f:	00 00 
  403991:	49 c1 e7 0c          	shl    r15,0xc
  403995:	c6 44 24 38 00       	mov    BYTE PTR [rsp+0x38],0x0
  40399a:	c5 f9 29 44 24 20    	vmovapd XMMWORD PTR [rsp+0x20],xmm0
  4039a0:	74 41                	je     4039e3 <_Z12set_data_weiPvS_mm+0xc3>
  4039a2:	c5 fb 10 1d 8e 78 00 	vmovsd xmm3,QWORD PTR [rip+0x788e]        # 40b238 <__dso_handle+0x230>
  4039a9:	00 
  4039aa:	49 01 df             	add    r15,rbx
  4039ad:	4c 8d 6c 24 20       	lea    r13,[rsp+0x20]
  4039b2:	4c 8d 64 24 18       	lea    r12,[rsp+0x18]
  4039b7:	c5 fb 11 5c 24 08    	vmovsd QWORD PTR [rsp+0x8],xmm3
  4039bd:	0f 1f 00             	nop    DWORD PTR [rax]
  4039c0:	4c 89 ea             	mov    rdx,r13
  4039c3:	4c 89 e6             	mov    rsi,r12
  4039c6:	4c 89 ef             	mov    rdi,r13
  4039c9:	e8 a2 19 00 00       	call   405370 <_ZNSt19normal_distributionIdEclISt26linear_congruential_engineImLm16807ELm0ELm2147483647EEEEdRT_RKNS0_10param_typeE>
  4039ce:	c5 fb 59 44 24 08    	vmulsd xmm0,xmm0,QWORD PTR [rsp+0x8]
  4039d4:	48 ff c3             	inc    rbx
  4039d7:	c5 fb 2c c0          	vcvttsd2si eax,xmm0
  4039db:	88 43 ff             	mov    BYTE PTR [rbx-0x1],al
  4039de:	4c 39 fb             	cmp    rbx,r15
  4039e1:	75 dd                	jne    4039c0 <_Z12set_data_weiPvS_mm+0xa0>
  4039e3:	4c 89 f3             	mov    rbx,r14
  4039e6:	48 c1 e3 06          	shl    rbx,0x6
  4039ea:	74 4b                	je     403a37 <_Z12set_data_weiPvS_mm+0x117>
  4039ec:	c5 fb 10 25 44 78 00 	vmovsd xmm4,QWORD PTR [rip+0x7844]        # 40b238 <__dso_handle+0x230>
  4039f3:	00 
  4039f4:	45 31 f6             	xor    r14d,r14d
  4039f7:	4c 8d 6c 24 20       	lea    r13,[rsp+0x20]
  4039fc:	4c 8d 64 24 18       	lea    r12,[rsp+0x18]
  403a01:	c5 fb 11 64 24 08    	vmovsd QWORD PTR [rsp+0x8],xmm4
  403a07:	66 0f 1f 84 00 00 00 	nop    WORD PTR [rax+rax*1+0x0]
  403a0e:	00 00 
  403a10:	4c 89 ea             	mov    rdx,r13
  403a13:	4c 89 e6             	mov    rsi,r12
  403a16:	4c 89 ef             	mov    rdi,r13
  403a19:	e8 52 19 00 00       	call   405370 <_ZNSt19normal_distributionIdEclISt26linear_congruential_engineImLm16807ELm0ELm2147483647EEEEdRT_RKNS0_10param_typeE>
  403a1e:	c5 fb 59 44 24 08    	vmulsd xmm0,xmm0,QWORD PTR [rsp+0x8]
  403a24:	c5 fb 5a c0          	vcvtsd2ss xmm0,xmm0,xmm0
  403a28:	c4 a1 7a 11 44 b5 00 	vmovss DWORD PTR [rbp+r14*4+0x0],xmm0
  403a2f:	49 ff c6             	inc    r14
  403a32:	49 39 de             	cmp    r14,rbx
  403a35:	75 d9                	jne    403a10 <_Z12set_data_weiPvS_mm+0xf0>
  403a37:	48 83 c4 48          	add    rsp,0x48
  403a3b:	5b                   	pop    rbx
  403a3c:	5d                   	pop    rbp
  403a3d:	41 5c                	pop    r12
  403a3f:	41 5d                	pop    r13
  403a41:	41 5e                	pop    r14
  403a43:	41 5f                	pop    r15
  403a45:	c3                   	ret    
  403a46:	66 2e 0f 1f 84 00 00 	cs nop WORD PTR [rax+rax*1+0x0]
  403a4d:	00 00 00 

0000000000403a50 <_Z15test_block_gemmmmmbi._omp_fn.0>:
  403a50:	41 57                	push   r15
  403a52:	41 56                	push   r14
  403a54:	41 55                	push   r13
  403a56:	41 54                	push   r12
  403a58:	55                   	push   rbp
  403a59:	53                   	push   rbx
  403a5a:	48 83 ec 18          	sub    rsp,0x18
  403a5e:	48 89 7c 24 08       	mov    QWORD PTR [rsp+0x8],rdi
  403a63:	e8 08 e8 ff ff       	call   402270 <omp_get_num_threads@plt>
  403a68:	89 c3                	mov    ebx,eax
  403a6a:	e8 b1 e7 ff ff       	call   402220 <omp_get_thread_num@plt>
  403a6f:	48 8b 74 24 08       	mov    rsi,QWORD PTR [rsp+0x8]
  403a74:	89 c1                	mov    ecx,eax
  403a76:	48 8b 46 18          	mov    rax,QWORD PTR [rsi+0x18]
  403a7a:	99                   	cdq    
  403a7b:	f7 fb                	idiv   ebx
  403a7d:	39 d1                	cmp    ecx,edx
  403a7f:	7c 6f                	jl     403af0 <_Z15test_block_gemmmmmbi._omp_fn.0+0xa0>
  403a81:	0f af c8             	imul   ecx,eax
  403a84:	8d 1c 11             	lea    ebx,[rcx+rdx*1]
  403a87:	01 d8                	add    eax,ebx
  403a89:	89 44 24 08          	mov    DWORD PTR [rsp+0x8],eax
  403a8d:	39 c3                	cmp    ebx,eax
  403a8f:	7d 4b                	jge    403adc <_Z15test_block_gemmmmmbi._omp_fn.0+0x8c>
  403a91:	4c 8b 26             	mov    r12,QWORD PTR [rsi]
  403a94:	48 63 c3             	movsxd rax,ebx
  403a97:	4d 89 e5             	mov    r13,r12
  403a9a:	4c 0f af 66 08       	imul   r12,QWORD PTR [rsi+0x8]
  403a9f:	4c 8b 7e 28          	mov    r15,QWORD PTR [rsi+0x28]
  403aa3:	4c 8b 76 10          	mov    r14,QWORD PTR [rsi+0x10]
  403aa7:	49 0f af c4          	imul   rax,r12
  403aab:	49 c1 ed 06          	shr    r13,0x6
  403aaf:	48 03 46 20          	add    rax,QWORD PTR [rsi+0x20]
  403ab3:	48 89 c5             	mov    rbp,rax
  403ab6:	66 2e 0f 1f 84 00 00 	cs nop WORD PTR [rax+rax*1+0x0]
  403abd:	00 00 00 
  403ac0:	48 89 ef             	mov    rdi,rbp
  403ac3:	4c 89 f1             	mov    rcx,r14
  403ac6:	4c 89 ea             	mov    rdx,r13
  403ac9:	4c 89 fe             	mov    rsi,r15
  403acc:	ff c3                	inc    ebx
  403ace:	e8 4d fe ff ff       	call   403920 <_Z12set_data_weiPvS_mm>
  403ad3:	4c 01 e5             	add    rbp,r12
  403ad6:	39 5c 24 08          	cmp    DWORD PTR [rsp+0x8],ebx
  403ada:	75 e4                	jne    403ac0 <_Z15test_block_gemmmmmbi._omp_fn.0+0x70>
  403adc:	48 83 c4 18          	add    rsp,0x18
  403ae0:	5b                   	pop    rbx
  403ae1:	5d                   	pop    rbp
  403ae2:	41 5c                	pop    r12
  403ae4:	41 5d                	pop    r13
  403ae6:	41 5e                	pop    r14
  403ae8:	41 5f                	pop    r15
  403aea:	c3                   	ret    
  403aeb:	0f 1f 44 00 00       	nop    DWORD PTR [rax+rax*1+0x0]
  403af0:	ff c0                	inc    eax
  403af2:	31 d2                	xor    edx,edx
  403af4:	eb 8b                	jmp    403a81 <_Z15test_block_gemmmmmbi._omp_fn.0+0x31>
  403af6:	66 2e 0f 1f 84 00 00 	cs nop WORD PTR [rax+rax*1+0x0]
  403afd:	00 00 00 

0000000000403b00 <_Z16test_tile_16x256i>:
  403b00:	4c 8d 54 24 08       	lea    r10,[rsp+0x8]
  403b05:	48 83 e4 c0          	and    rsp,0xffffffffffffffc0
  403b09:	41 ff 72 f8          	push   QWORD PTR [r10-0x8]
  403b0d:	55                   	push   rbp
  403b0e:	48 89 e5             	mov    rbp,rsp
  403b11:	41 57                	push   r15
  403b13:	4c 8d bd d0 fe fa ff 	lea    r15,[rbp-0x50130]
  403b1a:	41 56                	push   r14
  403b1c:	41 55                	push   r13
  403b1e:	4c 63 ef             	movsxd r13,edi
  403b21:	4c 89 e8             	mov    rax,r13
  403b24:	41 54                	push   r12
  403b26:	48 c1 e0 0e          	shl    rax,0xe
  403b2a:	4c 89 ee             	mov    rsi,r13
  403b2d:	41 52                	push   r10
  403b2f:	4c 8d a5 d0 ff fa ff 	lea    r12,[rbp-0x50030]
  403b36:	53                   	push   rbx
  403b37:	4c 89 eb             	mov    rbx,r13
  403b3a:	48 81 ec 80 01 05 00 	sub    rsp,0x50180
  403b41:	48 89 85 68 fe fa ff 	mov    QWORD PTR [rbp-0x50198],rax
  403b48:	48 83 c0 40          	add    rax,0x40
  403b4c:	48 29 c4             	sub    rsp,rax
  403b4f:	48 8d 44 24 3f       	lea    rax,[rsp+0x3f]
  403b54:	48 83 e0 c0          	and    rax,0xffffffffffffffc0
  403b58:	49 89 c6             	mov    r14,rax
  403b5b:	48 89 85 60 fe fa ff 	mov    QWORD PTR [rbp-0x501a0],rax
  403b62:	4c 89 e8             	mov    rax,r13
  403b65:	48 c1 e0 10          	shl    rax,0x10
  403b69:	48 83 c0 40          	add    rax,0x40
  403b6d:	48 29 c4             	sub    rsp,rax
  403b70:	48 8d 54 24 3f       	lea    rdx,[rsp+0x3f]
  403b75:	48 29 c4             	sub    rsp,rax
  403b78:	48 8d 44 24 3f       	lea    rax,[rsp+0x3f]
  403b7d:	48 83 e2 c0          	and    rdx,0xffffffffffffffc0
  403b81:	48 83 e0 c0          	and    rax,0xffffffffffffffc0
  403b85:	4c 89 f7             	mov    rdi,r14
  403b88:	48 89 95 80 fe fa ff 	mov    QWORD PTR [rbp-0x50180],rdx
  403b8f:	ba 00 04 00 00       	mov    edx,0x400
  403b94:	48 89 85 88 fe fa ff 	mov    QWORD PTR [rbp-0x50178],rax
  403b9b:	e8 e0 f7 ff ff       	call   403380 <_Z12set_data_actPvmm>
  403ba0:	b9 01 00 00 00       	mov    ecx,0x1
  403ba5:	ba 10 00 00 00       	mov    edx,0x10
  403baa:	4c 89 fe             	mov    rsi,r15
  403bad:	4c 89 e7             	mov    rdi,r12
  403bb0:	e8 6b fd ff ff       	call   403920 <_Z12set_data_weiPvS_mm>
  403bb5:	6a 40                	push   0x40
  403bb7:	48 8b 95 80 fe fa ff 	mov    rdx,QWORD PTR [rbp-0x50180]
  403bbe:	48 8d 8d d0 ff fb ff 	lea    rcx,[rbp-0x40030]
  403bc5:	68 00 04 00 00       	push   0x400
  403bca:	45 89 e8             	mov    r8d,r13d
  403bcd:	4c 89 f7             	mov    rdi,r14
  403bd0:	41 b9 01 00 00 00    	mov    r9d,0x1
  403bd6:	4c 89 e6             	mov    rsi,r12
  403bd9:	48 89 8d 78 fe fa ff 	mov    QWORD PTR [rbp-0x50188],rcx
  403be0:	e8 db eb ff ff       	call   4027c0 <_Z15send_data2naivePvS_S_S_ibmm>
  403be5:	41 59                	pop    r9
  403be7:	41 5a                	pop    r10
  403be9:	41 55                	push   r13
  403beb:	c5 fa 10 05 f5 75 00 	vmovss xmm0,DWORD PTR [rip+0x75f5]        # 40b1e8 <__dso_handle+0x1e0>
  403bf2:	00 
  403bf3:	4c 8b 85 88 fe fa ff 	mov    r8,QWORD PTR [rbp-0x50178]
  403bfa:	41 57                	push   r15
  403bfc:	48 8b 95 78 fe fa ff 	mov    rdx,QWORD PTR [rbp-0x50188]
  403c03:	48 8b bd 80 fe fa ff 	mov    rdi,QWORD PTR [rbp-0x50180]
  403c0a:	41 b9 00 04 00 00    	mov    r9d,0x400
  403c10:	b9 40 00 00 00       	mov    ecx,0x40
  403c15:	be 00 04 00 00       	mov    esi,0x400
  403c1a:	e8 d1 e9 ff ff       	call   4025f0 <_Z12naive_linearPvmS_mS_mS_fi>
  403c1f:	41 5b                	pop    r11
  403c21:	41 5e                	pop    r14
  403c23:	44 89 ee             	mov    esi,r13d
  403c26:	48 8d 3d 33 74 00 00 	lea    rdi,[rip+0x7433]        # 40b060 <__dso_handle+0x58>
  403c2d:	31 c0                	xor    eax,eax
  403c2f:	e8 1c e4 ff ff       	call   402050 <printf@plt>
  403c34:	49 c1 e5 0a          	shl    r13,0xa
  403c38:	48 8d 3d 71 74 00 00 	lea    rdi,[rip+0x7471]        # 40b0b0 <__dso_handle+0xa8>
  403c3f:	e8 cc e5 ff ff       	call   402210 <puts@plt>
  403c44:	49 8d 45 40          	lea    rax,[r13+0x40]
  403c48:	48 29 c4             	sub    rsp,rax
  403c4b:	4c 8d 74 24 3f       	lea    r14,[rsp+0x3f]
  403c50:	49 83 e6 c0          	and    r14,0xffffffffffffffc0
  403c54:	85 db                	test   ebx,ebx
  403c56:	7e 60                	jle    403cb8 <_Z16test_tile_16x256i+0x1b8>
  403c58:	48 8b 8d 88 fe fa ff 	mov    rcx,QWORD PTR [rbp-0x50178]
  403c5f:	41 89 dd             	mov    r13d,ebx
  403c62:	4c 89 e0             	mov    rax,r12
  403c65:	49 c1 e5 10          	shl    r13,0x10
  403c69:	89 9d 70 fe fa ff    	mov    DWORD PTR [rbp-0x50190],ebx
  403c6f:	4d 89 f4             	mov    r12,r14
  403c72:	49 01 cd             	add    r13,rcx
  403c75:	48 89 cb             	mov    rbx,rcx
  403c78:	49 89 c6             	mov    r14,rax
  403c7b:	4c 89 e6             	mov    rsi,r12
  403c7e:	48 89 df             	mov    rdi,rbx
  403c81:	41 b9 40 00 00 00    	mov    r9d,0x40
  403c87:	41 b8 00 04 00 00    	mov    r8d,0x400
  403c8d:	b9 40 00 00 00       	mov    ecx,0x40
  403c92:	ba 10 00 00 00       	mov    edx,0x10
  403c97:	48 81 c3 00 00 01 00 	add    rbx,0x10000
  403c9e:	e8 7d 21 00 00       	call   405e20 <_ZN12intel_mlperf20compare_naive_outputEPiPaiiii>
  403ca3:	49 81 c4 00 04 00 00 	add    r12,0x400
  403caa:	4c 39 eb             	cmp    rbx,r13
  403cad:	75 cc                	jne    403c7b <_Z16test_tile_16x256i+0x17b>
  403caf:	8b 9d 70 fe fa ff    	mov    ebx,DWORD PTR [rbp-0x50190]
  403cb5:	4d 89 f4             	mov    r12,r14
  403cb8:	48 8d 3d 29 74 00 00 	lea    rdi,[rip+0x7429]        # 40b0e8 <__dso_handle+0xe0>
  403cbf:	e8 4c e5 ff ff       	call   402210 <puts@plt>
  403cc4:	e8 97 e3 ff ff       	call   402060 <_ZNSt6chrono3_V212system_clock3nowEv@plt>
  403cc9:	49 89 c6             	mov    r14,rax
  403ccc:	e8 8f e3 ff ff       	call   402060 <_ZNSt6chrono3_V212system_clock3nowEv@plt>
  403cd1:	48 8b 3d e8 a2 00 00 	mov    rdi,QWORD PTR [rip+0xa2e8]        # 40dfc0 <_ZSt4cout@GLIBCXX_3.4>
  403cd8:	4c 29 f0             	sub    rax,r14
  403cdb:	be 00 fa 00 00       	mov    esi,0xfa00
  403ce0:	49 89 c5             	mov    r13,rax
  403ce3:	e8 e8 e3 ff ff       	call   4020d0 <_ZNSo9_M_insertImEERSoT_@plt>
  403ce8:	48 89 c7             	mov    rdi,rax
  403ceb:	ba 20 00 00 00       	mov    edx,0x20
  403cf0:	48 8d 35 41 74 00 00 	lea    rsi,[rip+0x7441]        # 40b138 <__dso_handle+0x130>
  403cf7:	49 89 c6             	mov    r14,rax
  403cfa:	e8 71 e4 ff ff       	call   402170 <_ZSt16__ostream_insertIcSt11char_traitsIcEERSt13basic_ostreamIT_T0_ES6_PKS3_l@plt>
  403cff:	c5 c8 57 f6          	vxorps xmm6,xmm6,xmm6
  403d03:	c4 c1 ca 2a c5       	vcvtsi2ss xmm0,xmm6,r13
  403d08:	c5 fa 10 0d e0 74 00 	vmovss xmm1,DWORD PTR [rip+0x74e0]        # 40b1f0 <__dso_handle+0x1e8>
  403d0f:	00 
  403d10:	4c 89 f7             	mov    rdi,r14
  403d13:	c5 fa 11 85 70 fe fa 	vmovss DWORD PTR [rbp-0x50190],xmm0
  403d1a:	ff 
  403d1b:	c5 fa 5e c1          	vdivss xmm0,xmm0,xmm1
  403d1f:	c5 fa 5e c1          	vdivss xmm0,xmm0,xmm1
  403d23:	c5 fa 5a c0          	vcvtss2sd xmm0,xmm0,xmm0
  403d27:	e8 04 e5 ff ff       	call   402230 <_ZNSo9_M_insertIdEERSoT_@plt>
  403d2c:	49 89 c5             	mov    r13,rax
  403d2f:	ba 04 00 00 00       	mov    edx,0x4
  403d34:	48 8d 35 6b 74 00 00 	lea    rsi,[rip+0x746b]        # 40b1a6 <__dso_handle+0x19e>
  403d3b:	48 89 c7             	mov    rdi,rax
  403d3e:	e8 2d e4 ff ff       	call   402170 <_ZSt16__ostream_insertIcSt11char_traitsIcEERSt13basic_ostreamIT_T0_ES6_PKS3_l@plt>
  403d43:	49 8b 45 00          	mov    rax,QWORD PTR [r13+0x0]
  403d47:	48 8b 40 e8          	mov    rax,QWORD PTR [rax-0x18]
  403d4b:	4d 8b b4 05 f0 00 00 	mov    r14,QWORD PTR [r13+rax*1+0xf0]
  403d52:	00 
  403d53:	4d 85 f6             	test   r14,r14
  403d56:	0f 84 9e 05 00 00    	je     4042fa <_Z16test_tile_16x256i+0x7fa>
  403d5c:	41 80 7e 38 00       	cmp    BYTE PTR [r14+0x38],0x0
  403d61:	0f 84 32 05 00 00    	je     404299 <_Z16test_tile_16x256i+0x799>
  403d67:	41 0f be 76 43       	movsx  esi,BYTE PTR [r14+0x43]
  403d6c:	4c 89 ef             	mov    rdi,r13
  403d6f:	e8 cc e2 ff ff       	call   402040 <_ZNSo3putEc@plt>
  403d74:	48 89 c7             	mov    rdi,rax
  403d77:	e8 64 e3 ff ff       	call   4020e0 <_ZNSo5flushEv@plt>
  403d7c:	48 8b 3d 3d a2 00 00 	mov    rdi,QWORD PTR [rip+0xa23d]        # 40dfc0 <_ZSt4cout@GLIBCXX_3.4>
  403d83:	ba 15 00 00 00       	mov    edx,0x15
  403d88:	48 8d 35 1c 74 00 00 	lea    rsi,[rip+0x741c]        # 40b1ab <__dso_handle+0x1a3>
  403d8f:	e8 dc e3 ff ff       	call   402170 <_ZSt16__ostream_insertIcSt11char_traitsIcEERSt13basic_ostreamIT_T0_ES6_PKS3_l@plt>
  403d94:	c5 fa 10 95 70 fe fa 	vmovss xmm2,DWORD PTR [rbp-0x50190]
  403d9b:	ff 
  403d9c:	48 8b 3d 1d a2 00 00 	mov    rdi,QWORD PTR [rip+0xa21d]        # 40dfc0 <_ZSt4cout@GLIBCXX_3.4>
  403da3:	c5 ea 5e 05 49 74 00 	vdivss xmm0,xmm2,DWORD PTR [rip+0x7449]        # 40b1f4 <__dso_handle+0x1ec>
  403daa:	00 
  403dab:	c5 fa 5a c0          	vcvtss2sd xmm0,xmm0,xmm0
  403daf:	e8 7c e4 ff ff       	call   402230 <_ZNSo9_M_insertIdEERSoT_@plt>
  403db4:	49 89 c5             	mov    r13,rax
  403db7:	ba 03 00 00 00       	mov    edx,0x3
  403dbc:	48 8d 35 fe 73 00 00 	lea    rsi,[rip+0x73fe]        # 40b1c1 <__dso_handle+0x1b9>
  403dc3:	48 89 c7             	mov    rdi,rax
  403dc6:	e8 a5 e3 ff ff       	call   402170 <_ZSt16__ostream_insertIcSt11char_traitsIcEERSt13basic_ostreamIT_T0_ES6_PKS3_l@plt>
  403dcb:	49 8b 45 00          	mov    rax,QWORD PTR [r13+0x0]
  403dcf:	48 8b 40 e8          	mov    rax,QWORD PTR [rax-0x18]
  403dd3:	4d 8b b4 05 f0 00 00 	mov    r14,QWORD PTR [r13+rax*1+0xf0]
  403dda:	00 
  403ddb:	4d 85 f6             	test   r14,r14
  403dde:	0f 84 16 05 00 00    	je     4042fa <_Z16test_tile_16x256i+0x7fa>
  403de4:	41 80 7e 38 00       	cmp    BYTE PTR [r14+0x38],0x0
  403de9:	0f 84 d8 04 00 00    	je     4042c7 <_Z16test_tile_16x256i+0x7c7>
  403def:	41 0f be 76 43       	movsx  esi,BYTE PTR [r14+0x43]
  403df4:	4c 89 ef             	mov    rdi,r13
  403df7:	e8 44 e2 ff ff       	call   402040 <_ZNSo3putEc@plt>
  403dfc:	48 89 c7             	mov    rdi,rax
  403dff:	e8 dc e2 ff ff       	call   4020e0 <_ZNSo5flushEv@plt>
  403e04:	48 8d 3d 55 73 00 00 	lea    rdi,[rip+0x7355]        # 40b160 <__dso_handle+0x158>
  403e0b:	e8 00 e4 ff ff       	call   402210 <puts@plt>
  403e10:	6a 40                	push   0x40
  403e12:	4c 8b ad 80 fe fa ff 	mov    r13,QWORD PTR [rbp-0x50180]
  403e19:	4c 8b b5 60 fe fa ff 	mov    r14,QWORD PTR [rbp-0x501a0]
  403e20:	68 00 04 00 00       	push   0x400
  403e25:	48 8b 8d 78 fe fa ff 	mov    rcx,QWORD PTR [rbp-0x50188]
  403e2c:	45 31 c9             	xor    r9d,r9d
  403e2f:	41 89 d8             	mov    r8d,ebx
  403e32:	4c 89 ea             	mov    rdx,r13
  403e35:	4c 89 e6             	mov    rsi,r12
  403e38:	4c 89 f7             	mov    rdi,r14
  403e3b:	e8 80 e9 ff ff       	call   4027c0 <_Z15send_data2naivePvS_S_S_ibmm>
  403e40:	59                   	pop    rcx
  403e41:	5e                   	pop    rsi
  403e42:	53                   	push   rbx
  403e43:	c5 fa 10 05 9d 73 00 	vmovss xmm0,DWORD PTR [rip+0x739d]        # 40b1e8 <__dso_handle+0x1e0>
  403e4a:	00 
  403e4b:	48 8b 95 78 fe fa ff 	mov    rdx,QWORD PTR [rbp-0x50188]
  403e52:	41 57                	push   r15
  403e54:	4c 8b 85 88 fe fa ff 	mov    r8,QWORD PTR [rbp-0x50178]
  403e5b:	41 b9 00 04 00 00    	mov    r9d,0x400
  403e61:	b9 40 00 00 00       	mov    ecx,0x40
  403e66:	be 00 04 00 00       	mov    esi,0x400
  403e6b:	4c 89 ef             	mov    rdi,r13
  403e6e:	e8 7d e7 ff ff       	call   4025f0 <_Z12naive_linearPvmS_mS_mS_fi>
  403e73:	5f                   	pop    rdi
  403e74:	41 58                	pop    r8
  403e76:	48 2b a5 68 fe fa ff 	sub    rsp,QWORD PTR [rbp-0x50198]
  403e7d:	48 8d 3d 2c 72 00 00 	lea    rdi,[rip+0x722c]        # 40b0b0 <__dso_handle+0xa8>
  403e84:	e8 87 e3 ff ff       	call   402210 <puts@plt>
  403e89:	c5 fa 10 05 57 73 00 	vmovss xmm0,DWORD PTR [rip+0x7357]        # 40b1e8 <__dso_handle+0x1e0>
  403e90:	00 
  403e91:	4d 89 f9             	mov    r9,r15
  403e94:	4d 89 e0             	mov    r8,r12
  403e97:	4c 89 f1             	mov    rcx,r14
  403e9a:	ba 00 04 00 00       	mov    edx,0x400
  403e9f:	48 89 e6             	mov    rsi,rsp
  403ea2:	89 df                	mov    edi,ebx
  403ea4:	e8 f7 f3 ff ff       	call   4032a0 <_Z21accuracy_test_256x256iPvmS_S_Pff>
  403ea9:	85 db                	test   ebx,ebx
  403eab:	7e 47                	jle    403ef4 <_Z16test_tile_16x256i+0x3f4>
  403ead:	4c 8b ad 88 fe fa ff 	mov    r13,QWORD PTR [rbp-0x50178]
  403eb4:	89 db                	mov    ebx,ebx
  403eb6:	48 c1 e3 10          	shl    rbx,0x10
  403eba:	49 89 e6             	mov    r14,rsp
  403ebd:	4c 01 eb             	add    rbx,r13
  403ec0:	4c 89 f6             	mov    rsi,r14
  403ec3:	4c 89 ef             	mov    rdi,r13
  403ec6:	41 b9 00 04 00 00    	mov    r9d,0x400
  403ecc:	41 b8 00 04 00 00    	mov    r8d,0x400
  403ed2:	b9 40 00 00 00       	mov    ecx,0x40
  403ed7:	ba 10 00 00 00       	mov    edx,0x10
  403edc:	49 81 c5 00 00 01 00 	add    r13,0x10000
  403ee3:	e8 38 1f 00 00       	call   405e20 <_ZN12intel_mlperf20compare_naive_outputEPiPaiiii>
  403ee8:	49 81 c6 00 40 00 00 	add    r14,0x4000
  403eef:	49 39 dd             	cmp    r13,rbx
  403ef2:	75 cc                	jne    403ec0 <_Z16test_tile_16x256i+0x3c0>
  403ef4:	48 8d 3d ed 71 00 00 	lea    rdi,[rip+0x71ed]        # 40b0e8 <__dso_handle+0xe0>
  403efb:	e8 10 e3 ff ff       	call   402210 <puts@plt>
  403f00:	48 8d bd 98 fe fa ff 	lea    rdi,[rbp-0x50168]
  403f07:	ba 00 00 00 12       	mov    edx,0x12000000
  403f0c:	be 00 10 00 00       	mov    esi,0x1000
  403f11:	48 c7 85 98 fe fa ff 	mov    QWORD PTR [rbp-0x50168],0x0
  403f18:	00 00 00 00 
  403f1c:	e8 7f e1 ff ff       	call   4020a0 <posix_memalign@plt>
  403f21:	48 8b bd 98 fe fa ff 	mov    rdi,QWORD PTR [rbp-0x50168]
  403f28:	ba 00 00 00 12       	mov    edx,0x12000000
  403f2d:	be 01 00 00 00       	mov    esi,0x1
  403f32:	e8 89 e1 ff ff       	call   4020c0 <memset@plt>
  403f37:	bf 04 00 00 00       	mov    edi,0x4
  403f3c:	48 c7 85 b0 fe fa ff 	mov    QWORD PTR [rbp-0x50150],0x0
  403f43:	00 00 00 00 
  403f47:	48 c7 85 b8 fe fa ff 	mov    QWORD PTR [rbp-0x50148],0x0
  403f4e:	00 00 00 00 
  403f52:	48 c7 85 c0 fe fa ff 	mov    QWORD PTR [rbp-0x50140],0x0
  403f59:	00 00 00 00 
  403f5d:	e8 de e1 ff ff       	call   402140 <_Znwm@plt>
  403f62:	48 8d 50 04          	lea    rdx,[rax+0x4]
  403f66:	c4 e1 f9 6e d0       	vmovq  xmm2,rax
  403f6b:	c7 00 00 00 00 00    	mov    DWORD PTR [rax],0x0
  403f71:	48 8d 85 a0 fe fa ff 	lea    rax,[rbp-0x50160]
  403f78:	48 89 85 78 fe fa ff 	mov    QWORD PTR [rbp-0x50188],rax
  403f7f:	48 8d 85 a8 fe fa ff 	lea    rax,[rbp-0x50158]
  403f86:	48 89 95 c0 fe fa ff 	mov    QWORD PTR [rbp-0x50140],rdx
  403f8d:	48 c7 85 88 fe fa ff 	mov    QWORD PTR [rbp-0x50178],0x120000
  403f94:	00 00 12 00 
  403f98:	48 89 85 70 fe fa ff 	mov    QWORD PTR [rbp-0x50190],rax
  403f9f:	c4 e3 e9 22 c2 01    	vpinsrq xmm0,xmm2,rdx,0x1
  403fa5:	c5 f9 7f 85 b0 fe fa 	vmovdqa XMMWORD PTR [rbp-0x50150],xmm0
  403fac:	ff 
  403fad:	bb 02 00 00 00       	mov    ebx,0x2
  403fb2:	66 0f 1f 44 00 00    	nop    WORD PTR [rax+rax*1+0x0]
  403fb8:	4c 8b b5 88 fe fa ff 	mov    r14,QWORD PTR [rbp-0x50178]
  403fbf:	48 8b bd 78 fe fa ff 	mov    rdi,QWORD PTR [rbp-0x50188]
  403fc6:	4c 89 f2             	mov    rdx,r14
  403fc9:	be 00 10 00 00       	mov    esi,0x1000
  403fce:	48 c7 85 a0 fe fa ff 	mov    QWORD PTR [rbp-0x50160],0x0
  403fd5:	00 00 00 00 
  403fd9:	e8 c2 e0 ff ff       	call   4020a0 <posix_memalign@plt>
  403fde:	48 8b bd a0 fe fa ff 	mov    rdi,QWORD PTR [rbp-0x50160]
  403fe5:	4c 89 f2             	mov    rdx,r14
  403fe8:	be 01 00 00 00       	mov    esi,0x1
  403fed:	e8 ce e0 ff ff       	call   4020c0 <memset@plt>
  403ff2:	48 8b bd 70 fe fa ff 	mov    rdi,QWORD PTR [rbp-0x50190]
  403ff9:	4c 89 f2             	mov    rdx,r14
  403ffc:	be 00 10 00 00       	mov    esi,0x1000
  404001:	48 c7 85 a8 fe fa ff 	mov    QWORD PTR [rbp-0x50158],0x0
  404008:	00 00 00 00 
  40400c:	e8 8f e0 ff ff       	call   4020a0 <posix_memalign@plt>
  404011:	e8 4a e0 ff ff       	call   402060 <_ZNSt6chrono3_V212system_clock3nowEv@plt>
  404016:	49 89 c6             	mov    r14,rax
  404019:	41 bd 20 1c 00 00    	mov    r13d,0x1c20
  40401f:	90                   	nop
  404020:	6a 24                	push   0x24
  404022:	c5 fa 10 05 be 71 00 	vmovss xmm0,DWORD PTR [rip+0x71be]        # 40b1e8 <__dso_handle+0x1e0>
  404029:	00 
  40402a:	48 8b 8d a0 fe fa ff 	mov    rcx,QWORD PTR [rbp-0x50160]
  404031:	68 00 12 00 00       	push   0x1200
  404036:	48 8b b5 a8 fe fa ff 	mov    rsi,QWORD PTR [rbp-0x50158]
  40403d:	4d 89 f9             	mov    r9,r15
  404040:	4d 89 e0             	mov    r8,r12
  404043:	ba 00 04 00 00       	mov    edx,0x400
  404048:	89 df                	mov    edi,ebx
  40404a:	e8 41 f1 ff ff       	call   403190 <_Z24performance_test_256x256iPvmS_S_Pffmm>
  40404f:	58                   	pop    rax
  404050:	5a                   	pop    rdx
  404051:	41 ff cd             	dec    r13d
  404054:	75 ca                	jne    404020 <_Z16test_tile_16x256i+0x520>
  404056:	e8 05 e0 ff ff       	call   402060 <_ZNSt6chrono3_V212system_clock3nowEv@plt>
  40405b:	48 8b 3d 5e 9f 00 00 	mov    rdi,QWORD PTR [rip+0x9f5e]        # 40dfc0 <_ZSt4cout@GLIBCXX_3.4>
  404062:	4c 29 f0             	sub    rax,r14
  404065:	89 de                	mov    esi,ebx
  404067:	49 89 c5             	mov    r13,rax
  40406a:	e8 e1 e1 ff ff       	call   402250 <_ZNSolsEi@plt>
  40406f:	ba 0f 00 00 00       	mov    edx,0xf
  404074:	48 8d 35 36 71 00 00 	lea    rsi,[rip+0x7136]        # 40b1b1 <__dso_handle+0x1a9>
  40407b:	48 89 c7             	mov    rdi,rax
  40407e:	49 89 c6             	mov    r14,rax
  404081:	e8 ea e0 ff ff       	call   402170 <_ZSt16__ostream_insertIcSt11char_traitsIcEERSt13basic_ostreamIT_T0_ES6_PKS3_l@plt>
  404086:	c5 d0 57 ed          	vxorps xmm5,xmm5,xmm5
  40408a:	c4 c1 d2 2a c5       	vcvtsi2ss xmm0,xmm5,r13
  40408f:	4c 89 f7             	mov    rdi,r14
  404092:	c5 fa 5e 05 5e 71 00 	vdivss xmm0,xmm0,DWORD PTR [rip+0x715e]        # 40b1f8 <__dso_handle+0x1f0>
  404099:	00 
  40409a:	c5 fa 59 1d 5a 71 00 	vmulss xmm3,xmm0,DWORD PTR [rip+0x715a]        # 40b1fc <__dso_handle+0x1f4>
  4040a1:	00 
  4040a2:	c5 fa 11 9d 80 fe fa 	vmovss DWORD PTR [rbp-0x50180],xmm3
  4040a9:	ff 
  4040aa:	c5 e2 5a c3          	vcvtss2sd xmm0,xmm3,xmm3
  4040ae:	e8 7d e1 ff ff       	call   402230 <_ZNSo9_M_insertIdEERSoT_@plt>
  4040b3:	ba 03 00 00 00       	mov    edx,0x3
  4040b8:	48 8d 35 02 71 00 00 	lea    rsi,[rip+0x7102]        # 40b1c1 <__dso_handle+0x1b9>
  4040bf:	48 89 c7             	mov    rdi,rax
  4040c2:	49 89 c6             	mov    r14,rax
  4040c5:	e8 a6 e0 ff ff       	call   402170 <_ZSt16__ostream_insertIcSt11char_traitsIcEERSt13basic_ostreamIT_T0_ES6_PKS3_l@plt>
  4040ca:	49 8b 06             	mov    rax,QWORD PTR [r14]
  4040cd:	48 8b 40 e8          	mov    rax,QWORD PTR [rax-0x18]
  4040d1:	4d 8b ac 06 f0 00 00 	mov    r13,QWORD PTR [r14+rax*1+0xf0]
  4040d8:	00 
  4040d9:	4d 85 ed             	test   r13,r13
  4040dc:	0f 84 13 02 00 00    	je     4042f5 <_Z16test_tile_16x256i+0x7f5>
  4040e2:	41 80 7d 38 00       	cmp    BYTE PTR [r13+0x38],0x0
  4040e7:	0f 84 29 01 00 00    	je     404216 <_Z16test_tile_16x256i+0x716>
  4040ed:	41 0f be 75 43       	movsx  esi,BYTE PTR [r13+0x43]
  4040f2:	4c 89 f7             	mov    rdi,r14
  4040f5:	e8 46 df ff ff       	call   402040 <_ZNSo3putEc@plt>
  4040fa:	48 89 c7             	mov    rdi,rax
  4040fd:	e8 de df ff ff       	call   4020e0 <_ZNSo5flushEv@plt>
  404102:	c5 fa 10 a5 80 fe fa 	vmovss xmm4,DWORD PTR [rbp-0x50180]
  404109:	ff 
  40410a:	48 8b b5 b8 fe fa ff 	mov    rsi,QWORD PTR [rbp-0x50148]
  404111:	c5 fa 11 a5 94 fe fa 	vmovss DWORD PTR [rbp-0x5016c],xmm4
  404118:	ff 
  404119:	48 3b b5 c0 fe fa ff 	cmp    rsi,QWORD PTR [rbp-0x50140]
  404120:	0f 84 1f 01 00 00    	je     404245 <_Z16test_tile_16x256i+0x745>
  404126:	c5 fa 11 26          	vmovss DWORD PTR [rsi],xmm4
  40412a:	48 83 c6 04          	add    rsi,0x4
  40412e:	48 89 b5 b8 fe fa ff 	mov    QWORD PTR [rbp-0x50148],rsi
  404135:	83 c3 02             	add    ebx,0x2
  404138:	48 81 85 88 fe fa ff 	add    QWORD PTR [rbp-0x50178],0x120000
  40413f:	00 00 12 00 
  404143:	83 fb 32             	cmp    ebx,0x32
  404146:	0f 85 6c fe ff ff    	jne    403fb8 <_Z16test_tile_16x256i+0x4b8>
  40414c:	48 8b 95 b0 fe fa ff 	mov    rdx,QWORD PTR [rbp-0x50150]
  404153:	48 8b 85 b8 fe fa ff 	mov    rax,QWORD PTR [rbp-0x50148]
  40415a:	31 db                	xor    ebx,ebx
  40415c:	48 29 d0             	sub    rax,rdx
  40415f:	48 83 f8 04          	cmp    rax,0x4
  404163:	75 45                	jne    4041aa <_Z16test_tile_16x256i+0x6aa>
  404165:	e9 f3 00 00 00       	jmp    40425d <_Z16test_tile_16x256i+0x75d>
  40416a:	66 0f 1f 44 00 00    	nop    WORD PTR [rax+rax*1+0x0]
  404170:	41 0f be 75 43       	movsx  esi,BYTE PTR [r13+0x43]
  404175:	4c 89 e7             	mov    rdi,r12
  404178:	e8 c3 de ff ff       	call   402040 <_ZNSo3putEc@plt>
  40417d:	48 89 c7             	mov    rdi,rax
  404180:	e8 5b df ff ff       	call   4020e0 <_ZNSo5flushEv@plt>
  404185:	48 8b 95 b0 fe fa ff 	mov    rdx,QWORD PTR [rbp-0x50150]
  40418c:	48 8b 85 b8 fe fa ff 	mov    rax,QWORD PTR [rbp-0x50148]
  404193:	48 83 c3 02          	add    rbx,0x2
  404197:	48 29 d0             	sub    rax,rdx
  40419a:	48 c1 f8 02          	sar    rax,0x2
  40419e:	48 ff c8             	dec    rax
  4041a1:	48 39 d8             	cmp    rax,rbx
  4041a4:	0f 86 b3 00 00 00    	jbe    40425d <_Z16test_tile_16x256i+0x75d>
  4041aa:	c5 fa 10 44 9a 04    	vmovss xmm0,DWORD PTR [rdx+rbx*4+0x4]
  4041b0:	48 8b 3d 09 9e 00 00 	mov    rdi,QWORD PTR [rip+0x9e09]        # 40dfc0 <_ZSt4cout@GLIBCXX_3.4>
  4041b7:	c5 fa 5c 04 9a       	vsubss xmm0,xmm0,DWORD PTR [rdx+rbx*4]
  4041bc:	c5 fa 5a c0          	vcvtss2sd xmm0,xmm0,xmm0
  4041c0:	e8 6b e0 ff ff       	call   402230 <_ZNSo9_M_insertIdEERSoT_@plt>
  4041c5:	49 89 c4             	mov    r12,rax
  4041c8:	48 8b 00             	mov    rax,QWORD PTR [rax]
  4041cb:	48 8b 40 e8          	mov    rax,QWORD PTR [rax-0x18]
  4041cf:	4d 8b ac 04 f0 00 00 	mov    r13,QWORD PTR [r12+rax*1+0xf0]
  4041d6:	00 
  4041d7:	4d 85 ed             	test   r13,r13
  4041da:	0f 84 1f 01 00 00    	je     4042ff <_Z16test_tile_16x256i+0x7ff>
  4041e0:	41 80 7d 38 00       	cmp    BYTE PTR [r13+0x38],0x0
  4041e5:	75 89                	jne    404170 <_Z16test_tile_16x256i+0x670>
  4041e7:	4c 89 ef             	mov    rdi,r13
  4041ea:	e8 91 df ff ff       	call   402180 <_ZNKSt5ctypeIcE13_M_widen_initEv@plt>
  4041ef:	49 8b 45 00          	mov    rax,QWORD PTR [r13+0x0]
  4041f3:	be 0a 00 00 00       	mov    esi,0xa
  4041f8:	48 8b 40 30          	mov    rax,QWORD PTR [rax+0x30]
  4041fc:	48 81 f8 10 43 40 00 	cmp    rax,0x404310
  404203:	0f 84 6c ff ff ff    	je     404175 <_Z16test_tile_16x256i+0x675>
  404209:	4c 89 ef             	mov    rdi,r13
  40420c:	ff d0                	call   rax
  40420e:	0f be f0             	movsx  esi,al
  404211:	e9 5f ff ff ff       	jmp    404175 <_Z16test_tile_16x256i+0x675>
  404216:	4c 89 ef             	mov    rdi,r13
  404219:	e8 62 df ff ff       	call   402180 <_ZNKSt5ctypeIcE13_M_widen_initEv@plt>
  40421e:	49 8b 45 00          	mov    rax,QWORD PTR [r13+0x0]
  404222:	be 0a 00 00 00       	mov    esi,0xa
  404227:	48 8b 40 30          	mov    rax,QWORD PTR [rax+0x30]
  40422b:	48 81 f8 10 43 40 00 	cmp    rax,0x404310
  404232:	0f 84 ba fe ff ff    	je     4040f2 <_Z16test_tile_16x256i+0x5f2>
  404238:	4c 89 ef             	mov    rdi,r13
  40423b:	ff d0                	call   rax
  40423d:	0f be f0             	movsx  esi,al
  404240:	e9 ad fe ff ff       	jmp    4040f2 <_Z16test_tile_16x256i+0x5f2>
  404245:	48 8d 95 94 fe fa ff 	lea    rdx,[rbp-0x5016c]
  40424c:	48 8d bd b0 fe fa ff 	lea    rdi,[rbp-0x50150]
  404253:	e8 78 13 00 00       	call   4055d0 <_ZNSt6vectorIfSaIfEE17_M_realloc_insertIJfEEEvN9__gnu_cxx17__normal_iteratorIPfS1_EEDpOT_>
  404258:	e9 d8 fe ff ff       	jmp    404135 <_Z16test_tile_16x256i+0x635>
  40425d:	48 8b bd 98 fe fa ff 	mov    rdi,QWORD PTR [rbp-0x50168]
  404264:	e8 27 df ff ff       	call   402190 <free@plt>
  404269:	48 8b bd b0 fe fa ff 	mov    rdi,QWORD PTR [rbp-0x50150]
  404270:	48 85 ff             	test   rdi,rdi
  404273:	74 0f                	je     404284 <_Z16test_tile_16x256i+0x784>
  404275:	48 8b b5 c0 fe fa ff 	mov    rsi,QWORD PTR [rbp-0x50140]
  40427c:	48 29 fe             	sub    rsi,rdi
  40427f:	e8 cc de ff ff       	call   402150 <_ZdlPvm@plt>
  404284:	48 8d 65 d0          	lea    rsp,[rbp-0x30]
  404288:	5b                   	pop    rbx
  404289:	41 5a                	pop    r10
  40428b:	41 5c                	pop    r12
  40428d:	41 5d                	pop    r13
  40428f:	41 5e                	pop    r14
  404291:	41 5f                	pop    r15
  404293:	5d                   	pop    rbp
  404294:	49 8d 62 f8          	lea    rsp,[r10-0x8]
  404298:	c3                   	ret    
  404299:	4c 89 f7             	mov    rdi,r14
  40429c:	e8 df de ff ff       	call   402180 <_ZNKSt5ctypeIcE13_M_widen_initEv@plt>
  4042a1:	49 8b 06             	mov    rax,QWORD PTR [r14]
  4042a4:	be 0a 00 00 00       	mov    esi,0xa
  4042a9:	48 8b 40 30          	mov    rax,QWORD PTR [rax+0x30]
  4042ad:	48 81 f8 10 43 40 00 	cmp    rax,0x404310
  4042b4:	0f 84 b2 fa ff ff    	je     403d6c <_Z16test_tile_16x256i+0x26c>
  4042ba:	4c 89 f7             	mov    rdi,r14
  4042bd:	ff d0                	call   rax
  4042bf:	0f be f0             	movsx  esi,al
  4042c2:	e9 a5 fa ff ff       	jmp    403d6c <_Z16test_tile_16x256i+0x26c>
  4042c7:	4c 89 f7             	mov    rdi,r14
  4042ca:	e8 b1 de ff ff       	call   402180 <_ZNKSt5ctypeIcE13_M_widen_initEv@plt>
  4042cf:	49 8b 06             	mov    rax,QWORD PTR [r14]
  4042d2:	be 0a 00 00 00       	mov    esi,0xa
  4042d7:	48 8b 40 30          	mov    rax,QWORD PTR [rax+0x30]
  4042db:	48 81 f8 10 43 40 00 	cmp    rax,0x404310
  4042e2:	0f 84 0c fb ff ff    	je     403df4 <_Z16test_tile_16x256i+0x2f4>
  4042e8:	4c 89 f7             	mov    rdi,r14
  4042eb:	ff d0                	call   rax
  4042ed:	0f be f0             	movsx  esi,al
  4042f0:	e9 ff fa ff ff       	jmp    403df4 <_Z16test_tile_16x256i+0x2f4>
  4042f5:	e8 a6 de ff ff       	call   4021a0 <_ZSt16__throw_bad_castv@plt>
  4042fa:	e8 a1 de ff ff       	call   4021a0 <_ZSt16__throw_bad_castv@plt>
  4042ff:	e8 9c de ff ff       	call   4021a0 <_ZSt16__throw_bad_castv@plt>
  404304:	49 89 c4             	mov    r12,rax
  404307:	e9 79 df ff ff       	jmp    402285 <_Z16test_tile_16x256i.cold>
  40430c:	0f 1f 40 00          	nop    DWORD PTR [rax+0x0]

0000000000404310 <_ZNKSt5ctypeIcE8do_widenEc>:
  404310:	89 f0                	mov    eax,esi
  404312:	c3                   	ret    
  404313:	66 2e 0f 1f 84 00 00 	cs nop WORD PTR [rax+rax*1+0x0]
  40431a:	00 00 00 
  40431d:	0f 1f 00             	nop    DWORD PTR [rax]

0000000000404320 <_ZN12intel_mlperf24_tile_dot_product_16x256ILi2ELi16ENS_9io_policyILi16ELNS_8i_formatE0EEEE7computeEPvmS5_S5_Pff>:
  404320:	55                   	push   rbp
  404321:	49 89 d1             	mov    r9,rdx
  404324:	48 89 e5             	mov    rbp,rsp
  404327:	41 57                	push   r15
  404329:	41 56                	push   r14
  40432b:	41 55                	push   r13
  40432d:	41 54                	push   r12
  40432f:	53                   	push   rbx
  404330:	48 83 e4 c0          	and    rsp,0xffffffffffffffc0
  404334:	48 81 ec 88 20 00 00 	sub    rsp,0x2088
  40433b:	48 89 7c 24 b8       	mov    QWORD PTR [rsp-0x48],rdi
  404340:	48 89 f7             	mov    rdi,rsi
  404343:	c4 e2 7b 49 c0       	tilezero tmm0
  404348:	c4 e2 7b 49 c8       	tilezero tmm1
  40434d:	c4 e2 7b 49 d0       	tilezero tmm2
  404352:	c4 e2 7b 49 d8       	tilezero tmm3
  404357:	ba 40 00 00 00       	mov    edx,0x40
  40435c:	c4 e2 7b 4b 34 11    	tileloadd tmm6,[rcx+rdx*1]
  404362:	be 00 04 00 00       	mov    esi,0x400
  404367:	c4 c2 7b 4b 24 31    	tileloadd tmm4,[r9+rsi*1]
  40436d:	4d 8d b9 00 40 00 00 	lea    r15,[r9+0x4000]
  404374:	c4 c2 7b 4b 2c 37    	tileloadd tmm5,[r15+rsi*1]
  40437a:	48 8d 81 00 40 00 00 	lea    rax,[rcx+0x4000]
  404381:	c4 e2 7b 4b 3c 10    	tileloadd tmm7,[rax+rdx*1]
  404387:	4d 8d 71 40          	lea    r14,[r9+0x40]
  40438b:	48 8d 81 00 04 00 00 	lea    rax,[rcx+0x400]
  404392:	c4 e2 7b 4b 34 10    	tileloadd tmm6,[rax+rdx*1]
  404398:	c4 c2 7b 4b 24 36    	tileloadd tmm4,[r14+rsi*1]
  40439e:	4d 8d a9 40 40 00 00 	lea    r13,[r9+0x4040]
  4043a5:	c4 c2 7b 4b 6c 35 00 	tileloadd tmm5,[r13+rsi*1+0x0]
  4043ac:	48 8d 81 00 44 00 00 	lea    rax,[rcx+0x4400]
  4043b3:	c4 e2 7b 4b 3c 10    	tileloadd tmm7,[rax+rdx*1]
  4043b9:	49 8d 81 80 00 00 00 	lea    rax,[r9+0x80]
  4043c0:	48 89 c3             	mov    rbx,rax
  4043c3:	48 8d 81 00 08 00 00 	lea    rax,[rcx+0x800]
  4043ca:	c4 e2 7b 4b 34 10    	tileloadd tmm6,[rax+rdx*1]
  4043d0:	48 89 9c 24 80 00 00 	mov    QWORD PTR [rsp+0x80],rbx
  4043d7:	00 
  4043d8:	c4 e2 7b 4b 24 33    	tileloadd tmm4,[rbx+rsi*1]
  4043de:	49 8d 81 80 40 00 00 	lea    rax,[r9+0x4080]
  4043e5:	48 89 44 24 78       	mov    QWORD PTR [rsp+0x78],rax
  4043ea:	c4 e2 7b 4b 2c 30    	tileloadd tmm5,[rax+rsi*1]
  4043f0:	48 8d 81 00 48 00 00 	lea    rax,[rcx+0x4800]
  4043f7:	c4 e2 7b 4b 3c 10    	tileloadd tmm7,[rax+rdx*1]
  4043fd:	49 8d 99 c0 00 00 00 	lea    rbx,[r9+0xc0]
  404404:	48 8d 81 00 0c 00 00 	lea    rax,[rcx+0xc00]
  40440b:	c4 e2 7b 4b 34 10    	tileloadd tmm6,[rax+rdx*1]
  404411:	48 89 5c 24 70       	mov    QWORD PTR [rsp+0x70],rbx
  404416:	c4 e2 7b 4b 24 33    	tileloadd tmm4,[rbx+rsi*1]
  40441c:	4d 8d 99 c0 40 00 00 	lea    r11,[r9+0x40c0]
  404423:	4c 89 5c 24 68       	mov    QWORD PTR [rsp+0x68],r11
  404428:	c4 c2 7b 4b 2c 33    	tileloadd tmm5,[r11+rsi*1]
  40442e:	48 8d 81 00 4c 00 00 	lea    rax,[rcx+0x4c00]
  404435:	c4 e2 7b 4b 3c 10    	tileloadd tmm7,[rax+rdx*1]
  40443b:	4d 8d 91 00 01 00 00 	lea    r10,[r9+0x100]
  404442:	48 8d 81 00 10 00 00 	lea    rax,[rcx+0x1000]
  404449:	c4 e2 7b 4b 34 10    	tileloadd tmm6,[rax+rdx*1]
  40444f:	4c 89 54 24 60       	mov    QWORD PTR [rsp+0x60],r10
  404454:	c4 c2 7b 4b 24 32    	tileloadd tmm4,[r10+rsi*1]
  40445a:	49 8d 81 00 41 00 00 	lea    rax,[r9+0x4100]
  404461:	48 89 44 24 58       	mov    QWORD PTR [rsp+0x58],rax
  404466:	c4 e2 7b 4b 2c 30    	tileloadd tmm5,[rax+rsi*1]
  40446c:	48 8d 81 00 50 00 00 	lea    rax,[rcx+0x5000]
  404473:	c4 e2 7b 4b 3c 10    	tileloadd tmm7,[rax+rdx*1]
  404479:	49 8d 99 40 01 00 00 	lea    rbx,[r9+0x140]
  404480:	48 8d 81 00 14 00 00 	lea    rax,[rcx+0x1400]
  404487:	c4 e2 7b 4b 34 10    	tileloadd tmm6,[rax+rdx*1]
  40448d:	48 89 5c 24 50       	mov    QWORD PTR [rsp+0x50],rbx
  404492:	c4 e2 7b 4b 24 33    	tileloadd tmm4,[rbx+rsi*1]
  404498:	4d 8d 99 40 41 00 00 	lea    r11,[r9+0x4140]
  40449f:	4c 89 5c 24 48       	mov    QWORD PTR [rsp+0x48],r11
  4044a4:	c4 c2 7b 4b 2c 33    	tileloadd tmm5,[r11+rsi*1]
  4044aa:	48 8d 81 00 54 00 00 	lea    rax,[rcx+0x5400]
  4044b1:	c4 e2 7b 4b 3c 10    	tileloadd tmm7,[rax+rdx*1]
  4044b7:	4d 8d 91 80 01 00 00 	lea    r10,[r9+0x180]
  4044be:	48 8d 81 00 18 00 00 	lea    rax,[rcx+0x1800]
  4044c5:	c4 e2 7b 4b 34 10    	tileloadd tmm6,[rax+rdx*1]
  4044cb:	4c 89 54 24 40       	mov    QWORD PTR [rsp+0x40],r10
  4044d0:	c4 c2 7b 4b 24 32    	tileloadd tmm4,[r10+rsi*1]
  4044d6:	49 8d 81 80 41 00 00 	lea    rax,[r9+0x4180]
  4044dd:	48 89 44 24 38       	mov    QWORD PTR [rsp+0x38],rax
  4044e2:	c4 e2 7b 4b 2c 30    	tileloadd tmm5,[rax+rsi*1]
  4044e8:	48 8d 81 00 58 00 00 	lea    rax,[rcx+0x5800]
  4044ef:	c4 e2 7b 4b 3c 10    	tileloadd tmm7,[rax+rdx*1]
  4044f5:	49 8d 99 c0 01 00 00 	lea    rbx,[r9+0x1c0]
  4044fc:	48 8d 81 00 1c 00 00 	lea    rax,[rcx+0x1c00]
  404503:	c4 e2 7b 4b 34 10    	tileloadd tmm6,[rax+rdx*1]
  404509:	48 89 5c 24 30       	mov    QWORD PTR [rsp+0x30],rbx
  40450e:	c4 e2 7b 4b 24 33    	tileloadd tmm4,[rbx+rsi*1]
  404514:	4d 8d 99 c0 41 00 00 	lea    r11,[r9+0x41c0]
  40451b:	4c 89 5c 24 28       	mov    QWORD PTR [rsp+0x28],r11
  404520:	c4 c2 7b 4b 2c 33    	tileloadd tmm5,[r11+rsi*1]
  404526:	48 8d 81 00 5c 00 00 	lea    rax,[rcx+0x5c00]
  40452d:	c4 e2 7b 4b 3c 10    	tileloadd tmm7,[rax+rdx*1]
  404533:	4d 8d 91 00 02 00 00 	lea    r10,[r9+0x200]
  40453a:	48 8d 81 00 20 00 00 	lea    rax,[rcx+0x2000]
  404541:	c4 e2 7b 4b 34 10    	tileloadd tmm6,[rax+rdx*1]
  404547:	4c 89 54 24 20       	mov    QWORD PTR [rsp+0x20],r10
  40454c:	c4 c2 7b 4b 24 32    	tileloadd tmm4,[r10+rsi*1]
  404552:	49 8d 81 00 42 00 00 	lea    rax,[r9+0x4200]
  404559:	48 89 44 24 18       	mov    QWORD PTR [rsp+0x18],rax
  40455e:	c4 e2 7b 4b 2c 30    	tileloadd tmm5,[rax+rsi*1]
  404564:	48 8d 81 00 60 00 00 	lea    rax,[rcx+0x6000]
  40456b:	c4 e2 7b 4b 3c 10    	tileloadd tmm7,[rax+rdx*1]
  404571:	49 8d 99 40 02 00 00 	lea    rbx,[r9+0x240]
  404578:	48 8d 81 00 24 00 00 	lea    rax,[rcx+0x2400]
  40457f:	c4 e2 7b 4b 34 10    	tileloadd tmm6,[rax+rdx*1]
  404585:	48 89 5c 24 10       	mov    QWORD PTR [rsp+0x10],rbx
  40458a:	c4 e2 7b 4b 24 33    	tileloadd tmm4,[rbx+rsi*1]
  404590:	4d 8d 99 40 42 00 00 	lea    r11,[r9+0x4240]
  404597:	4c 89 5c 24 08       	mov    QWORD PTR [rsp+0x8],r11
  40459c:	c4 c2 7b 4b 2c 33    	tileloadd tmm5,[r11+rsi*1]
  4045a2:	48 8d 81 00 64 00 00 	lea    rax,[rcx+0x6400]
  4045a9:	c4 e2 7b 4b 3c 10    	tileloadd tmm7,[rax+rdx*1]
  4045af:	4d 8d 91 80 02 00 00 	lea    r10,[r9+0x280]
  4045b6:	48 8d 81 00 28 00 00 	lea    rax,[rcx+0x2800]
  4045bd:	c4 e2 7b 4b 34 10    	tileloadd tmm6,[rax+rdx*1]
  4045c3:	4c 89 14 24          	mov    QWORD PTR [rsp],r10
  4045c7:	c4 c2 7b 4b 24 32    	tileloadd tmm4,[r10+rsi*1]
  4045cd:	49 8d 81 80 42 00 00 	lea    rax,[r9+0x4280]
  4045d4:	48 89 44 24 f8       	mov    QWORD PTR [rsp-0x8],rax
  4045d9:	c4 e2 7b 4b 2c 30    	tileloadd tmm5,[rax+rsi*1]
  4045df:	48 8d 81 00 68 00 00 	lea    rax,[rcx+0x6800]
  4045e6:	c4 e2 7b 4b 3c 10    	tileloadd tmm7,[rax+rdx*1]
  4045ec:	49 8d 99 c0 02 00 00 	lea    rbx,[r9+0x2c0]
  4045f3:	48 8d 81 00 2c 00 00 	lea    rax,[rcx+0x2c00]
  4045fa:	c4 e2 7b 4b 34 10    	tileloadd tmm6,[rax+rdx*1]
  404600:	48 89 5c 24 f0       	mov    QWORD PTR [rsp-0x10],rbx
  404605:	c4 e2 7b 4b 24 33    	tileloadd tmm4,[rbx+rsi*1]
  40460b:	4d 8d 99 c0 42 00 00 	lea    r11,[r9+0x42c0]
  404612:	4c 89 5c 24 e8       	mov    QWORD PTR [rsp-0x18],r11
  404617:	c4 c2 7b 4b 2c 33    	tileloadd tmm5,[r11+rsi*1]
  40461d:	48 8d 81 00 6c 00 00 	lea    rax,[rcx+0x6c00]
  404624:	c4 e2 7b 4b 3c 10    	tileloadd tmm7,[rax+rdx*1]
  40462a:	4d 8d 91 00 03 00 00 	lea    r10,[r9+0x300]
  404631:	48 8d 81 00 30 00 00 	lea    rax,[rcx+0x3000]
  404638:	c4 e2 7b 4b 34 10    	tileloadd tmm6,[rax+rdx*1]
  40463e:	4c 89 54 24 e0       	mov    QWORD PTR [rsp-0x20],r10
  404643:	c4 c2 7b 4b 24 32    	tileloadd tmm4,[r10+rsi*1]
  404649:	49 8d 81 00 43 00 00 	lea    rax,[r9+0x4300]
  404650:	48 89 44 24 d8       	mov    QWORD PTR [rsp-0x28],rax
  404655:	c4 e2 7b 4b 2c 30    	tileloadd tmm5,[rax+rsi*1]
  40465b:	48 8d 81 00 70 00 00 	lea    rax,[rcx+0x7000]
  404662:	c4 e2 7b 4b 3c 10    	tileloadd tmm7,[rax+rdx*1]
  404668:	49 8d 99 40 03 00 00 	lea    rbx,[r9+0x340]
  40466f:	48 8d 81 00 34 00 00 	lea    rax,[rcx+0x3400]
  404676:	c4 e2 7b 4b 34 10    	tileloadd tmm6,[rax+rdx*1]
  40467c:	48 89 5c 24 d0       	mov    QWORD PTR [rsp-0x30],rbx
  404681:	c4 e2 7b 4b 24 33    	tileloadd tmm4,[rbx+rsi*1]
  404687:	4d 8d 99 40 43 00 00 	lea    r11,[r9+0x4340]
  40468e:	4c 89 5c 24 c8       	mov    QWORD PTR [rsp-0x38],r11
  404693:	c4 c2 7b 4b 2c 33    	tileloadd tmm5,[r11+rsi*1]
  404699:	48 8d 81 00 74 00 00 	lea    rax,[rcx+0x7400]
  4046a0:	c4 e2 7b 4b 3c 10    	tileloadd tmm7,[rax+rdx*1]
  4046a6:	4d 8d 91 80 03 00 00 	lea    r10,[r9+0x380]
  4046ad:	48 8d 81 00 38 00 00 	lea    rax,[rcx+0x3800]
  4046b4:	c4 e2 7b 4b 34 10    	tileloadd tmm6,[rax+rdx*1]
  4046ba:	4c 89 54 24 c0       	mov    QWORD PTR [rsp-0x40],r10
  4046bf:	c4 c2 7b 4b 24 32    	tileloadd tmm4,[r10+rsi*1]
  4046c5:	49 8d 99 80 43 00 00 	lea    rbx,[r9+0x4380]
  4046cc:	c4 e2 7b 4b 2c 33    	tileloadd tmm5,[rbx+rsi*1]
  4046d2:	48 8d 81 00 78 00 00 	lea    rax,[rcx+0x7800]
  4046d9:	c4 e2 7b 4b 3c 10    	tileloadd tmm7,[rax+rdx*1]
  4046df:	4d 8d 99 c0 03 00 00 	lea    r11,[r9+0x3c0]
  4046e6:	48 8d 81 00 3c 00 00 	lea    rax,[rcx+0x3c00]
  4046ed:	c4 e2 7b 4b 34 10    	tileloadd tmm6,[rax+rdx*1]
  4046f3:	c4 c2 7b 4b 24 33    	tileloadd tmm4,[r11+rsi*1]
  4046f9:	4d 8d 91 c0 43 00 00 	lea    r10,[r9+0x43c0]
  404700:	c4 c2 7b 4b 2c 32    	tileloadd tmm5,[r10+rsi*1]
  404706:	48 8d 81 00 7c 00 00 	lea    rax,[rcx+0x7c00]
  40470d:	c4 e2 7b 4b 3c 10    	tileloadd tmm7,[rax+rdx*1]
  404713:	48 8d 84 24 88 00 00 	lea    rax,[rsp+0x88]
  40471a:	00 
  40471b:	c4 e2 7a 4b 04 10    	tilestored [rax+rdx*1],tmm0
  404721:	4c 8d a4 24 88 04 00 	lea    r12,[rsp+0x488]
  404728:	00 
  404729:	c4 c2 7a 4b 0c 14    	tilestored [r12+rdx*1],tmm1
  40472f:	4c 8d a4 24 88 08 00 	lea    r12,[rsp+0x888]
  404736:	00 
  404737:	c4 c2 7a 4b 14 14    	tilestored [r12+rdx*1],tmm2
  40473d:	4c 8d a4 24 88 0c 00 	lea    r12,[rsp+0xc88]
  404744:	00 
  404745:	c4 c2 7a 4b 1c 14    	tilestored [r12+rdx*1],tmm3
  40474b:	c4 e2 7b 49 c0       	tilezero tmm0
  404750:	c4 e2 7b 49 c8       	tilezero tmm1
  404755:	c4 e2 7b 49 d0       	tilezero tmm2
  40475a:	c4 e2 7b 49 d8       	tilezero tmm3
  40475f:	4c 8d a1 00 80 00 00 	lea    r12,[rcx+0x8000]
  404766:	c4 c2 7b 4b 34 14    	tileloadd tmm6,[r12+rdx*1]
  40476c:	c4 c2 7b 4b 24 31    	tileloadd tmm4,[r9+rsi*1]
  404772:	c4 c2 7b 4b 2c 37    	tileloadd tmm5,[r15+rsi*1]
  404778:	4c 8d 89 00 c0 00 00 	lea    r9,[rcx+0xc000]
  40477f:	c4 c2 7b 4b 3c 11    	tileloadd tmm7,[r9+rdx*1]
  404785:	4c 8d 89 00 84 00 00 	lea    r9,[rcx+0x8400]
  40478c:	c4 c2 7b 4b 34 11    	tileloadd tmm6,[r9+rdx*1]
  404792:	c4 c2 7b 4b 24 36    	tileloadd tmm4,[r14+rsi*1]
  404798:	c4 c2 7b 4b 6c 35 00 	tileloadd tmm5,[r13+rsi*1+0x0]
  40479f:	4c 8d 89 00 c4 00 00 	lea    r9,[rcx+0xc400]
  4047a6:	c4 c2 7b 4b 3c 11    	tileloadd tmm7,[r9+rdx*1]
  4047ac:	4c 8d 89 00 88 00 00 	lea    r9,[rcx+0x8800]
  4047b3:	c4 c2 7b 4b 34 11    	tileloadd tmm6,[r9+rdx*1]
  4047b9:	4c 8b b4 24 80 00 00 	mov    r14,QWORD PTR [rsp+0x80]
  4047c0:	00 
  4047c1:	c4 c2 7b 4b 24 36    	tileloadd tmm4,[r14+rsi*1]
  4047c7:	4c 8b 74 24 78       	mov    r14,QWORD PTR [rsp+0x78]
  4047cc:	c4 c2 7b 4b 2c 36    	tileloadd tmm5,[r14+rsi*1]
  4047d2:	4c 8d 89 00 c8 00 00 	lea    r9,[rcx+0xc800]
  4047d9:	c4 c2 7b 4b 3c 11    	tileloadd tmm7,[r9+rdx*1]
  4047df:	4c 8d 89 00 8c 00 00 	lea    r9,[rcx+0x8c00]
  4047e6:	c4 c2 7b 4b 34 11    	tileloadd tmm6,[r9+rdx*1]
  4047ec:	4c 8b 7c 24 70       	mov    r15,QWORD PTR [rsp+0x70]
  4047f1:	c4 c2 7b 4b 24 37    	tileloadd tmm4,[r15+rsi*1]
  4047f7:	4c 8b 74 24 68       	mov    r14,QWORD PTR [rsp+0x68]
  4047fc:	c4 c2 7b 4b 2c 36    	tileloadd tmm5,[r14+rsi*1]
  404802:	4c 8d 89 00 cc 00 00 	lea    r9,[rcx+0xcc00]
  404809:	c4 c2 7b 4b 3c 11    	tileloadd tmm7,[r9+rdx*1]
  40480f:	4c 8d 89 00 90 00 00 	lea    r9,[rcx+0x9000]
  404816:	c4 c2 7b 4b 34 11    	tileloadd tmm6,[r9+rdx*1]
  40481c:	4c 8b 7c 24 60       	mov    r15,QWORD PTR [rsp+0x60]
  404821:	c4 c2 7b 4b 24 37    	tileloadd tmm4,[r15+rsi*1]
  404827:	4c 8b 74 24 58       	mov    r14,QWORD PTR [rsp+0x58]
  40482c:	c4 c2 7b 4b 2c 36    	tileloadd tmm5,[r14+rsi*1]
  404832:	4c 8d 89 00 d0 00 00 	lea    r9,[rcx+0xd000]
  404839:	c4 c2 7b 4b 3c 11    	tileloadd tmm7,[r9+rdx*1]
  40483f:	4c 8d 89 00 94 00 00 	lea    r9,[rcx+0x9400]
  404846:	c4 c2 7b 4b 34 11    	tileloadd tmm6,[r9+rdx*1]
  40484c:	4c 8b 7c 24 50       	mov    r15,QWORD PTR [rsp+0x50]
  404851:	c4 c2 7b 4b 24 37    	tileloadd tmm4,[r15+rsi*1]
  404857:	4c 8b 74 24 48       	mov    r14,QWORD PTR [rsp+0x48]
  40485c:	c4 c2 7b 4b 2c 36    	tileloadd tmm5,[r14+rsi*1]
  404862:	4c 8d 89 00 d4 00 00 	lea    r9,[rcx+0xd400]
  404869:	c4 c2 7b 4b 3c 11    	tileloadd tmm7,[r9+rdx*1]
  40486f:	4c 8d 89 00 98 00 00 	lea    r9,[rcx+0x9800]
  404876:	c4 c2 7b 4b 34 11    	tileloadd tmm6,[r9+rdx*1]
  40487c:	4c 8b 7c 24 40       	mov    r15,QWORD PTR [rsp+0x40]
  404881:	c4 c2 7b 4b 24 37    	tileloadd tmm4,[r15+rsi*1]
  404887:	4c 8b 74 24 38       	mov    r14,QWORD PTR [rsp+0x38]
  40488c:	c4 c2 7b 4b 2c 36    	tileloadd tmm5,[r14+rsi*1]
  404892:	4c 8d 89 00 d8 00 00 	lea    r9,[rcx+0xd800]
  404899:	c4 c2 7b 4b 3c 11    	tileloadd tmm7,[r9+rdx*1]
  40489f:	4c 8d 89 00 9c 00 00 	lea    r9,[rcx+0x9c00]
  4048a6:	c4 c2 7b 4b 34 11    	tileloadd tmm6,[r9+rdx*1]
  4048ac:	4c 8b 7c 24 30       	mov    r15,QWORD PTR [rsp+0x30]
  4048b1:	c4 c2 7b 4b 24 37    	tileloadd tmm4,[r15+rsi*1]
  4048b7:	4c 8b 74 24 28       	mov    r14,QWORD PTR [rsp+0x28]
  4048bc:	c4 c2 7b 4b 2c 36    	tileloadd tmm5,[r14+rsi*1]
  4048c2:	4c 8d 89 00 dc 00 00 	lea    r9,[rcx+0xdc00]
  4048c9:	c4 c2 7b 4b 3c 11    	tileloadd tmm7,[r9+rdx*1]
  4048cf:	4c 8d 89 00 a0 00 00 	lea    r9,[rcx+0xa000]
  4048d6:	c4 c2 7b 4b 34 11    	tileloadd tmm6,[r9+rdx*1]
  4048dc:	4c 8b 7c 24 20       	mov    r15,QWORD PTR [rsp+0x20]
  4048e1:	c4 c2 7b 4b 24 37    	tileloadd tmm4,[r15+rsi*1]
  4048e7:	4c 8b 74 24 18       	mov    r14,QWORD PTR [rsp+0x18]
  4048ec:	c4 c2 7b 4b 2c 36    	tileloadd tmm5,[r14+rsi*1]
  4048f2:	4c 8d 89 00 e0 00 00 	lea    r9,[rcx+0xe000]
  4048f9:	c4 c2 7b 4b 3c 11    	tileloadd tmm7,[r9+rdx*1]
  4048ff:	4c 8d 89 00 a4 00 00 	lea    r9,[rcx+0xa400]
  404906:	c4 c2 7b 4b 34 11    	tileloadd tmm6,[r9+rdx*1]
  40490c:	4c 8b 7c 24 10       	mov    r15,QWORD PTR [rsp+0x10]
  404911:	c4 c2 7b 4b 24 37    	tileloadd tmm4,[r15+rsi*1]
  404917:	4c 8b 74 24 08       	mov    r14,QWORD PTR [rsp+0x8]
  40491c:	c4 c2 7b 4b 2c 36    	tileloadd tmm5,[r14+rsi*1]
  404922:	4c 8d 89 00 e4 00 00 	lea    r9,[rcx+0xe400]
  404929:	c4 c2 7b 4b 3c 11    	tileloadd tmm7,[r9+rdx*1]
  40492f:	4c 8d 89 00 a8 00 00 	lea    r9,[rcx+0xa800]
  404936:	c4 c2 7b 4b 34 11    	tileloadd tmm6,[r9+rdx*1]
  40493c:	4c 8b 3c 24          	mov    r15,QWORD PTR [rsp]
  404940:	c4 c2 7b 4b 24 37    	tileloadd tmm4,[r15+rsi*1]
  404946:	4c 8b 74 24 f8       	mov    r14,QWORD PTR [rsp-0x8]
  40494b:	c4 c2 7b 4b 2c 36    	tileloadd tmm5,[r14+rsi*1]
  404951:	4c 8d 89 00 e8 00 00 	lea    r9,[rcx+0xe800]
  404958:	c4 c2 7b 4b 3c 11    	tileloadd tmm7,[r9+rdx*1]
  40495e:	4c 8d 89 00 ac 00 00 	lea    r9,[rcx+0xac00]
  404965:	c4 c2 7b 4b 34 11    	tileloadd tmm6,[r9+rdx*1]
  40496b:	4c 8b 7c 24 f0       	mov    r15,QWORD PTR [rsp-0x10]
  404970:	c4 c2 7b 4b 24 37    	tileloadd tmm4,[r15+rsi*1]
  404976:	4c 8b 74 24 e8       	mov    r14,QWORD PTR [rsp-0x18]
  40497b:	c4 c2 7b 4b 2c 36    	tileloadd tmm5,[r14+rsi*1]
  404981:	4c 8d 89 00 ec 00 00 	lea    r9,[rcx+0xec00]
  404988:	c4 c2 7b 4b 3c 11    	tileloadd tmm7,[r9+rdx*1]
  40498e:	4c 8d 89 00 b0 00 00 	lea    r9,[rcx+0xb000]
  404995:	c4 c2 7b 4b 34 11    	tileloadd tmm6,[r9+rdx*1]
  40499b:	4c 8b 7c 24 e0       	mov    r15,QWORD PTR [rsp-0x20]
  4049a0:	c4 c2 7b 4b 24 37    	tileloadd tmm4,[r15+rsi*1]
  4049a6:	4c 8b 74 24 d8       	mov    r14,QWORD PTR [rsp-0x28]
  4049ab:	c4 c2 7b 4b 2c 36    	tileloadd tmm5,[r14+rsi*1]
  4049b1:	4c 8d 89 00 f0 00 00 	lea    r9,[rcx+0xf000]
  4049b8:	c4 c2 7b 4b 3c 11    	tileloadd tmm7,[r9+rdx*1]
  4049be:	4c 8d 89 00 b4 00 00 	lea    r9,[rcx+0xb400]
  4049c5:	c4 c2 7b 4b 34 11    	tileloadd tmm6,[r9+rdx*1]
  4049cb:	4c 8b 7c 24 d0       	mov    r15,QWORD PTR [rsp-0x30]
  4049d0:	c4 c2 7b 4b 24 37    	tileloadd tmm4,[r15+rsi*1]
  4049d6:	4c 8b 74 24 c8       	mov    r14,QWORD PTR [rsp-0x38]
  4049db:	c4 c2 7b 4b 2c 36    	tileloadd tmm5,[r14+rsi*1]
  4049e1:	4c 8d 89 00 f4 00 00 	lea    r9,[rcx+0xf400]
  4049e8:	c4 c2 7b 4b 3c 11    	tileloadd tmm7,[r9+rdx*1]
  4049ee:	4c 8d 89 00 b8 00 00 	lea    r9,[rcx+0xb800]
  4049f5:	c4 c2 7b 4b 34 11    	tileloadd tmm6,[r9+rdx*1]
  4049fb:	4c 8b 7c 24 c0       	mov    r15,QWORD PTR [rsp-0x40]
  404a00:	c4 c2 7b 4b 24 37    	tileloadd tmm4,[r15+rsi*1]
  404a06:	c4 e2 7b 4b 2c 33    	tileloadd tmm5,[rbx+rsi*1]
  404a0c:	4c 8d 89 00 f8 00 00 	lea    r9,[rcx+0xf800]
  404a13:	c4 c2 7b 4b 3c 11    	tileloadd tmm7,[r9+rdx*1]
  404a19:	4c 8d 89 00 bc 00 00 	lea    r9,[rcx+0xbc00]
  404a20:	c4 c2 7b 4b 34 11    	tileloadd tmm6,[r9+rdx*1]
  404a26:	c4 c2 7b 4b 24 33    	tileloadd tmm4,[r11+rsi*1]
  404a2c:	c4 c2 7b 4b 2c 32    	tileloadd tmm5,[r10+rsi*1]
  404a32:	48 81 c1 00 fc 00 00 	add    rcx,0xfc00
  404a39:	c4 e2 7b 4b 3c 11    	tileloadd tmm7,[rcx+rdx*1]
  404a3f:	4c 8d 8c 24 88 10 00 	lea    r9,[rsp+0x1088]
  404a46:	00 
  404a47:	c4 c2 7a 4b 04 11    	tilestored [r9+rdx*1],tmm0
  404a4d:	48 8d 8c 24 88 14 00 	lea    rcx,[rsp+0x1488]
  404a54:	00 
  404a55:	c4 e2 7a 4b 0c 11    	tilestored [rcx+rdx*1],tmm1
  404a5b:	48 8d 8c 24 88 18 00 	lea    rcx,[rsp+0x1888]
  404a62:	00 
  404a63:	c4 e2 7a 4b 14 11    	tilestored [rcx+rdx*1],tmm2
  404a69:	48 8d 8c 24 88 1c 00 	lea    rcx,[rsp+0x1c88]
  404a70:	00 
  404a71:	c4 e2 7a 4b 1c 11    	tilestored [rcx+rdx*1],tmm3
  404a77:	62 f2 7d 48 18 35 5f 	vbroadcastss zmm6,DWORD PTR [rip+0x675f]        # 40b1e0 <__dso_handle+0x1d8>
  404a7e:	67 00 00 
  404a81:	62 51 7c 48 10 10    	vmovups zmm10,ZMMWORD PTR [r8]
  404a87:	62 51 7c 48 10 48 01 	vmovups zmm9,ZMMWORD PTR [r8+0x40]
  404a8e:	62 51 7c 48 10 40 02 	vmovups zmm8,ZMMWORD PTR [r8+0x80]
  404a95:	62 d1 7c 48 10 78 03 	vmovups zmm7,ZMMWORD PTR [r8+0xc0]
  404a9c:	49 89 fa             	mov    r10,rdi
  404a9f:	4c 8b 44 24 b8       	mov    r8,QWORD PTR [rsp-0x48]
  404aa4:	62 f2 7d 48 18 2d 36 	vbroadcastss zmm5,DWORD PTR [rip+0x6736]        # 40b1e4 <__dso_handle+0x1dc>
  404aab:	67 00 00 
  404aae:	62 f2 7d 48 18 c0    	vbroadcastss zmm0,xmm0
  404ab4:	49 c1 e2 04          	shl    r10,0x4
  404ab8:	4c 89 ce             	mov    rsi,r9
  404abb:	4c 89 c1             	mov    rcx,r8
  404abe:	31 d2                	xor    edx,edx
  404ac0:	62 f1 7c 48 5b 24 10 	vcvtdq2ps zmm4,ZMMWORD PTR [rax+rdx*1]
  404ac7:	62 f1 7c 48 5b 5c 02 	vcvtdq2ps zmm3,ZMMWORD PTR [rdx+rax*1+0x400]
  404ace:	10 
  404acf:	62 f1 7c 48 5b 14 16 	vcvtdq2ps zmm2,ZMMWORD PTR [rsi+rdx*1]
  404ad6:	62 f1 7c 48 5b 4c 32 	vcvtdq2ps zmm1,ZMMWORD PTR [rdx+rsi*1+0x400]
  404add:	10 
  404ade:	62 f1 2c 48 58 e4    	vaddps zmm4,zmm10,zmm4
  404ae4:	62 f1 34 48 58 db    	vaddps zmm3,zmm9,zmm3
  404aea:	62 f1 3c 48 58 d2    	vaddps zmm2,zmm8,zmm2
  404af0:	62 f1 44 48 58 c9    	vaddps zmm1,zmm7,zmm1
  404af6:	62 f1 5c 48 59 e0    	vmulps zmm4,zmm4,zmm0
  404afc:	62 f1 64 48 59 d8    	vmulps zmm3,zmm3,zmm0
  404b02:	62 f1 6c 48 59 d0    	vmulps zmm2,zmm2,zmm0
  404b08:	62 f1 74 48 59 c8    	vmulps zmm1,zmm1,zmm0
  404b0e:	48 83 c2 40          	add    rdx,0x40
  404b12:	62 f3 7d 48 08 e4 00 	vrndscaleps zmm4,zmm4,0x0
  404b19:	62 f3 7d 48 08 db 00 	vrndscaleps zmm3,zmm3,0x0
  404b20:	62 f3 7d 48 08 d2 00 	vrndscaleps zmm2,zmm2,0x0
  404b27:	62 f3 7d 48 08 c9 00 	vrndscaleps zmm1,zmm1,0x0
  404b2e:	62 f1 5c 48 5d e6    	vminps zmm4,zmm4,zmm6
  404b34:	62 f1 64 48 5d de    	vminps zmm3,zmm3,zmm6
  404b3a:	62 f1 6c 48 5d d6    	vminps zmm2,zmm2,zmm6
  404b40:	62 f1 74 48 5d ce    	vminps zmm1,zmm1,zmm6
  404b46:	62 f1 5c 48 5f e5    	vmaxps zmm4,zmm4,zmm5
  404b4c:	62 f1 64 48 5f dd    	vmaxps zmm3,zmm3,zmm5
  404b52:	62 f1 6c 48 5f d5    	vmaxps zmm2,zmm2,zmm5
  404b58:	62 f1 74 48 5f cd    	vmaxps zmm1,zmm1,zmm5
  404b5e:	62 f1 7d 48 5b e4    	vcvtps2dq zmm4,zmm4
  404b64:	62 f1 7d 48 5b db    	vcvtps2dq zmm3,zmm3
  404b6a:	62 f2 7e 48 31 21    	vpmovdb XMMWORD PTR [rcx],zmm4
  404b70:	62 f2 7e 48 31 59 01 	vpmovdb XMMWORD PTR [rcx+0x10],zmm3
  404b77:	62 f1 7d 48 5b d2    	vcvtps2dq zmm2,zmm2
  404b7d:	62 f1 7d 48 5b c9    	vcvtps2dq zmm1,zmm1
  404b83:	62 f2 7e 48 31 51 02 	vpmovdb XMMWORD PTR [rcx+0x20],zmm2
  404b8a:	62 f2 7e 48 31 49 03 	vpmovdb XMMWORD PTR [rcx+0x30],zmm1
  404b91:	48 01 f9             	add    rcx,rdi
  404b94:	48 81 fa 00 04 00 00 	cmp    rdx,0x400
  404b9b:	0f 85 1f ff ff ff    	jne    404ac0 <_ZN12intel_mlperf24_tile_dot_product_16x256ILi2ELi16ENS_9io_policyILi16ELNS_8i_formatE0EEEE7computeEPvmS5_S5_Pff+0x7a0>
  404ba1:	48 05 00 08 00 00    	add    rax,0x800
  404ba7:	4d 01 d0             	add    r8,r10
  404baa:	48 81 c6 00 08 00 00 	add    rsi,0x800
  404bb1:	4c 39 c8             	cmp    rax,r9
  404bb4:	0f 85 01 ff ff ff    	jne    404abb <_ZN12intel_mlperf24_tile_dot_product_16x256ILi2ELi16ENS_9io_policyILi16ELNS_8i_formatE0EEEE7computeEPvmS5_S5_Pff+0x79b>
  404bba:	c5 f8 77             	vzeroupper 
  404bbd:	48 8d 65 d8          	lea    rsp,[rbp-0x28]
  404bc1:	5b                   	pop    rbx
  404bc2:	41 5c                	pop    r12
  404bc4:	41 5d                	pop    r13
  404bc6:	41 5e                	pop    r14
  404bc8:	41 5f                	pop    r15
  404bca:	5d                   	pop    rbp
  404bcb:	c3                   	ret    
  404bcc:	0f 1f 40 00          	nop    DWORD PTR [rax+0x0]

0000000000404bd0 <_ZN12intel_mlperf24_tile_dot_product_16x256ILi1ELi16ENS_9io_policyILi16ELNS_8i_formatE0EEEE7computeEPvmS5_S5_Pff>:
  404bd0:	55                   	push   rbp
  404bd1:	48 89 e5             	mov    rbp,rsp
  404bd4:	41 57                	push   r15
  404bd6:	41 56                	push   r14
  404bd8:	41 55                	push   r13
  404bda:	41 54                	push   r12
  404bdc:	53                   	push   rbx
  404bdd:	48 83 e4 c0          	and    rsp,0xffffffffffffffc0
  404be1:	48 81 ec 08 10 00 00 	sub    rsp,0x1008
  404be8:	48 89 7c 24 c0       	mov    QWORD PTR [rsp-0x40],rdi
  404bed:	48 89 74 24 b8       	mov    QWORD PTR [rsp-0x48],rsi
  404bf2:	48 89 d7             	mov    rdi,rdx
  404bf5:	c4 e2 7b 49 c0       	tilezero tmm0
  404bfa:	c4 e2 7b 49 c8       	tilezero tmm1
  404bff:	ba 40 00 00 00       	mov    edx,0x40
  404c04:	c4 e2 7b 4b 34 11    	tileloadd tmm6,[rcx+rdx*1]
  404c0a:	be 00 04 00 00       	mov    esi,0x400
  404c0f:	c4 e2 7b 4b 24 37    	tileloadd tmm4,[rdi+rsi*1]
  404c15:	c4 e2 4b 5e c4       	tdpbssd tmm0,tmm4,tmm6
  404c1a:	48 8d 81 00 40 00 00 	lea    rax,[rcx+0x4000]
  404c21:	c4 e2 7b 4b 3c 10    	tileloadd tmm7,[rax+rdx*1]
  404c27:	c4 e2 43 5e cc       	tdpbssd tmm1,tmm4,tmm7
  404c2c:	4c 8d 7f 40          	lea    r15,[rdi+0x40]
  404c30:	48 8d 81 00 04 00 00 	lea    rax,[rcx+0x400]
  404c37:	c4 e2 7b 4b 34 10    	tileloadd tmm6,[rax+rdx*1]
  404c3d:	c4 c2 7b 4b 24 37    	tileloadd tmm4,[r15+rsi*1]
  404c43:	c4 e2 4b 5e c4       	tdpbssd tmm0,tmm4,tmm6
  404c48:	48 8d 81 00 44 00 00 	lea    rax,[rcx+0x4400]
  404c4f:	c4 e2 7b 4b 3c 10    	tileloadd tmm7,[rax+rdx*1]
  404c55:	c4 e2 43 5e cc       	tdpbssd tmm1,tmm4,tmm7
  404c5a:	4c 8d b7 80 00 00 00 	lea    r14,[rdi+0x80]
  404c61:	48 8d 81 00 08 00 00 	lea    rax,[rcx+0x800]
  404c68:	c4 e2 7b 4b 34 10    	tileloadd tmm6,[rax+rdx*1]
  404c6e:	c4 c2 7b 4b 24 36    	tileloadd tmm4,[r14+rsi*1]
  404c74:	c4 e2 4b 5e c4       	tdpbssd tmm0,tmm4,tmm6
  404c79:	48 8d 81 00 48 00 00 	lea    rax,[rcx+0x4800]
  404c80:	c4 e2 7b 4b 3c 10    	tileloadd tmm7,[rax+rdx*1]
  404c86:	c4 e2 43 5e cc       	tdpbssd tmm1,tmm4,tmm7
  404c8b:	4c 8d af c0 00 00 00 	lea    r13,[rdi+0xc0]
  404c92:	48 8d 81 00 0c 00 00 	lea    rax,[rcx+0xc00]
  404c99:	c4 e2 7b 4b 34 10    	tileloadd tmm6,[rax+rdx*1]
  404c9f:	c4 c2 7b 4b 64 35 00 	tileloadd tmm4,[r13+rsi*1+0x0]
  404ca6:	c4 e2 4b 5e c4       	tdpbssd tmm0,tmm4,tmm6
  404cab:	48 8d 81 00 4c 00 00 	lea    rax,[rcx+0x4c00]
  404cb2:	c4 e2 7b 4b 3c 10    	tileloadd tmm7,[rax+rdx*1]
  404cb8:	c4 e2 43 5e cc       	tdpbssd tmm1,tmm4,tmm7
  404cbd:	48 8d 87 00 01 00 00 	lea    rax,[rdi+0x100]
  404cc4:	48 89 c3             	mov    rbx,rax
  404cc7:	48 8d 81 00 10 00 00 	lea    rax,[rcx+0x1000]
  404cce:	c4 e2 7b 4b 34 10    	tileloadd tmm6,[rax+rdx*1]
  404cd4:	48 89 1c 24          	mov    QWORD PTR [rsp],rbx
  404cd8:	c4 e2 7b 4b 24 33    	tileloadd tmm4,[rbx+rsi*1]
  404cde:	c4 e2 4b 5e c4       	tdpbssd tmm0,tmm4,tmm6
  404ce3:	48 8d 81 00 50 00 00 	lea    rax,[rcx+0x5000]
  404cea:	c4 e2 7b 4b 3c 10    	tileloadd tmm7,[rax+rdx*1]
  404cf0:	c4 e2 43 5e cc       	tdpbssd tmm1,tmm4,tmm7
  404cf5:	48 8d 9f 40 01 00 00 	lea    rbx,[rdi+0x140]
  404cfc:	48 8d 81 00 14 00 00 	lea    rax,[rcx+0x1400]
  404d03:	c4 e2 7b 4b 34 10    	tileloadd tmm6,[rax+rdx*1]
  404d09:	48 89 5c 24 f8       	mov    QWORD PTR [rsp-0x8],rbx
  404d0e:	c4 e2 7b 4b 24 33    	tileloadd tmm4,[rbx+rsi*1]
  404d14:	c4 e2 4b 5e c4       	tdpbssd tmm0,tmm4,tmm6
  404d19:	48 8d 81 00 54 00 00 	lea    rax,[rcx+0x5400]
  404d20:	c4 e2 7b 4b 3c 10    	tileloadd tmm7,[rax+rdx*1]
  404d26:	c4 e2 43 5e cc       	tdpbssd tmm1,tmm4,tmm7
  404d2b:	4c 8d 97 80 01 00 00 	lea    r10,[rdi+0x180]
  404d32:	48 8d 81 00 18 00 00 	lea    rax,[rcx+0x1800]
  404d39:	c4 e2 7b 4b 34 10    	tileloadd tmm6,[rax+rdx*1]
  404d3f:	4c 89 54 24 f0       	mov    QWORD PTR [rsp-0x10],r10
  404d44:	c4 c2 7b 4b 24 32    	tileloadd tmm4,[r10+rsi*1]
  404d4a:	c4 e2 4b 5e c4       	tdpbssd tmm0,tmm4,tmm6
  404d4f:	48 8d 81 00 58 00 00 	lea    rax,[rcx+0x5800]
  404d56:	c4 e2 7b 4b 3c 10    	tileloadd tmm7,[rax+rdx*1]
  404d5c:	c4 e2 43 5e cc       	tdpbssd tmm1,tmm4,tmm7
  404d61:	4c 8d 9f c0 01 00 00 	lea    r11,[rdi+0x1c0]
  404d68:	48 8d 81 00 1c 00 00 	lea    rax,[rcx+0x1c00]
  404d6f:	c4 e2 7b 4b 34 10    	tileloadd tmm6,[rax+rdx*1]
  404d75:	4c 89 5c 24 e8       	mov    QWORD PTR [rsp-0x18],r11
  404d7a:	c4 c2 7b 4b 24 33    	tileloadd tmm4,[r11+rsi*1]
  404d80:	c4 e2 4b 5e c4       	tdpbssd tmm0,tmm4,tmm6
  404d85:	48 8d 81 00 5c 00 00 	lea    rax,[rcx+0x5c00]
  404d8c:	c4 e2 7b 4b 3c 10    	tileloadd tmm7,[rax+rdx*1]
  404d92:	c4 e2 43 5e cc       	tdpbssd tmm1,tmm4,tmm7
  404d97:	4c 8d a7 00 02 00 00 	lea    r12,[rdi+0x200]
  404d9e:	48 8d 81 00 20 00 00 	lea    rax,[rcx+0x2000]
  404da5:	c4 e2 7b 4b 34 10    	tileloadd tmm6,[rax+rdx*1]
  404dab:	4c 89 64 24 e0       	mov    QWORD PTR [rsp-0x20],r12
  404db0:	c4 c2 7b 4b 24 34    	tileloadd tmm4,[r12+rsi*1]
  404db6:	c4 e2 4b 5e c4       	tdpbssd tmm0,tmm4,tmm6
  404dbb:	48 8d 81 00 60 00 00 	lea    rax,[rcx+0x6000]
  404dc2:	c4 e2 7b 4b 3c 10    	tileloadd tmm7,[rax+rdx*1]
  404dc8:	c4 e2 43 5e cc       	tdpbssd tmm1,tmm4,tmm7
  404dcd:	48 8d 87 40 02 00 00 	lea    rax,[rdi+0x240]
  404dd4:	48 89 c3             	mov    rbx,rax
  404dd7:	48 8d 81 00 24 00 00 	lea    rax,[rcx+0x2400]
  404dde:	c4 e2 7b 4b 34 10    	tileloadd tmm6,[rax+rdx*1]
  404de4:	48 89 5c 24 d8       	mov    QWORD PTR [rsp-0x28],rbx
  404de9:	c4 e2 7b 4b 24 33    	tileloadd tmm4,[rbx+rsi*1]
  404def:	c4 e2 4b 5e c4       	tdpbssd tmm0,tmm4,tmm6
  404df4:	48 8d 81 00 64 00 00 	lea    rax,[rcx+0x6400]
  404dfb:	c4 e2 7b 4b 3c 10    	tileloadd tmm7,[rax+rdx*1]
  404e01:	c4 e2 43 5e cc       	tdpbssd tmm1,tmm4,tmm7
  404e06:	48 8d 9f 80 02 00 00 	lea    rbx,[rdi+0x280]
  404e0d:	48 8d 81 00 28 00 00 	lea    rax,[rcx+0x2800]
  404e14:	c4 e2 7b 4b 34 10    	tileloadd tmm6,[rax+rdx*1]
  404e1a:	48 89 5c 24 d0       	mov    QWORD PTR [rsp-0x30],rbx
  404e1f:	c4 e2 7b 4b 24 33    	tileloadd tmm4,[rbx+rsi*1]
  404e25:	c4 e2 4b 5e c4       	tdpbssd tmm0,tmm4,tmm6
  404e2a:	48 8d 81 00 68 00 00 	lea    rax,[rcx+0x6800]
  404e31:	c4 e2 7b 4b 3c 10    	tileloadd tmm7,[rax+rdx*1]
  404e37:	c4 e2 43 5e cc       	tdpbssd tmm1,tmm4,tmm7
  404e3c:	4c 8d 97 c0 02 00 00 	lea    r10,[rdi+0x2c0]
  404e43:	48 8d 81 00 2c 00 00 	lea    rax,[rcx+0x2c00]
  404e4a:	c4 e2 7b 4b 34 10    	tileloadd tmm6,[rax+rdx*1]
  404e50:	4c 89 54 24 c8       	mov    QWORD PTR [rsp-0x38],r10
  404e55:	c4 c2 7b 4b 24 32    	tileloadd tmm4,[r10+rsi*1]
  404e5b:	c4 e2 4b 5e c4       	tdpbssd tmm0,tmm4,tmm6
  404e60:	48 8d 81 00 6c 00 00 	lea    rax,[rcx+0x6c00]
  404e67:	c4 e2 7b 4b 3c 10    	tileloadd tmm7,[rax+rdx*1]
  404e6d:	c4 e2 43 5e cc       	tdpbssd tmm1,tmm4,tmm7
  404e72:	4c 8d a7 00 03 00 00 	lea    r12,[rdi+0x300]
  404e79:	48 8d 81 00 30 00 00 	lea    rax,[rcx+0x3000]
  404e80:	c4 e2 7b 4b 34 10    	tileloadd tmm6,[rax+rdx*1]
  404e86:	c4 c2 7b 4b 24 34    	tileloadd tmm4,[r12+rsi*1]
  404e8c:	c4 e2 4b 5e c4       	tdpbssd tmm0,tmm4,tmm6
  404e91:	48 8d 81 00 70 00 00 	lea    rax,[rcx+0x7000]
  404e98:	c4 e2 7b 4b 3c 10    	tileloadd tmm7,[rax+rdx*1]
  404e9e:	c4 e2 43 5e cc       	tdpbssd tmm1,tmm4,tmm7
  404ea3:	48 8d 9f 40 03 00 00 	lea    rbx,[rdi+0x340]
  404eaa:	48 8d 81 00 34 00 00 	lea    rax,[rcx+0x3400]
  404eb1:	c4 e2 7b 4b 34 10    	tileloadd tmm6,[rax+rdx*1]
  404eb7:	c4 e2 7b 4b 24 33    	tileloadd tmm4,[rbx+rsi*1]
  404ebd:	c4 e2 4b 5e c4       	tdpbssd tmm0,tmm4,tmm6
  404ec2:	48 8d 81 00 74 00 00 	lea    rax,[rcx+0x7400]
  404ec9:	c4 e2 7b 4b 3c 10    	tileloadd tmm7,[rax+rdx*1]
  404ecf:	c4 e2 43 5e cc       	tdpbssd tmm1,tmm4,tmm7
  404ed4:	4c 8d 9f 80 03 00 00 	lea    r11,[rdi+0x380]
  404edb:	48 8d 81 00 38 00 00 	lea    rax,[rcx+0x3800]
  404ee2:	c4 e2 7b 4b 34 10    	tileloadd tmm6,[rax+rdx*1]
  404ee8:	c4 c2 7b 4b 24 33    	tileloadd tmm4,[r11+rsi*1]
  404eee:	c4 e2 4b 5e c4       	tdpbssd tmm0,tmm4,tmm6
  404ef3:	48 8d 81 00 78 00 00 	lea    rax,[rcx+0x7800]
  404efa:	c4 e2 7b 4b 3c 10    	tileloadd tmm7,[rax+rdx*1]
  404f00:	c4 e2 43 5e cc       	tdpbssd tmm1,tmm4,tmm7
  404f05:	4c 8d 97 c0 03 00 00 	lea    r10,[rdi+0x3c0]
  404f0c:	48 8d 81 00 3c 00 00 	lea    rax,[rcx+0x3c00]
  404f13:	c4 e2 7b 4b 34 10    	tileloadd tmm6,[rax+rdx*1]
  404f19:	c4 c2 7b 4b 24 32    	tileloadd tmm4,[r10+rsi*1]
  404f1f:	c4 e2 4b 5e c4       	tdpbssd tmm0,tmm4,tmm6
  404f24:	48 8d 81 00 7c 00 00 	lea    rax,[rcx+0x7c00]
  404f2b:	c4 e2 7b 4b 3c 10    	tileloadd tmm7,[rax+rdx*1]
  404f31:	c4 e2 43 5e cc       	tdpbssd tmm1,tmm4,tmm7
  404f36:	48 8d 44 24 08       	lea    rax,[rsp+0x8]
  404f3b:	c4 e2 7a 4b 04 10    	tilestored [rax+rdx*1],tmm0
  404f41:	48 8d 84 24 08 04 00 	lea    rax,[rsp+0x408]
  404f48:	00 
  404f49:	c4 e2 7a 4b 0c 10    	tilestored [rax+rdx*1],tmm1
  404f4f:	c4 e2 7b 49 c0       	tilezero tmm0
  404f54:	c4 e2 7b 49 c8       	tilezero tmm1
  404f59:	4c 8d 89 00 80 00 00 	lea    r9,[rcx+0x8000]
  404f60:	c4 c2 7b 4b 34 11    	tileloadd tmm6,[r9+rdx*1]
  404f66:	c4 e2 7b 4b 24 37    	tileloadd tmm4,[rdi+rsi*1]
  404f6c:	c4 e2 4b 5e c4       	tdpbssd tmm0,tmm4,tmm6
  404f71:	48 8d b9 00 c0 00 00 	lea    rdi,[rcx+0xc000]
  404f78:	c4 e2 7b 4b 3c 17    	tileloadd tmm7,[rdi+rdx*1]
  404f7e:	c4 e2 43 5e cc       	tdpbssd tmm1,tmm4,tmm7
  404f83:	48 8d b9 00 84 00 00 	lea    rdi,[rcx+0x8400]
  404f8a:	c4 e2 7b 4b 34 17    	tileloadd tmm6,[rdi+rdx*1]
  404f90:	c4 c2 7b 4b 24 37    	tileloadd tmm4,[r15+rsi*1]
  404f96:	c4 e2 4b 5e c4       	tdpbssd tmm0,tmm4,tmm6
  404f9b:	48 8d b9 00 c4 00 00 	lea    rdi,[rcx+0xc400]
  404fa2:	c4 e2 7b 4b 3c 17    	tileloadd tmm7,[rdi+rdx*1]
  404fa8:	c4 e2 43 5e cc       	tdpbssd tmm1,tmm4,tmm7
  404fad:	48 8d b9 00 88 00 00 	lea    rdi,[rcx+0x8800]
  404fb4:	c4 e2 7b 4b 34 17    	tileloadd tmm6,[rdi+rdx*1]
  404fba:	c4 c2 7b 4b 24 36    	tileloadd tmm4,[r14+rsi*1]
  404fc0:	c4 e2 4b 5e c4       	tdpbssd tmm0,tmm4,tmm6
  404fc5:	48 8d b9 00 c8 00 00 	lea    rdi,[rcx+0xc800]
  404fcc:	c4 e2 7b 4b 3c 17    	tileloadd tmm7,[rdi+rdx*1]
  404fd2:	c4 e2 43 5e cc       	tdpbssd tmm1,tmm4,tmm7
  404fd7:	48 8d b9 00 8c 00 00 	lea    rdi,[rcx+0x8c00]
  404fde:	c4 e2 7b 4b 34 17    	tileloadd tmm6,[rdi+rdx*1]
  404fe4:	c4 c2 7b 4b 64 35 00 	tileloadd tmm4,[r13+rsi*1+0x0]
  404feb:	c4 e2 4b 5e c4       	tdpbssd tmm0,tmm4,tmm6
  404ff0:	48 8d b9 00 cc 00 00 	lea    rdi,[rcx+0xcc00]
  404ff7:	c4 e2 7b 4b 3c 17    	tileloadd tmm7,[rdi+rdx*1]
  404ffd:	c4 e2 43 5e cc       	tdpbssd tmm1,tmm4,tmm7
  405002:	48 8d b9 00 90 00 00 	lea    rdi,[rcx+0x9000]
  405009:	c4 e2 7b 4b 34 17    	tileloadd tmm6,[rdi+rdx*1]
  40500f:	4c 8b 34 24          	mov    r14,QWORD PTR [rsp]
  405013:	c4 c2 7b 4b 24 36    	tileloadd tmm4,[r14+rsi*1]
  405019:	c4 e2 4b 5e c4       	tdpbssd tmm0,tmm4,tmm6
  40501e:	48 8d b9 00 d0 00 00 	lea    rdi,[rcx+0xd000]
  405025:	c4 e2 7b 4b 3c 17    	tileloadd tmm7,[rdi+rdx*1]
  40502b:	c4 e2 43 5e cc       	tdpbssd tmm1,tmm4,tmm7
  405030:	48 8d b9 00 94 00 00 	lea    rdi,[rcx+0x9400]
  405037:	c4 e2 7b 4b 34 17    	tileloadd tmm6,[rdi+rdx*1]
  40503d:	4c 8b 7c 24 f8       	mov    r15,QWORD PTR [rsp-0x8]
  405042:	c4 c2 7b 4b 24 37    	tileloadd tmm4,[r15+rsi*1]
  405048:	c4 e2 4b 5e c4       	tdpbssd tmm0,tmm4,tmm6
  40504d:	48 8d b9 00 d4 00 00 	lea    rdi,[rcx+0xd400]
  405054:	c4 e2 7b 4b 3c 17    	tileloadd tmm7,[rdi+rdx*1]
  40505a:	c4 e2 43 5e cc       	tdpbssd tmm1,tmm4,tmm7
  40505f:	48 8d b9 00 98 00 00 	lea    rdi,[rcx+0x9800]
  405066:	c4 e2 7b 4b 34 17    	tileloadd tmm6,[rdi+rdx*1]
  40506c:	4c 8b 74 24 f0       	mov    r14,QWORD PTR [rsp-0x10]
  405071:	c4 c2 7b 4b 24 36    	tileloadd tmm4,[r14+rsi*1]
  405077:	c4 e2 4b 5e c4       	tdpbssd tmm0,tmm4,tmm6
  40507c:	48 8d b9 00 d8 00 00 	lea    rdi,[rcx+0xd800]
  405083:	c4 e2 7b 4b 3c 17    	tileloadd tmm7,[rdi+rdx*1]
  405089:	c4 e2 43 5e cc       	tdpbssd tmm1,tmm4,tmm7
  40508e:	48 8d b9 00 9c 00 00 	lea    rdi,[rcx+0x9c00]
  405095:	c4 e2 7b 4b 34 17    	tileloadd tmm6,[rdi+rdx*1]
  40509b:	4c 8b 7c 24 e8       	mov    r15,QWORD PTR [rsp-0x18]
  4050a0:	c4 c2 7b 4b 24 37    	tileloadd tmm4,[r15+rsi*1]
  4050a6:	c4 e2 4b 5e c4       	tdpbssd tmm0,tmm4,tmm6
  4050ab:	48 8d b9 00 dc 00 00 	lea    rdi,[rcx+0xdc00]
  4050b2:	c4 e2 7b 4b 3c 17    	tileloadd tmm7,[rdi+rdx*1]
  4050b8:	c4 e2 43 5e cc       	tdpbssd tmm1,tmm4,tmm7
  4050bd:	48 8d b9 00 a0 00 00 	lea    rdi,[rcx+0xa000]
  4050c4:	c4 e2 7b 4b 34 17    	tileloadd tmm6,[rdi+rdx*1]
  4050ca:	4c 8b 74 24 e0       	mov    r14,QWORD PTR [rsp-0x20]
  4050cf:	c4 c2 7b 4b 24 36    	tileloadd tmm4,[r14+rsi*1]
  4050d5:	c4 e2 4b 5e c4       	tdpbssd tmm0,tmm4,tmm6
  4050da:	48 8d b9 00 e0 00 00 	lea    rdi,[rcx+0xe000]
  4050e1:	c4 e2 7b 4b 3c 17    	tileloadd tmm7,[rdi+rdx*1]
  4050e7:	c4 e2 43 5e cc       	tdpbssd tmm1,tmm4,tmm7
  4050ec:	48 8d b9 00 a4 00 00 	lea    rdi,[rcx+0xa400]
  4050f3:	c4 e2 7b 4b 34 17    	tileloadd tmm6,[rdi+rdx*1]
  4050f9:	4c 8b 7c 24 d8       	mov    r15,QWORD PTR [rsp-0x28]
  4050fe:	c4 c2 7b 4b 24 37    	tileloadd tmm4,[r15+rsi*1]
  405104:	c4 e2 4b 5e c4       	tdpbssd tmm0,tmm4,tmm6
  405109:	48 8d b9 00 e4 00 00 	lea    rdi,[rcx+0xe400]
  405110:	c4 e2 7b 4b 3c 17    	tileloadd tmm7,[rdi+rdx*1]
  405116:	c4 e2 43 5e cc       	tdpbssd tmm1,tmm4,tmm7
  40511b:	48 8d b9 00 a8 00 00 	lea    rdi,[rcx+0xa800]
  405122:	c4 e2 7b 4b 34 17    	tileloadd tmm6,[rdi+rdx*1]
  405128:	4c 8b 74 24 d0       	mov    r14,QWORD PTR [rsp-0x30]
  40512d:	c4 c2 7b 4b 24 36    	tileloadd tmm4,[r14+rsi*1]
  405133:	c4 e2 4b 5e c4       	tdpbssd tmm0,tmm4,tmm6
  405138:	48 8d b9 00 e8 00 00 	lea    rdi,[rcx+0xe800]
  40513f:	c4 e2 7b 4b 3c 17    	tileloadd tmm7,[rdi+rdx*1]
  405145:	c4 e2 43 5e cc       	tdpbssd tmm1,tmm4,tmm7
  40514a:	48 8d b9 00 ac 00 00 	lea    rdi,[rcx+0xac00]
  405151:	c4 e2 7b 4b 34 17    	tileloadd tmm6,[rdi+rdx*1]
  405157:	4c 8b 7c 24 c8       	mov    r15,QWORD PTR [rsp-0x38]
  40515c:	c4 c2 7b 4b 24 37    	tileloadd tmm4,[r15+rsi*1]
  405162:	c4 e2 4b 5e c4       	tdpbssd tmm0,tmm4,tmm6
  405167:	48 8d b9 00 ec 00 00 	lea    rdi,[rcx+0xec00]
  40516e:	c4 e2 7b 4b 3c 17    	tileloadd tmm7,[rdi+rdx*1]
  405174:	c4 e2 43 5e cc       	tdpbssd tmm1,tmm4,tmm7
  405179:	48 8d b9 00 b0 00 00 	lea    rdi,[rcx+0xb000]
  405180:	c4 e2 7b 4b 34 17    	tileloadd tmm6,[rdi+rdx*1]
  405186:	c4 c2 7b 4b 24 34    	tileloadd tmm4,[r12+rsi*1]
  40518c:	c4 e2 4b 5e c4       	tdpbssd tmm0,tmm4,tmm6
  405191:	48 8d b9 00 f0 00 00 	lea    rdi,[rcx+0xf000]
  405198:	c4 e2 7b 4b 3c 17    	tileloadd tmm7,[rdi+rdx*1]
  40519e:	c4 e2 43 5e cc       	tdpbssd tmm1,tmm4,tmm7
  4051a3:	48 8d b9 00 b4 00 00 	lea    rdi,[rcx+0xb400]
  4051aa:	c4 e2 7b 4b 34 17    	tileloadd tmm6,[rdi+rdx*1]
  4051b0:	c4 e2 7b 4b 24 33    	tileloadd tmm4,[rbx+rsi*1]
  4051b6:	c4 e2 4b 5e c4       	tdpbssd tmm0,tmm4,tmm6
  4051bb:	48 8d b9 00 f4 00 00 	lea    rdi,[rcx+0xf400]
  4051c2:	c4 e2 7b 4b 3c 17    	tileloadd tmm7,[rdi+rdx*1]
  4051c8:	c4 e2 43 5e cc       	tdpbssd tmm1,tmm4,tmm7
  4051cd:	48 8d b9 00 b8 00 00 	lea    rdi,[rcx+0xb800]
  4051d4:	c4 e2 7b 4b 34 17    	tileloadd tmm6,[rdi+rdx*1]
  4051da:	c4 c2 7b 4b 24 33    	tileloadd tmm4,[r11+rsi*1]
  4051e0:	c4 e2 4b 5e c4       	tdpbssd tmm0,tmm4,tmm6
  4051e5:	48 8d b9 00 f8 00 00 	lea    rdi,[rcx+0xf800]
  4051ec:	c4 e2 7b 4b 3c 17    	tileloadd tmm7,[rdi+rdx*1]
  4051f2:	c4 e2 43 5e cc       	tdpbssd tmm1,tmm4,tmm7
  4051f7:	48 8d b9 00 bc 00 00 	lea    rdi,[rcx+0xbc00]
  4051fe:	c4 e2 7b 4b 34 17    	tileloadd tmm6,[rdi+rdx*1]
  405204:	c4 c2 7b 4b 24 32    	tileloadd tmm4,[r10+rsi*1]
  40520a:	c4 e2 4b 5e c4       	tdpbssd tmm0,tmm4,tmm6
  40520f:	48 81 c1 00 fc 00 00 	add    rcx,0xfc00
  405216:	c4 e2 7b 4b 3c 11    	tileloadd tmm7,[rcx+rdx*1]
  40521c:	c4 e2 43 5e cc       	tdpbssd tmm1,tmm4,tmm7
  405221:	48 8d b4 24 08 08 00 	lea    rsi,[rsp+0x808]
  405228:	00 
  405229:	c4 e2 7a 4b 04 16    	tilestored [rsi+rdx*1],tmm0
  40522f:	48 8d 8c 24 08 0c 00 	lea    rcx,[rsp+0xc08]
  405236:	00 
  405237:	c4 e2 7a 4b 0c 11    	tilestored [rcx+rdx*1],tmm1
  40523d:	62 f2 7d 48 18 35 99 	vbroadcastss zmm6,DWORD PTR [rip+0x5f99]        # 40b1e0 <__dso_handle+0x1d8>
  405244:	5f 00 00 
  405247:	62 51 7c 48 10 10    	vmovups zmm10,ZMMWORD PTR [r8]
  40524d:	62 51 7c 48 10 48 01 	vmovups zmm9,ZMMWORD PTR [r8+0x40]
  405254:	62 51 7c 48 10 40 02 	vmovups zmm8,ZMMWORD PTR [r8+0x80]
  40525b:	62 d1 7c 48 10 78 03 	vmovups zmm7,ZMMWORD PTR [r8+0xc0]
  405262:	48 8b 54 24 c0       	mov    rdx,QWORD PTR [rsp-0x40]
  405267:	62 f2 7d 48 18 2d 73 	vbroadcastss zmm5,DWORD PTR [rip+0x5f73]        # 40b1e4 <__dso_handle+0x1dc>
  40526e:	5f 00 00 
  405271:	4c 8b 4c 24 b8       	mov    r9,QWORD PTR [rsp-0x48]
  405276:	62 f2 7d 48 18 c0    	vbroadcastss zmm0,xmm0
  40527c:	0f 1f 40 00          	nop    DWORD PTR [rax+0x0]
  405280:	62 f1 7c 48 5b 60 f0 	vcvtdq2ps zmm4,ZMMWORD PTR [rax-0x400]
  405287:	62 f1 7c 48 5b 18    	vcvtdq2ps zmm3,ZMMWORD PTR [rax]
  40528d:	62 f1 7c 48 5b 51 f0 	vcvtdq2ps zmm2,ZMMWORD PTR [rcx-0x400]
  405294:	62 f1 7c 48 5b 09    	vcvtdq2ps zmm1,ZMMWORD PTR [rcx]
  40529a:	62 f1 2c 48 58 e4    	vaddps zmm4,zmm10,zmm4
  4052a0:	62 f1 34 48 58 db    	vaddps zmm3,zmm9,zmm3
  4052a6:	62 f1 3c 48 58 d2    	vaddps zmm2,zmm8,zmm2
  4052ac:	62 f1 44 48 58 c9    	vaddps zmm1,zmm7,zmm1
  4052b2:	62 f1 5c 48 59 e0    	vmulps zmm4,zmm4,zmm0
  4052b8:	62 f1 64 48 59 d8    	vmulps zmm3,zmm3,zmm0
  4052be:	62 f1 6c 48 59 d0    	vmulps zmm2,zmm2,zmm0
  4052c4:	62 f1 74 48 59 c8    	vmulps zmm1,zmm1,zmm0
  4052ca:	48 83 c0 40          	add    rax,0x40
  4052ce:	62 f3 7d 48 08 e4 00 	vrndscaleps zmm4,zmm4,0x0
  4052d5:	62 f3 7d 48 08 db 00 	vrndscaleps zmm3,zmm3,0x0
  4052dc:	62 f3 7d 48 08 d2 00 	vrndscaleps zmm2,zmm2,0x0
  4052e3:	62 f3 7d 48 08 c9 00 	vrndscaleps zmm1,zmm1,0x0
  4052ea:	48 83 c1 40          	add    rcx,0x40
  4052ee:	62 f1 5c 48 5d e6    	vminps zmm4,zmm4,zmm6
  4052f4:	62 f1 64 48 5d de    	vminps zmm3,zmm3,zmm6
  4052fa:	62 f1 6c 48 5d d6    	vminps zmm2,zmm2,zmm6
  405300:	62 f1 74 48 5d ce    	vminps zmm1,zmm1,zmm6
  405306:	62 f1 5c 48 5f e5    	vmaxps zmm4,zmm4,zmm5
  40530c:	62 f1 64 48 5f dd    	vmaxps zmm3,zmm3,zmm5
  405312:	62 f1 6c 48 5f d5    	vmaxps zmm2,zmm2,zmm5
  405318:	62 f1 74 48 5f cd    	vmaxps zmm1,zmm1,zmm5
  40531e:	62 f1 7d 48 5b e4    	vcvtps2dq zmm4,zmm4
  405324:	62 f1 7d 48 5b db    	vcvtps2dq zmm3,zmm3
  40532a:	62 f2 7e 48 31 22    	vpmovdb XMMWORD PTR [rdx],zmm4
  405330:	62 f2 7e 48 31 5a 01 	vpmovdb XMMWORD PTR [rdx+0x10],zmm3
  405337:	62 f1 7d 48 5b d2    	vcvtps2dq zmm2,zmm2
  40533d:	62 f1 7d 48 5b c9    	vcvtps2dq zmm1,zmm1
  405343:	62 f2 7e 48 31 52 02 	vpmovdb XMMWORD PTR [rdx+0x20],zmm2
  40534a:	62 f2 7e 48 31 4a 03 	vpmovdb XMMWORD PTR [rdx+0x30],zmm1
  405351:	4c 01 ca             	add    rdx,r9
  405354:	48 39 f0             	cmp    rax,rsi
  405357:	0f 85 23 ff ff ff    	jne    405280 <_ZN12intel_mlperf24_tile_dot_product_16x256ILi1ELi16ENS_9io_policyILi16ELNS_8i_formatE0EEEE7computeEPvmS5_S5_Pff+0x6b0>
  40535d:	c5 f8 77             	vzeroupper 
  405360:	48 8d 65 d8          	lea    rsp,[rbp-0x28]
  405364:	5b                   	pop    rbx
  405365:	41 5c                	pop    r12
  405367:	41 5d                	pop    r13
  405369:	41 5e                	pop    r14
  40536b:	41 5f                	pop    r15
  40536d:	5d                   	pop    rbp
  40536e:	c3                   	ret    
  40536f:	90                   	nop

0000000000405370 <_ZNSt19normal_distributionIdEclISt26linear_congruential_engineImLm16807ELm0ELm2147483647EEEEdRT_RKNS0_10param_typeE>:
  405370:	55                   	push   rbp
  405371:	48 89 d5             	mov    rbp,rdx
  405374:	53                   	push   rbx
  405375:	48 89 fb             	mov    rbx,rdi
  405378:	48 83 ec 28          	sub    rsp,0x28
  40537c:	80 7f 18 00          	cmp    BYTE PTR [rdi+0x18],0x0
  405380:	0f 85 0a 02 00 00    	jne    405590 <_ZNSt19normal_distributionIdEclISt26linear_congruential_engineImLm16807ELm0ELm2147483647EEEEdRT_RKNS0_10param_typeE+0x220>
  405386:	48 8b 06             	mov    rax,QWORD PTR [rsi]
  405389:	c5 7b 10 05 7f 5e 00 	vmovsd xmm8,QWORD PTR [rip+0x5e7f]        # 40b210 <__dso_handle+0x208>
  405390:	00 
  405391:	c5 fb 10 3d 7f 5e 00 	vmovsd xmm7,QWORD PTR [rip+0x5e7f]        # 40b218 <__dso_handle+0x210>
  405398:	00 
  405399:	c5 fb 10 2d a7 5e 00 	vmovsd xmm5,QWORD PTR [rip+0x5ea7]        # 40b248 <__dso_handle+0x240>
  4053a0:	00 
  4053a1:	c5 7b 10 15 77 5e 00 	vmovsd xmm10,QWORD PTR [rip+0x5e77]        # 40b220 <__dso_handle+0x218>
  4053a8:	00 
  4053a9:	c5 7b 10 0d 77 5e 00 	vmovsd xmm9,QWORD PTR [rip+0x5e77]        # 40b228 <__dso_handle+0x220>
  4053b0:	00 
  4053b1:	c5 7b 10 25 47 5e 00 	vmovsd xmm12,QWORD PTR [rip+0x5e47]        # 40b200 <__dso_handle+0x1f8>
  4053b8:	00 
  4053b9:	c5 7b 10 1d 47 5e 00 	vmovsd xmm11,QWORD PTR [rip+0x5e47]        # 40b208 <__dso_handle+0x200>
  4053c0:	00 
  4053c1:	c5 d8 57 e4          	vxorps xmm4,xmm4,xmm4
  4053c5:	c5 c9 57 f6          	vxorpd xmm6,xmm6,xmm6
  4053c9:	48 b9 05 00 00 00 02 	movabs rcx,0x200000005
  4053d0:	00 00 00 
  4053d3:	0f 1f 44 00 00       	nop    DWORD PTR [rax+rax*1+0x0]
  4053d8:	48 69 f8 a7 41 00 00 	imul   rdi,rax,0x41a7
  4053df:	48 89 f8             	mov    rax,rdi
  4053e2:	48 f7 e1             	mul    rcx
  4053e5:	48 89 f8             	mov    rax,rdi
  4053e8:	48 29 d0             	sub    rax,rdx
  4053eb:	48 d1 e8             	shr    rax,1
  4053ee:	48 01 c2             	add    rdx,rax
  4053f1:	48 c1 ea 1e          	shr    rdx,0x1e
  4053f5:	48 89 d0             	mov    rax,rdx
  4053f8:	48 c1 e0 1f          	shl    rax,0x1f
  4053fc:	48 29 d0             	sub    rax,rdx
  4053ff:	48 29 c7             	sub    rdi,rax
  405402:	48 8d 47 ff          	lea    rax,[rdi-0x1]
  405406:	48 69 ff a7 41 00 00 	imul   rdi,rdi,0x41a7
  40540d:	62 f1 df 08 7b c0    	vcvtusi2sd xmm0,xmm4,rax
  405413:	48 89 f8             	mov    rax,rdi
  405416:	48 f7 e1             	mul    rcx
  405419:	48 89 f8             	mov    rax,rdi
  40541c:	c5 fb 58 ce          	vaddsd xmm1,xmm0,xmm6
  405420:	48 29 d0             	sub    rax,rdx
  405423:	48 d1 e8             	shr    rax,1
  405426:	48 01 c2             	add    rdx,rax
  405429:	48 c1 ea 1e          	shr    rdx,0x1e
  40542d:	48 89 d0             	mov    rax,rdx
  405430:	48 c1 e0 1f          	shl    rax,0x1f
  405434:	48 29 d0             	sub    rax,rdx
  405437:	48 29 c7             	sub    rdi,rax
  40543a:	48 8d 47 ff          	lea    rax,[rdi-0x1]
  40543e:	62 f1 df 08 7b c0    	vcvtusi2sd xmm0,xmm4,rax
  405444:	48 89 fa             	mov    rdx,rdi
  405447:	c4 c2 f1 99 c0       	vfmadd132sd xmm0,xmm1,xmm8
  40544c:	c5 fb 5e c7          	vdivsd xmm0,xmm0,xmm7
  405450:	c5 f9 2f c5          	vcomisd xmm0,xmm5
  405454:	0f 83 26 01 00 00    	jae    405580 <_ZNSt19normal_distributionIdEclISt26linear_congruential_engineImLm16807ELm0ELm2147483647EEEEdRT_RKNS0_10param_typeE+0x210>
  40545a:	c5 fb 10 c8          	vmovsd xmm1,xmm0,xmm0
  40545e:	c4 c2 b1 99 ca       	vfmadd132sd xmm1,xmm9,xmm10
  405463:	c5 f3 59 d9          	vmulsd xmm3,xmm1,xmm1
  405467:	48 69 fa a7 41 00 00 	imul   rdi,rdx,0x41a7
  40546e:	48 89 f8             	mov    rax,rdi
  405471:	48 f7 e1             	mul    rcx
  405474:	48 89 f8             	mov    rax,rdi
  405477:	48 29 d0             	sub    rax,rdx
  40547a:	48 d1 e8             	shr    rax,1
  40547d:	48 01 c2             	add    rdx,rax
  405480:	48 c1 ea 1e          	shr    rdx,0x1e
  405484:	48 89 d0             	mov    rax,rdx
  405487:	48 c1 e0 1f          	shl    rax,0x1f
  40548b:	48 29 d0             	sub    rax,rdx
  40548e:	48 29 c7             	sub    rdi,rax
  405491:	48 8d 47 ff          	lea    rax,[rdi-0x1]
  405495:	48 69 ff a7 41 00 00 	imul   rdi,rdi,0x41a7
  40549c:	62 f1 df 08 7b c0    	vcvtusi2sd xmm0,xmm4,rax
  4054a2:	48 89 f8             	mov    rax,rdi
  4054a5:	48 f7 e1             	mul    rcx
  4054a8:	48 89 f8             	mov    rax,rdi
  4054ab:	c5 fb 58 d6          	vaddsd xmm2,xmm0,xmm6
  4054af:	48 29 d0             	sub    rax,rdx
  4054b2:	48 d1 e8             	shr    rax,1
  4054b5:	48 01 d0             	add    rax,rdx
  4054b8:	48 c1 e8 1e          	shr    rax,0x1e
  4054bc:	48 89 c2             	mov    rdx,rax
  4054bf:	48 c1 e2 1f          	shl    rdx,0x1f
  4054c3:	48 29 c2             	sub    rdx,rax
  4054c6:	48 89 f8             	mov    rax,rdi
  4054c9:	48 29 d0             	sub    rax,rdx
  4054cc:	48 8d 50 ff          	lea    rdx,[rax-0x1]
  4054d0:	62 f1 df 08 7b c2    	vcvtusi2sd xmm0,xmm4,rdx
  4054d6:	c4 c2 e9 99 c0       	vfmadd132sd xmm0,xmm2,xmm8
  4054db:	c5 fb 5e c7          	vdivsd xmm0,xmm0,xmm7
  4054df:	c5 f9 2f c5          	vcomisd xmm0,xmm5
  4054e3:	0f 83 87 00 00 00    	jae    405570 <_ZNSt19normal_distributionIdEclISt26linear_congruential_engineImLm16807ELm0ELm2147483647EEEEdRT_RKNS0_10param_typeE+0x200>
  4054e9:	c5 fb 10 d0          	vmovsd xmm2,xmm0,xmm0
  4054ed:	c4 c2 b1 99 d2       	vfmadd132sd xmm2,xmm9,xmm10
  4054f2:	c5 eb 59 c2          	vmulsd xmm0,xmm2,xmm2
  4054f6:	c5 e3 58 d8          	vaddsd xmm3,xmm3,xmm0
  4054fa:	c5 f9 2f dd          	vcomisd xmm3,xmm5
  4054fe:	0f 87 d4 fe ff ff    	ja     4053d8 <_ZNSt19normal_distributionIdEclISt26linear_congruential_engineImLm16807ELm0ELm2147483647EEEEdRT_RKNS0_10param_typeE+0x68>
  405504:	c5 f9 2e de          	vucomisd xmm3,xmm6
  405508:	7a 06                	jp     405510 <_ZNSt19normal_distributionIdEclISt26linear_congruential_engineImLm16807ELm0ELm2147483647EEEEdRT_RKNS0_10param_typeE+0x1a0>
  40550a:	0f 84 c8 fe ff ff    	je     4053d8 <_ZNSt19normal_distributionIdEclISt26linear_congruential_engineImLm16807ELm0ELm2147483647EEEEdRT_RKNS0_10param_typeE+0x68>
  405510:	48 89 06             	mov    QWORD PTR [rsi],rax
  405513:	c5 e3 10 c3          	vmovsd xmm0,xmm3,xmm3
  405517:	c5 fb 11 54 24 18    	vmovsd QWORD PTR [rsp+0x18],xmm2
  40551d:	c5 fb 11 4c 24 10    	vmovsd QWORD PTR [rsp+0x10],xmm1
  405523:	c5 fb 11 5c 24 08    	vmovsd QWORD PTR [rsp+0x8],xmm3
  405529:	e8 62 cb ff ff       	call   402090 <log@plt>
  40552e:	c5 fb 59 05 fa 5c 00 	vmulsd xmm0,xmm0,QWORD PTR [rip+0x5cfa]        # 40b230 <__dso_handle+0x228>
  405535:	00 
  405536:	c5 fb 10 5c 24 08    	vmovsd xmm3,QWORD PTR [rsp+0x8]
  40553c:	c5 c9 57 f6          	vxorpd xmm6,xmm6,xmm6
  405540:	c5 fb 10 4c 24 10    	vmovsd xmm1,QWORD PTR [rsp+0x10]
  405546:	c5 fb 10 54 24 18    	vmovsd xmm2,QWORD PTR [rsp+0x18]
  40554c:	c5 fb 5e c3          	vdivsd xmm0,xmm0,xmm3
  405550:	c5 f9 2e f0          	vucomisd xmm6,xmm0
  405554:	77 55                	ja     4055ab <_ZNSt19normal_distributionIdEclISt26linear_congruential_engineImLm16807ELm0ELm2147483647EEEEdRT_RKNS0_10param_typeE+0x23b>
  405556:	c5 fb 51 c0          	vsqrtsd xmm0,xmm0,xmm0
  40555a:	c5 fb 59 c9          	vmulsd xmm1,xmm0,xmm1
  40555e:	c6 43 18 01          	mov    BYTE PTR [rbx+0x18],0x1
  405562:	c5 fb 59 c2          	vmulsd xmm0,xmm0,xmm2
  405566:	c5 fb 11 4b 10       	vmovsd QWORD PTR [rbx+0x10],xmm1
  40556b:	eb 2c                	jmp    405599 <_ZNSt19normal_distributionIdEclISt26linear_congruential_engineImLm16807ELm0ELm2147483647EEEEdRT_RKNS0_10param_typeE+0x229>
  40556d:	0f 1f 00             	nop    DWORD PTR [rax]
  405570:	c5 1b 11 e0          	vmovsd xmm0,xmm12,xmm12
  405574:	c5 23 11 da          	vmovsd xmm2,xmm11,xmm11
  405578:	e9 79 ff ff ff       	jmp    4054f6 <_ZNSt19normal_distributionIdEclISt26linear_congruential_engineImLm16807ELm0ELm2147483647EEEEdRT_RKNS0_10param_typeE+0x186>
  40557d:	0f 1f 00             	nop    DWORD PTR [rax]
  405580:	c5 1b 11 e3          	vmovsd xmm3,xmm12,xmm12
  405584:	c5 23 11 d9          	vmovsd xmm1,xmm11,xmm11
  405588:	e9 da fe ff ff       	jmp    405467 <_ZNSt19normal_distributionIdEclISt26linear_congruential_engineImLm16807ELm0ELm2147483647EEEEdRT_RKNS0_10param_typeE+0xf7>
  40558d:	0f 1f 00             	nop    DWORD PTR [rax]
  405590:	c6 47 18 00          	mov    BYTE PTR [rdi+0x18],0x0
  405594:	c5 fb 10 47 10       	vmovsd xmm0,QWORD PTR [rdi+0x10]
  405599:	c5 fb 10 7d 00       	vmovsd xmm7,QWORD PTR [rbp+0x0]
  40559e:	c4 e2 c1 99 45 08    	vfmadd132sd xmm0,xmm7,QWORD PTR [rbp+0x8]
  4055a4:	48 83 c4 28          	add    rsp,0x28
  4055a8:	5b                   	pop    rbx
  4055a9:	5d                   	pop    rbp
  4055aa:	c3                   	ret    
  4055ab:	c5 fb 11 54 24 10    	vmovsd QWORD PTR [rsp+0x10],xmm2
  4055b1:	c5 fb 11 4c 24 08    	vmovsd QWORD PTR [rsp+0x8],xmm1
  4055b7:	e8 34 cb ff ff       	call   4020f0 <sqrt@plt>
  4055bc:	c5 fb 10 54 24 10    	vmovsd xmm2,QWORD PTR [rsp+0x10]
  4055c2:	c5 fb 10 4c 24 08    	vmovsd xmm1,QWORD PTR [rsp+0x8]
  4055c8:	eb 90                	jmp    40555a <_ZNSt19normal_distributionIdEclISt26linear_congruential_engineImLm16807ELm0ELm2147483647EEEEdRT_RKNS0_10param_typeE+0x1ea>
  4055ca:	66 0f 1f 44 00 00    	nop    WORD PTR [rax+rax*1+0x0]

00000000004055d0 <_ZNSt6vectorIfSaIfEE17_M_realloc_insertIJfEEEvN9__gnu_cxx17__normal_iteratorIPfS1_EEDpOT_>:
  4055d0:	41 57                	push   r15
  4055d2:	49 89 d7             	mov    r15,rdx
  4055d5:	48 ba ff ff ff ff ff 	movabs rdx,0x1fffffffffffffff
  4055dc:	ff ff 1f 
  4055df:	41 56                	push   r14
  4055e1:	41 55                	push   r13
  4055e3:	41 54                	push   r12
  4055e5:	55                   	push   rbp
  4055e6:	53                   	push   rbx
  4055e7:	48 83 ec 28          	sub    rsp,0x28
  4055eb:	4c 8b 67 08          	mov    r12,QWORD PTR [rdi+0x8]
  4055ef:	4c 8b 37             	mov    r14,QWORD PTR [rdi]
  4055f2:	4c 89 e0             	mov    rax,r12
  4055f5:	4c 29 f0             	sub    rax,r14
  4055f8:	48 c1 f8 02          	sar    rax,0x2
  4055fc:	48 39 d0             	cmp    rax,rdx
  4055ff:	0f 84 16 01 00 00    	je     40571b <_ZNSt6vectorIfSaIfEE17_M_realloc_insertIJfEEEvN9__gnu_cxx17__normal_iteratorIPfS1_EEDpOT_+0x14b>
  405605:	48 85 c0             	test   rax,rax
  405608:	ba 01 00 00 00       	mov    edx,0x1
  40560d:	48 0f 45 d0          	cmovne rdx,rax
  405611:	31 c9                	xor    ecx,ecx
  405613:	48 01 d0             	add    rax,rdx
  405616:	0f 92 c1             	setb   cl
  405619:	48 89 f2             	mov    rdx,rsi
  40561c:	48 89 fd             	mov    rbp,rdi
  40561f:	49 89 f5             	mov    r13,rsi
  405622:	4c 29 f2             	sub    rdx,r14
  405625:	48 85 c9             	test   rcx,rcx
  405628:	0f 85 aa 00 00 00    	jne    4056d8 <_ZNSt6vectorIfSaIfEE17_M_realloc_insertIJfEEEvN9__gnu_cxx17__normal_iteratorIPfS1_EEDpOT_+0x108>
  40562e:	48 85 c0             	test   rax,rax
  405631:	0f 85 c9 00 00 00    	jne    405700 <_ZNSt6vectorIfSaIfEE17_M_realloc_insertIJfEEEvN9__gnu_cxx17__normal_iteratorIPfS1_EEDpOT_+0x130>
  405637:	31 db                	xor    ebx,ebx
  405639:	31 ff                	xor    edi,edi
  40563b:	4c 8d 44 17 04       	lea    r8,[rdi+rdx*1+0x4]
  405640:	4d 29 ec             	sub    r12,r13
  405643:	c4 c1 7a 10 07       	vmovss xmm0,DWORD PTR [r15]
  405648:	4b 8d 04 20          	lea    rax,[r8+r12*1]
  40564c:	c4 e1 f9 6e d7       	vmovq  xmm2,rdi
  405651:	c4 e3 e9 22 c8 01    	vpinsrq xmm1,xmm2,rax,0x1
  405657:	4c 8b 7d 10          	mov    r15,QWORD PTR [rbp+0x10]
  40565b:	c5 fa 11 04 17       	vmovss DWORD PTR [rdi+rdx*1],xmm0
  405660:	c5 f9 7f 0c 24       	vmovdqa XMMWORD PTR [rsp],xmm1
  405665:	48 85 d2             	test   rdx,rdx
  405668:	7f 2e                	jg     405698 <_ZNSt6vectorIfSaIfEE17_M_realloc_insertIJfEEEvN9__gnu_cxx17__normal_iteratorIPfS1_EEDpOT_+0xc8>
  40566a:	4d 85 e4             	test   r12,r12
  40566d:	7f 51                	jg     4056c0 <_ZNSt6vectorIfSaIfEE17_M_realloc_insertIJfEEEvN9__gnu_cxx17__normal_iteratorIPfS1_EEDpOT_+0xf0>
  40566f:	4d 85 f6             	test   r14,r14
  405672:	75 3b                	jne    4056af <_ZNSt6vectorIfSaIfEE17_M_realloc_insertIJfEEEvN9__gnu_cxx17__normal_iteratorIPfS1_EEDpOT_+0xdf>
  405674:	48 89 5d 10          	mov    QWORD PTR [rbp+0x10],rbx
  405678:	c5 f9 6f 1c 24       	vmovdqa xmm3,XMMWORD PTR [rsp]
  40567d:	c5 fa 7f 5d 00       	vmovdqu XMMWORD PTR [rbp+0x0],xmm3
  405682:	48 83 c4 28          	add    rsp,0x28
  405686:	5b                   	pop    rbx
  405687:	5d                   	pop    rbp
  405688:	41 5c                	pop    r12
  40568a:	41 5d                	pop    r13
  40568c:	41 5e                	pop    r14
  40568e:	41 5f                	pop    r15
  405690:	c3                   	ret    
  405691:	0f 1f 80 00 00 00 00 	nop    DWORD PTR [rax+0x0]
  405698:	4c 89 f6             	mov    rsi,r14
  40569b:	4c 89 44 24 18       	mov    QWORD PTR [rsp+0x18],r8
  4056a0:	e8 9b cb ff ff       	call   402240 <memmove@plt>
  4056a5:	4d 85 e4             	test   r12,r12
  4056a8:	4c 8b 44 24 18       	mov    r8,QWORD PTR [rsp+0x18]
  4056ad:	7f 11                	jg     4056c0 <_ZNSt6vectorIfSaIfEE17_M_realloc_insertIJfEEEvN9__gnu_cxx17__normal_iteratorIPfS1_EEDpOT_+0xf0>
  4056af:	4c 89 fe             	mov    rsi,r15
  4056b2:	4c 29 f6             	sub    rsi,r14
  4056b5:	4c 89 f7             	mov    rdi,r14
  4056b8:	e8 93 ca ff ff       	call   402150 <_ZdlPvm@plt>
  4056bd:	eb b5                	jmp    405674 <_ZNSt6vectorIfSaIfEE17_M_realloc_insertIJfEEEvN9__gnu_cxx17__normal_iteratorIPfS1_EEDpOT_+0xa4>
  4056bf:	90                   	nop
  4056c0:	4c 89 e2             	mov    rdx,r12
  4056c3:	4c 89 ee             	mov    rsi,r13
  4056c6:	4c 89 c7             	mov    rdi,r8
  4056c9:	e8 32 ca ff ff       	call   402100 <memcpy@plt>
  4056ce:	4d 85 f6             	test   r14,r14
  4056d1:	74 a1                	je     405674 <_ZNSt6vectorIfSaIfEE17_M_realloc_insertIJfEEEvN9__gnu_cxx17__normal_iteratorIPfS1_EEDpOT_+0xa4>
  4056d3:	eb da                	jmp    4056af <_ZNSt6vectorIfSaIfEE17_M_realloc_insertIJfEEEvN9__gnu_cxx17__normal_iteratorIPfS1_EEDpOT_+0xdf>
  4056d5:	0f 1f 00             	nop    DWORD PTR [rax]
  4056d8:	48 bb fc ff ff ff ff 	movabs rbx,0x7ffffffffffffffc
  4056df:	ff ff 7f 
  4056e2:	48 89 df             	mov    rdi,rbx
  4056e5:	48 89 14 24          	mov    QWORD PTR [rsp],rdx
  4056e9:	e8 52 ca ff ff       	call   402140 <_Znwm@plt>
  4056ee:	48 89 c7             	mov    rdi,rax
  4056f1:	48 8b 14 24          	mov    rdx,QWORD PTR [rsp]
  4056f5:	48 01 c3             	add    rbx,rax
  4056f8:	e9 3e ff ff ff       	jmp    40563b <_ZNSt6vectorIfSaIfEE17_M_realloc_insertIJfEEEvN9__gnu_cxx17__normal_iteratorIPfS1_EEDpOT_+0x6b>
  4056fd:	0f 1f 00             	nop    DWORD PTR [rax]
  405700:	48 b9 ff ff ff ff ff 	movabs rcx,0x1fffffffffffffff
  405707:	ff ff 1f 
  40570a:	48 39 c8             	cmp    rax,rcx
  40570d:	48 0f 47 c1          	cmova  rax,rcx
  405711:	48 8d 1c 85 00 00 00 	lea    rbx,[rax*4+0x0]
  405718:	00 
  405719:	eb c7                	jmp    4056e2 <_ZNSt6vectorIfSaIfEE17_M_realloc_insertIJfEEEvN9__gnu_cxx17__normal_iteratorIPfS1_EEDpOT_+0x112>
  40571b:	48 8d 3d a3 5a 00 00 	lea    rdi,[rip+0x5aa3]        # 40b1c5 <__dso_handle+0x1bd>
  405722:	e8 89 c9 ff ff       	call   4020b0 <_ZSt20__throw_length_errorPKc@plt>
  405727:	66 0f 1f 84 00 00 00 	nop    WORD PTR [rax+rax*1+0x0]
  40572e:	00 00 

0000000000405730 <_ZN12intel_mlperf19print_int8_2DmatrixEPKaiii>:
  405730:	41 57                	push   r15
  405732:	48 63 c1             	movsxd rax,ecx
  405735:	41 89 f7             	mov    r15d,esi
  405738:	41 56                	push   r14
  40573a:	41 55                	push   r13
  40573c:	41 89 d5             	mov    r13d,edx
  40573f:	41 54                	push   r12
  405741:	55                   	push   rbp
  405742:	53                   	push   rbx
  405743:	48 89 fb             	mov    rbx,rdi
  405746:	48 8d 3d 0b 5b 00 00 	lea    rdi,[rip+0x5b0b]        # 40b258 <__dso_handle+0x250>
  40574d:	48 83 ec 18          	sub    rsp,0x18
  405751:	89 74 24 0c          	mov    DWORD PTR [rsp+0xc],esi
  405755:	48 89 04 24          	mov    QWORD PTR [rsp],rax
  405759:	e8 b2 ca ff ff       	call   402210 <puts@plt>
  40575e:	45 85 ff             	test   r15d,r15d
  405761:	7e 5b                	jle    4057be <_ZN12intel_mlperf19print_int8_2DmatrixEPKaiii+0x8e>
  405763:	45 8d 7d ff          	lea    r15d,[r13-0x1]
  405767:	4a 8d 5c 3b 01       	lea    rbx,[rbx+r15*1+0x1]
  40576c:	45 31 e4             	xor    r12d,r12d
  40576f:	48 8d 2d e9 5c 00 00 	lea    rbp,[rip+0x5ce9]        # 40b45f <__dso_handle+0x457>
  405776:	66 2e 0f 1f 84 00 00 	cs nop WORD PTR [rax+rax*1+0x0]
  40577d:	00 00 00 
  405780:	48 89 da             	mov    rdx,rbx
  405783:	4c 29 fa             	sub    rdx,r15
  405786:	4c 8d 72 ff          	lea    r14,[rdx-0x1]
  40578a:	45 85 ed             	test   r13d,r13d
  40578d:	7e 17                	jle    4057a6 <_ZN12intel_mlperf19print_int8_2DmatrixEPKaiii+0x76>
  40578f:	90                   	nop
  405790:	41 0f be 36          	movsx  esi,BYTE PTR [r14]
  405794:	48 89 ef             	mov    rdi,rbp
  405797:	31 c0                	xor    eax,eax
  405799:	49 ff c6             	inc    r14
  40579c:	e8 af c8 ff ff       	call   402050 <printf@plt>
  4057a1:	49 39 de             	cmp    r14,rbx
  4057a4:	75 ea                	jne    405790 <_ZN12intel_mlperf19print_int8_2DmatrixEPKaiii+0x60>
  4057a6:	bf 0a 00 00 00       	mov    edi,0xa
  4057ab:	41 ff c4             	inc    r12d
  4057ae:	e8 0d ca ff ff       	call   4021c0 <putchar@plt>
  4057b3:	48 03 1c 24          	add    rbx,QWORD PTR [rsp]
  4057b7:	44 39 64 24 0c       	cmp    DWORD PTR [rsp+0xc],r12d
  4057bc:	75 c2                	jne    405780 <_ZN12intel_mlperf19print_int8_2DmatrixEPKaiii+0x50>
  4057be:	48 83 c4 18          	add    rsp,0x18
  4057c2:	5b                   	pop    rbx
  4057c3:	5d                   	pop    rbp
  4057c4:	41 5c                	pop    r12
  4057c6:	41 5d                	pop    r13
  4057c8:	41 5e                	pop    r14
  4057ca:	48 8d 3d 87 5a 00 00 	lea    rdi,[rip+0x5a87]        # 40b258 <__dso_handle+0x250>
  4057d1:	41 5f                	pop    r15
  4057d3:	e9 38 ca ff ff       	jmp    402210 <puts@plt>
  4057d8:	0f 1f 84 00 00 00 00 	nop    DWORD PTR [rax+rax*1+0x0]
  4057df:	00 

00000000004057e0 <_ZN12intel_mlperf20print_int32_2DmatrixEPKiiii>:
  4057e0:	41 57                	push   r15
  4057e2:	41 89 f7             	mov    r15d,esi
  4057e5:	41 56                	push   r14
  4057e7:	41 89 d6             	mov    r14d,edx
  4057ea:	41 55                	push   r13
  4057ec:	4c 63 e9             	movsxd r13,ecx
  4057ef:	41 54                	push   r12
  4057f1:	55                   	push   rbp
  4057f2:	53                   	push   rbx
  4057f3:	48 89 fb             	mov    rbx,rdi
  4057f6:	48 8d 3d 93 5a 00 00 	lea    rdi,[rip+0x5a93]        # 40b290 <__dso_handle+0x288>
  4057fd:	48 83 ec 18          	sub    rsp,0x18
  405801:	89 74 24 04          	mov    DWORD PTR [rsp+0x4],esi
  405805:	e8 06 ca ff ff       	call   402210 <puts@plt>
  40580a:	45 85 ff             	test   r15d,r15d
  40580d:	7e 71                	jle    405880 <_ZN12intel_mlperf20print_int32_2DmatrixEPKiiii+0xa0>
  40580f:	4a 8d 04 ad 00 00 00 	lea    rax,[r13*4+0x0]
  405816:	00 
  405817:	48 89 44 24 08       	mov    QWORD PTR [rsp+0x8],rax
  40581c:	41 8d 46 ff          	lea    eax,[r14-0x1]
  405820:	48 c1 e0 02          	shl    rax,0x2
  405824:	49 c7 c7 fc ff ff ff 	mov    r15,0xfffffffffffffffc
  40582b:	48 8d 5c 03 04       	lea    rbx,[rbx+rax*1+0x4]
  405830:	45 31 e4             	xor    r12d,r12d
  405833:	49 29 c7             	sub    r15,rax
  405836:	48 8d 2d 22 5c 00 00 	lea    rbp,[rip+0x5c22]        # 40b45f <__dso_handle+0x457>
  40583d:	0f 1f 00             	nop    DWORD PTR [rax]
  405840:	4d 8d 2c 1f          	lea    r13,[r15+rbx*1]
  405844:	45 85 f6             	test   r14d,r14d
  405847:	7e 1e                	jle    405867 <_ZN12intel_mlperf20print_int32_2DmatrixEPKiiii+0x87>
  405849:	0f 1f 80 00 00 00 00 	nop    DWORD PTR [rax+0x0]
  405850:	41 8b 75 00          	mov    esi,DWORD PTR [r13+0x0]
  405854:	48 89 ef             	mov    rdi,rbp
  405857:	31 c0                	xor    eax,eax
  405859:	49 83 c5 04          	add    r13,0x4
  40585d:	e8 ee c7 ff ff       	call   402050 <printf@plt>
  405862:	49 39 dd             	cmp    r13,rbx
  405865:	75 e9                	jne    405850 <_ZN12intel_mlperf20print_int32_2DmatrixEPKiiii+0x70>
  405867:	bf 0a 00 00 00       	mov    edi,0xa
  40586c:	41 ff c4             	inc    r12d
  40586f:	e8 4c c9 ff ff       	call   4021c0 <putchar@plt>
  405874:	48 03 5c 24 08       	add    rbx,QWORD PTR [rsp+0x8]
  405879:	44 39 64 24 04       	cmp    DWORD PTR [rsp+0x4],r12d
  40587e:	75 c0                	jne    405840 <_ZN12intel_mlperf20print_int32_2DmatrixEPKiiii+0x60>
  405880:	48 83 c4 18          	add    rsp,0x18
  405884:	5b                   	pop    rbx
  405885:	5d                   	pop    rbp
  405886:	41 5c                	pop    r12
  405888:	41 5d                	pop    r13
  40588a:	41 5e                	pop    r14
  40588c:	48 8d 3d fd 59 00 00 	lea    rdi,[rip+0x59fd]        # 40b290 <__dso_handle+0x288>
  405893:	41 5f                	pop    r15
  405895:	e9 76 c9 ff ff       	jmp    402210 <puts@plt>
  40589a:	66 0f 1f 44 00 00    	nop    WORD PTR [rax+rax*1+0x0]

00000000004058a0 <_ZN12intel_mlperf20print_zero_pos_int32EPKiiii>:
  4058a0:	41 57                	push   r15
  4058a2:	41 56                	push   r14
  4058a4:	41 89 f6             	mov    r14d,esi
  4058a7:	41 55                	push   r13
  4058a9:	41 54                	push   r12
  4058ab:	41 89 cc             	mov    r12d,ecx
  4058ae:	55                   	push   rbp
  4058af:	48 63 ea             	movsxd rbp,edx
  4058b2:	53                   	push   rbx
  4058b3:	48 89 fb             	mov    rbx,rdi
  4058b6:	48 8d 3d 0b 5a 00 00 	lea    rdi,[rip+0x5a0b]        # 40b2c8 <__dso_handle+0x2c0>
  4058bd:	48 83 ec 18          	sub    rsp,0x18
  4058c1:	89 74 24 0c          	mov    DWORD PTR [rsp+0xc],esi
  4058c5:	e8 46 c9 ff ff       	call   402210 <puts@plt>
  4058ca:	45 85 f6             	test   r14d,r14d
  4058cd:	7e 5d                	jle    40592c <_ZN12intel_mlperf20print_zero_pos_int32EPKiiii+0x8c>
  4058cf:	85 ed                	test   ebp,ebp
  4058d1:	7e 59                	jle    40592c <_ZN12intel_mlperf20print_zero_pos_int32EPKiiii+0x8c>
  4058d3:	49 63 cc             	movsxd rcx,r12d
  4058d6:	4c 8d 34 8d 00 00 00 	lea    r14,[rcx*4+0x0]
  4058dd:	00 
  4058de:	49 89 df             	mov    r15,rbx
  4058e1:	45 31 e4             	xor    r12d,r12d
  4058e4:	4c 8d 2d 78 5b 00 00 	lea    r13,[rip+0x5b78]        # 40b463 <__dso_handle+0x45b>
  4058eb:	0f 1f 44 00 00       	nop    DWORD PTR [rax+rax*1+0x0]
  4058f0:	31 db                	xor    ebx,ebx
  4058f2:	eb 0c                	jmp    405900 <_ZN12intel_mlperf20print_zero_pos_int32EPKiiii+0x60>
  4058f4:	0f 1f 40 00          	nop    DWORD PTR [rax+0x0]
  4058f8:	48 ff c3             	inc    rbx
  4058fb:	48 39 dd             	cmp    rbp,rbx
  4058fe:	74 1f                	je     40591f <_ZN12intel_mlperf20print_zero_pos_int32EPKiiii+0x7f>
  405900:	41 8b 04 9f          	mov    eax,DWORD PTR [r15+rbx*4]
  405904:	89 da                	mov    edx,ebx
  405906:	85 c0                	test   eax,eax
  405908:	75 ee                	jne    4058f8 <_ZN12intel_mlperf20print_zero_pos_int32EPKiiii+0x58>
  40590a:	44 89 e6             	mov    esi,r12d
  40590d:	4c 89 ef             	mov    rdi,r13
  405910:	31 c0                	xor    eax,eax
  405912:	48 ff c3             	inc    rbx
  405915:	e8 36 c7 ff ff       	call   402050 <printf@plt>
  40591a:	48 39 dd             	cmp    rbp,rbx
  40591d:	75 e1                	jne    405900 <_ZN12intel_mlperf20print_zero_pos_int32EPKiiii+0x60>
  40591f:	41 ff c4             	inc    r12d
  405922:	4d 01 f7             	add    r15,r14
  405925:	44 39 64 24 0c       	cmp    DWORD PTR [rsp+0xc],r12d
  40592a:	75 c4                	jne    4058f0 <_ZN12intel_mlperf20print_zero_pos_int32EPKiiii+0x50>
  40592c:	48 83 c4 18          	add    rsp,0x18
  405930:	5b                   	pop    rbx
  405931:	5d                   	pop    rbp
  405932:	41 5c                	pop    r12
  405934:	41 5d                	pop    r13
  405936:	41 5e                	pop    r14
  405938:	48 8d 3d c1 59 00 00 	lea    rdi,[rip+0x59c1]        # 40b300 <__dso_handle+0x2f8>
  40593f:	41 5f                	pop    r15
  405941:	e9 ca c8 ff ff       	jmp    402210 <puts@plt>
  405946:	66 2e 0f 1f 84 00 00 	cs nop WORD PTR [rax+rax*1+0x0]
  40594d:	00 00 00 

0000000000405950 <_ZN12intel_mlperf19print_zero_pos_int8EPKaiii>:
  405950:	41 57                	push   r15
  405952:	41 89 f7             	mov    r15d,esi
  405955:	41 56                	push   r14
  405957:	4c 63 f1             	movsxd r14,ecx
  40595a:	41 55                	push   r13
  40595c:	41 54                	push   r12
  40595e:	55                   	push   rbp
  40595f:	48 63 ea             	movsxd rbp,edx
  405962:	53                   	push   rbx
  405963:	48 89 fb             	mov    rbx,rdi
  405966:	48 8d 3d d3 59 00 00 	lea    rdi,[rip+0x59d3]        # 40b340 <__dso_handle+0x338>
  40596d:	48 83 ec 18          	sub    rsp,0x18
  405971:	89 74 24 0c          	mov    DWORD PTR [rsp+0xc],esi
  405975:	e8 96 c8 ff ff       	call   402210 <puts@plt>
  40597a:	45 85 ff             	test   r15d,r15d
  40597d:	7e 4c                	jle    4059cb <_ZN12intel_mlperf19print_zero_pos_int8EPKaiii+0x7b>
  40597f:	85 ed                	test   ebp,ebp
  405981:	7e 48                	jle    4059cb <_ZN12intel_mlperf19print_zero_pos_int8EPKaiii+0x7b>
  405983:	49 89 df             	mov    r15,rbx
  405986:	45 31 e4             	xor    r12d,r12d
  405989:	4c 8d 2d d3 5a 00 00 	lea    r13,[rip+0x5ad3]        # 40b463 <__dso_handle+0x45b>
  405990:	31 db                	xor    ebx,ebx
  405992:	eb 0c                	jmp    4059a0 <_ZN12intel_mlperf19print_zero_pos_int8EPKaiii+0x50>
  405994:	0f 1f 40 00          	nop    DWORD PTR [rax+0x0]
  405998:	48 ff c3             	inc    rbx
  40599b:	48 39 dd             	cmp    rbp,rbx
  40599e:	74 1e                	je     4059be <_ZN12intel_mlperf19print_zero_pos_int8EPKaiii+0x6e>
  4059a0:	41 80 3c 1f 00       	cmp    BYTE PTR [r15+rbx*1],0x0
  4059a5:	89 da                	mov    edx,ebx
  4059a7:	75 ef                	jne    405998 <_ZN12intel_mlperf19print_zero_pos_int8EPKaiii+0x48>
  4059a9:	44 89 e6             	mov    esi,r12d
  4059ac:	4c 89 ef             	mov    rdi,r13
  4059af:	31 c0                	xor    eax,eax
  4059b1:	48 ff c3             	inc    rbx
  4059b4:	e8 97 c6 ff ff       	call   402050 <printf@plt>
  4059b9:	48 39 dd             	cmp    rbp,rbx
  4059bc:	75 e2                	jne    4059a0 <_ZN12intel_mlperf19print_zero_pos_int8EPKaiii+0x50>
  4059be:	41 ff c4             	inc    r12d
  4059c1:	4d 01 f7             	add    r15,r14
  4059c4:	44 39 64 24 0c       	cmp    DWORD PTR [rsp+0xc],r12d
  4059c9:	75 c5                	jne    405990 <_ZN12intel_mlperf19print_zero_pos_int8EPKaiii+0x40>
  4059cb:	48 83 c4 18          	add    rsp,0x18
  4059cf:	5b                   	pop    rbx
  4059d0:	5d                   	pop    rbp
  4059d1:	41 5c                	pop    r12
  4059d3:	41 5d                	pop    r13
  4059d5:	41 5e                	pop    r14
  4059d7:	48 8d 3d 9a 59 00 00 	lea    rdi,[rip+0x599a]        # 40b378 <__dso_handle+0x370>
  4059de:	41 5f                	pop    r15
  4059e0:	e9 2b c8 ff ff       	jmp    402210 <puts@plt>
  4059e5:	66 66 2e 0f 1f 84 00 	data16 cs nop WORD PTR [rax+rax*1+0x0]
  4059ec:	00 00 00 00 

00000000004059f0 <_ZN12intel_mlperf12set_data_actEPvm>:
  4059f0:	55                   	push   rbp
  4059f1:	48 89 fd             	mov    rbp,rdi
  4059f4:	bf 01 00 00 00       	mov    edi,0x1
  4059f9:	53                   	push   rbx
  4059fa:	48 89 f3             	mov    rbx,rsi
  4059fd:	48 83 ec 08          	sub    rsp,0x8
  405a01:	e8 2a c7 ff ff       	call   402130 <srand@plt>
  405a06:	48 c1 e3 0e          	shl    rbx,0xe
  405a0a:	74 37                	je     405a43 <_ZN12intel_mlperf12set_data_actEPvm+0x53>
  405a0c:	48 01 eb             	add    rbx,rbp
  405a0f:	90                   	nop
  405a10:	e8 6b c6 ff ff       	call   402080 <rand@plt>
  405a15:	48 63 d0             	movsxd rdx,eax
  405a18:	48 69 d2 81 80 80 80 	imul   rdx,rdx,0xffffffff80808081
  405a1f:	89 c1                	mov    ecx,eax
  405a21:	c1 f9 1f             	sar    ecx,0x1f
  405a24:	48 c1 ea 20          	shr    rdx,0x20
  405a28:	01 c2                	add    edx,eax
  405a2a:	c1 fa 07             	sar    edx,0x7
  405a2d:	29 ca                	sub    edx,ecx
  405a2f:	89 d1                	mov    ecx,edx
  405a31:	c1 e1 08             	shl    ecx,0x8
  405a34:	29 d1                	sub    ecx,edx
  405a36:	29 c8                	sub    eax,ecx
  405a38:	88 45 00             	mov    BYTE PTR [rbp+0x0],al
  405a3b:	48 ff c5             	inc    rbp
  405a3e:	48 39 dd             	cmp    rbp,rbx
  405a41:	75 cd                	jne    405a10 <_ZN12intel_mlperf12set_data_actEPvm+0x20>
  405a43:	48 83 c4 08          	add    rsp,0x8
  405a47:	5b                   	pop    rbx
  405a48:	5d                   	pop    rbp
  405a49:	c3                   	ret    
  405a4a:	66 0f 1f 44 00 00    	nop    WORD PTR [rax+rax*1+0x0]

0000000000405a50 <_ZN12intel_mlperf12set_data_weiEPvS0_>:
  405a50:	41 54                	push   r12
  405a52:	49 89 fc             	mov    r12,rdi
  405a55:	bf 02 00 00 00       	mov    edi,0x2
  405a5a:	55                   	push   rbp
  405a5b:	49 8d ac 24 00 00 01 	lea    rbp,[r12+0x10000]
  405a62:	00 
  405a63:	53                   	push   rbx
  405a64:	48 89 f3             	mov    rbx,rsi
  405a67:	e8 c4 c6 ff ff       	call   402130 <srand@plt>
  405a6c:	0f 1f 40 00          	nop    DWORD PTR [rax+0x0]
  405a70:	e8 0b c6 ff ff       	call   402080 <rand@plt>
  405a75:	48 63 d0             	movsxd rdx,eax
  405a78:	48 69 d2 81 80 80 80 	imul   rdx,rdx,0xffffffff80808081
  405a7f:	89 c1                	mov    ecx,eax
  405a81:	c1 f9 1f             	sar    ecx,0x1f
  405a84:	48 c1 ea 20          	shr    rdx,0x20
  405a88:	01 c2                	add    edx,eax
  405a8a:	c1 fa 07             	sar    edx,0x7
  405a8d:	29 ca                	sub    edx,ecx
  405a8f:	89 d1                	mov    ecx,edx
  405a91:	c1 e1 08             	shl    ecx,0x8
  405a94:	29 d1                	sub    ecx,edx
  405a96:	29 c8                	sub    eax,ecx
  405a98:	41 88 04 24          	mov    BYTE PTR [r12],al
  405a9c:	49 ff c4             	inc    r12
  405a9f:	49 39 ec             	cmp    r12,rbp
  405aa2:	75 cc                	jne    405a70 <_ZN12intel_mlperf12set_data_weiEPvS0_+0x20>
  405aa4:	48 8d ab 00 04 00 00 	lea    rbp,[rbx+0x400]
  405aab:	0f 1f 44 00 00       	nop    DWORD PTR [rax+rax*1+0x0]
  405ab0:	e8 cb c5 ff ff       	call   402080 <rand@plt>
  405ab5:	c5 f0 57 c9          	vxorps xmm1,xmm1,xmm1
  405ab9:	c5 f2 2a c0          	vcvtsi2ss xmm0,xmm1,eax
  405abd:	48 83 c3 04          	add    rbx,0x4
  405ac1:	c5 fa 11 43 fc       	vmovss DWORD PTR [rbx-0x4],xmm0
  405ac6:	48 39 eb             	cmp    rbx,rbp
  405ac9:	75 e5                	jne    405ab0 <_ZN12intel_mlperf12set_data_weiEPvS0_+0x60>
  405acb:	5b                   	pop    rbx
  405acc:	5d                   	pop    rbp
  405acd:	41 5c                	pop    r12
  405acf:	c3                   	ret    

0000000000405ad0 <_ZN12intel_mlperf15print_2d_matrixIhEEvPKT_iii>:
  405ad0:	41 57                	push   r15
  405ad2:	48 63 c1             	movsxd rax,ecx
  405ad5:	41 89 f7             	mov    r15d,esi
  405ad8:	41 56                	push   r14
  405ada:	41 55                	push   r13
  405adc:	41 89 d5             	mov    r13d,edx
  405adf:	41 54                	push   r12
  405ae1:	55                   	push   rbp
  405ae2:	53                   	push   rbx
  405ae3:	48 89 fb             	mov    rbx,rdi
  405ae6:	48 8d 3d cb 58 00 00 	lea    rdi,[rip+0x58cb]        # 40b3b8 <__dso_handle+0x3b0>
  405aed:	48 83 ec 18          	sub    rsp,0x18
  405af1:	89 74 24 0c          	mov    DWORD PTR [rsp+0xc],esi
  405af5:	48 89 04 24          	mov    QWORD PTR [rsp],rax
  405af9:	e8 12 c7 ff ff       	call   402210 <puts@plt>
  405afe:	45 85 ff             	test   r15d,r15d
  405b01:	7e 5b                	jle    405b5e <_ZN12intel_mlperf15print_2d_matrixIhEEvPKT_iii+0x8e>
  405b03:	45 8d 7d ff          	lea    r15d,[r13-0x1]
  405b07:	4a 8d 5c 3b 01       	lea    rbx,[rbx+r15*1+0x1]
  405b0c:	45 31 e4             	xor    r12d,r12d
  405b0f:	48 8d 2d 49 59 00 00 	lea    rbp,[rip+0x5949]        # 40b45f <__dso_handle+0x457>
  405b16:	66 2e 0f 1f 84 00 00 	cs nop WORD PTR [rax+rax*1+0x0]
  405b1d:	00 00 00 
  405b20:	48 89 da             	mov    rdx,rbx
  405b23:	4c 29 fa             	sub    rdx,r15
  405b26:	4c 8d 72 ff          	lea    r14,[rdx-0x1]
  405b2a:	45 85 ed             	test   r13d,r13d
  405b2d:	7e 17                	jle    405b46 <_ZN12intel_mlperf15print_2d_matrixIhEEvPKT_iii+0x76>
  405b2f:	90                   	nop
  405b30:	41 0f b6 36          	movzx  esi,BYTE PTR [r14]
  405b34:	48 89 ef             	mov    rdi,rbp
  405b37:	31 c0                	xor    eax,eax
  405b39:	49 ff c6             	inc    r14
  405b3c:	e8 0f c5 ff ff       	call   402050 <printf@plt>
  405b41:	49 39 de             	cmp    r14,rbx
  405b44:	75 ea                	jne    405b30 <_ZN12intel_mlperf15print_2d_matrixIhEEvPKT_iii+0x60>
  405b46:	bf 0a 00 00 00       	mov    edi,0xa
  405b4b:	41 ff c4             	inc    r12d
  405b4e:	e8 6d c6 ff ff       	call   4021c0 <putchar@plt>
  405b53:	48 03 1c 24          	add    rbx,QWORD PTR [rsp]
  405b57:	44 39 64 24 0c       	cmp    DWORD PTR [rsp+0xc],r12d
  405b5c:	75 c2                	jne    405b20 <_ZN12intel_mlperf15print_2d_matrixIhEEvPKT_iii+0x50>
  405b5e:	48 83 c4 18          	add    rsp,0x18
  405b62:	5b                   	pop    rbx
  405b63:	5d                   	pop    rbp
  405b64:	41 5c                	pop    r12
  405b66:	41 5d                	pop    r13
  405b68:	41 5e                	pop    r14
  405b6a:	48 8d 3d 47 58 00 00 	lea    rdi,[rip+0x5847]        # 40b3b8 <__dso_handle+0x3b0>
  405b71:	41 5f                	pop    r15
  405b73:	e9 98 c6 ff ff       	jmp    402210 <puts@plt>
  405b78:	0f 1f 84 00 00 00 00 	nop    DWORD PTR [rax+rax*1+0x0]
  405b7f:	00 

0000000000405b80 <_ZN12intel_mlperf15print_2d_matrixIfEEvPKT_iii>:
  405b80:	41 57                	push   r15
  405b82:	41 89 f7             	mov    r15d,esi
  405b85:	41 56                	push   r14
  405b87:	41 89 d6             	mov    r14d,edx
  405b8a:	41 55                	push   r13
  405b8c:	4c 63 e9             	movsxd r13,ecx
  405b8f:	41 54                	push   r12
  405b91:	55                   	push   rbp
  405b92:	53                   	push   rbx
  405b93:	48 89 fb             	mov    rbx,rdi
  405b96:	48 8d 3d 1b 58 00 00 	lea    rdi,[rip+0x581b]        # 40b3b8 <__dso_handle+0x3b0>
  405b9d:	48 83 ec 18          	sub    rsp,0x18
  405ba1:	89 74 24 04          	mov    DWORD PTR [rsp+0x4],esi
  405ba5:	e8 66 c6 ff ff       	call   402210 <puts@plt>
  405baa:	45 85 ff             	test   r15d,r15d
  405bad:	7e 7a                	jle    405c29 <_ZN12intel_mlperf15print_2d_matrixIfEEvPKT_iii+0xa9>
  405baf:	4a 8d 04 ad 00 00 00 	lea    rax,[r13*4+0x0]
  405bb6:	00 
  405bb7:	48 89 44 24 08       	mov    QWORD PTR [rsp+0x8],rax
  405bbc:	41 8d 46 ff          	lea    eax,[r14-0x1]
  405bc0:	48 c1 e0 02          	shl    rax,0x2
  405bc4:	49 c7 c7 fc ff ff ff 	mov    r15,0xfffffffffffffffc
  405bcb:	48 8d 5c 03 04       	lea    rbx,[rbx+rax*1+0x4]
  405bd0:	45 31 e4             	xor    r12d,r12d
  405bd3:	49 29 c7             	sub    r15,rax
  405bd6:	48 8d 2d 90 58 00 00 	lea    rbp,[rip+0x5890]        # 40b46d <__dso_handle+0x465>
  405bdd:	0f 1f 00             	nop    DWORD PTR [rax]
  405be0:	4d 8d 2c 1f          	lea    r13,[r15+rbx*1]
  405be4:	45 85 f6             	test   r14d,r14d
  405be7:	7e 27                	jle    405c10 <_ZN12intel_mlperf15print_2d_matrixIfEEvPKT_iii+0x90>
  405be9:	0f 1f 80 00 00 00 00 	nop    DWORD PTR [rax+0x0]
  405bf0:	c5 f1 57 c9          	vxorpd xmm1,xmm1,xmm1
  405bf4:	c4 c1 72 5a 45 00    	vcvtss2sd xmm0,xmm1,DWORD PTR [r13+0x0]
  405bfa:	48 89 ef             	mov    rdi,rbp
  405bfd:	b8 01 00 00 00       	mov    eax,0x1
  405c02:	49 83 c5 04          	add    r13,0x4
  405c06:	e8 45 c4 ff ff       	call   402050 <printf@plt>
  405c0b:	49 39 dd             	cmp    r13,rbx
  405c0e:	75 e0                	jne    405bf0 <_ZN12intel_mlperf15print_2d_matrixIfEEvPKT_iii+0x70>
  405c10:	bf 0a 00 00 00       	mov    edi,0xa
  405c15:	41 ff c4             	inc    r12d
  405c18:	e8 a3 c5 ff ff       	call   4021c0 <putchar@plt>
  405c1d:	48 03 5c 24 08       	add    rbx,QWORD PTR [rsp+0x8]
  405c22:	44 39 64 24 04       	cmp    DWORD PTR [rsp+0x4],r12d
  405c27:	75 b7                	jne    405be0 <_ZN12intel_mlperf15print_2d_matrixIfEEvPKT_iii+0x60>
  405c29:	48 83 c4 18          	add    rsp,0x18
  405c2d:	5b                   	pop    rbx
  405c2e:	5d                   	pop    rbp
  405c2f:	41 5c                	pop    r12
  405c31:	41 5d                	pop    r13
  405c33:	41 5e                	pop    r14
  405c35:	48 8d 3d 7c 57 00 00 	lea    rdi,[rip+0x577c]        # 40b3b8 <__dso_handle+0x3b0>
  405c3c:	41 5f                	pop    r15
  405c3e:	e9 cd c5 ff ff       	jmp    402210 <puts@plt>
  405c43:	66 66 2e 0f 1f 84 00 	data16 cs nop WORD PTR [rax+rax*1+0x0]
  405c4a:	00 00 00 00 
  405c4e:	66 90                	xchg   ax,ax

0000000000405c50 <_ZN12intel_mlperf19compare_naive_inputEPiPaiiii>:
  405c50:	41 57                	push   r15
  405c52:	49 63 c1             	movsxd rax,r9d
  405c55:	41 56                	push   r14
  405c57:	41 89 d6             	mov    r14d,edx
  405c5a:	41 55                	push   r13
  405c5c:	4d 63 e8             	movsxd r13,r8d
  405c5f:	41 54                	push   r12
  405c61:	49 89 fc             	mov    r12,rdi
  405c64:	48 8d 3d 85 57 00 00 	lea    rdi,[rip+0x5785]        # 40b3f0 <__dso_handle+0x3e8>
  405c6b:	55                   	push   rbp
  405c6c:	48 89 f5             	mov    rbp,rsi
  405c6f:	53                   	push   rbx
  405c70:	48 63 d9             	movsxd rbx,ecx
  405c73:	48 83 ec 28          	sub    rsp,0x28
  405c77:	89 54 24 14          	mov    DWORD PTR [rsp+0x14],edx
  405c7b:	48 89 44 24 08       	mov    QWORD PTR [rsp+0x8],rax
  405c80:	e8 8b c5 ff ff       	call   402210 <puts@plt>
  405c85:	45 85 f6             	test   r14d,r14d
  405c88:	7e 66                	jle    405cf0 <_ZN12intel_mlperf19compare_naive_inputEPiPaiiii+0xa0>
  405c8a:	85 db                	test   ebx,ebx
  405c8c:	7e 62                	jle    405cf0 <_ZN12intel_mlperf19compare_naive_inputEPiPaiiii+0xa0>
  405c8e:	4a 8d 04 ad 00 00 00 	lea    rax,[r13*4+0x0]
  405c95:	00 
  405c96:	48 89 44 24 18       	mov    QWORD PTR [rsp+0x18],rax
  405c9b:	4d 89 e5             	mov    r13,r12
  405c9e:	49 89 ee             	mov    r14,rbp
  405ca1:	4c 8d 25 cb 57 00 00 	lea    r12,[rip+0x57cb]        # 40b473 <__dso_handle+0x46b>
  405ca8:	31 ed                	xor    ebp,ebp
  405caa:	66 0f 1f 44 00 00    	nop    WORD PTR [rax+rax*1+0x0]
  405cb0:	45 31 ff             	xor    r15d,r15d
  405cb3:	0f 1f 44 00 00       	nop    DWORD PTR [rax+rax*1+0x0]
  405cb8:	43 8b 4c bd 00       	mov    ecx,DWORD PTR [r13+r15*4+0x0]
  405cbd:	47 0f be 04 3e       	movsx  r8d,BYTE PTR [r14+r15*1]
  405cc2:	44 89 fa             	mov    edx,r15d
  405cc5:	41 38 c8             	cmp    r8b,cl
  405cc8:	74 0c                	je     405cd6 <_ZN12intel_mlperf19compare_naive_inputEPiPaiiii+0x86>
  405cca:	89 ee                	mov    esi,ebp
  405ccc:	4c 89 e7             	mov    rdi,r12
  405ccf:	31 c0                	xor    eax,eax
  405cd1:	e8 7a c3 ff ff       	call   402050 <printf@plt>
  405cd6:	49 ff c7             	inc    r15
  405cd9:	49 39 df             	cmp    r15,rbx
  405cdc:	75 da                	jne    405cb8 <_ZN12intel_mlperf19compare_naive_inputEPiPaiiii+0x68>
  405cde:	ff c5                	inc    ebp
  405ce0:	4c 03 6c 24 18       	add    r13,QWORD PTR [rsp+0x18]
  405ce5:	4c 03 74 24 08       	add    r14,QWORD PTR [rsp+0x8]
  405cea:	39 6c 24 14          	cmp    DWORD PTR [rsp+0x14],ebp
  405cee:	75 c0                	jne    405cb0 <_ZN12intel_mlperf19compare_naive_inputEPiPaiiii+0x60>
  405cf0:	48 83 c4 28          	add    rsp,0x28
  405cf4:	5b                   	pop    rbx
  405cf5:	5d                   	pop    rbp
  405cf6:	41 5c                	pop    r12
  405cf8:	41 5d                	pop    r13
  405cfa:	41 5e                	pop    r14
  405cfc:	48 8d 3d 25 57 00 00 	lea    rdi,[rip+0x5725]        # 40b428 <__dso_handle+0x420>
  405d03:	41 5f                	pop    r15
  405d05:	e9 06 c5 ff ff       	jmp    402210 <puts@plt>
  405d0a:	66 0f 1f 44 00 00    	nop    WORD PTR [rax+rax*1+0x0]

0000000000405d10 <_ZN12intel_mlperf20compare_naive_weightEPiPaiiii>:
  405d10:	41 57                	push   r15
  405d12:	49 63 c1             	movsxd rax,r9d
  405d15:	41 56                	push   r14
  405d17:	41 89 d6             	mov    r14d,edx
  405d1a:	41 55                	push   r13
  405d1c:	49 89 fd             	mov    r13,rdi
  405d1f:	48 8d 3d ca 56 00 00 	lea    rdi,[rip+0x56ca]        # 40b3f0 <__dso_handle+0x3e8>
  405d26:	41 54                	push   r12
  405d28:	55                   	push   rbp
  405d29:	48 89 f5             	mov    rbp,rsi
  405d2c:	53                   	push   rbx
  405d2d:	49 63 d8             	movsxd rbx,r8d
  405d30:	48 83 ec 28          	sub    rsp,0x28
  405d34:	89 54 24 1c          	mov    DWORD PTR [rsp+0x1c],edx
  405d38:	89 0c 24             	mov    DWORD PTR [rsp],ecx
  405d3b:	48 89 44 24 10       	mov    QWORD PTR [rsp+0x10],rax
  405d40:	e8 cb c4 ff ff       	call   402210 <puts@plt>
  405d45:	45 85 f6             	test   r14d,r14d
  405d48:	0f 8e ad 00 00 00    	jle    405dfb <_ZN12intel_mlperf20compare_naive_weightEPiPaiiii+0xeb>
  405d4e:	8b 14 24             	mov    edx,DWORD PTR [rsp]
  405d51:	85 d2                	test   edx,edx
  405d53:	0f 8e a2 00 00 00    	jle    405dfb <_ZN12intel_mlperf20compare_naive_weightEPiPaiiii+0xeb>
  405d59:	48 8d 04 9d 00 00 00 	lea    rax,[rbx*4+0x0]
  405d60:	00 
  405d61:	48 89 04 24          	mov    QWORD PTR [rsp],rax
  405d65:	48 63 c2             	movsxd rax,edx
  405d68:	48 89 44 24 08       	mov    QWORD PTR [rsp+0x8],rax
  405d6d:	49 89 ec             	mov    r12,rbp
  405d70:	4d 89 ef             	mov    r15,r13
  405d73:	45 31 f6             	xor    r14d,r14d
  405d76:	66 2e 0f 1f 84 00 00 	cs nop WORD PTR [rax+rax*1+0x0]
  405d7d:	00 00 00 
  405d80:	4c 89 e0             	mov    rax,r12
  405d83:	42 8d 2c b5 00 00 00 	lea    ebp,[r14*4+0x0]
  405d8a:	00 
  405d8b:	4d 89 fc             	mov    r12,r15
  405d8e:	31 db                	xor    ebx,ebx
  405d90:	49 89 c7             	mov    r15,rax
  405d93:	0f 1f 44 00 00       	nop    DWORD PTR [rax+rax*1+0x0]
  405d98:	89 d8                	mov    eax,ebx
  405d9a:	83 e0 03             	and    eax,0x3
  405d9d:	01 e8                	add    eax,ebp
  405d9f:	48 98                	cdqe   
  405da1:	89 d9                	mov    ecx,ebx
  405da3:	c1 f9 02             	sar    ecx,0x2
  405da6:	48 0f af 04 24       	imul   rax,QWORD PTR [rsp]
  405dab:	48 63 c9             	movsxd rcx,ecx
  405dae:	45 0f be 04 1f       	movsx  r8d,BYTE PTR [r15+rbx*1]
  405db3:	49 8d 4c 8d 00       	lea    rcx,[r13+rcx*4+0x0]
  405db8:	89 da                	mov    edx,ebx
  405dba:	44 3a 04 01          	cmp    r8b,BYTE PTR [rcx+rax*1]
  405dbe:	74 15                	je     405dd5 <_ZN12intel_mlperf20compare_naive_weightEPiPaiiii+0xc5>
  405dc0:	41 8b 0c 9c          	mov    ecx,DWORD PTR [r12+rbx*4]
  405dc4:	44 89 f6             	mov    esi,r14d
  405dc7:	48 8d 3d a5 56 00 00 	lea    rdi,[rip+0x56a5]        # 40b473 <__dso_handle+0x46b>
  405dce:	31 c0                	xor    eax,eax
  405dd0:	e8 7b c2 ff ff       	call   402050 <printf@plt>
  405dd5:	48 ff c3             	inc    rbx
  405dd8:	48 39 5c 24 08       	cmp    QWORD PTR [rsp+0x8],rbx
  405ddd:	75 b9                	jne    405d98 <_ZN12intel_mlperf20compare_naive_weightEPiPaiiii+0x88>
  405ddf:	4c 89 f8             	mov    rax,r15
  405de2:	41 ff c6             	inc    r14d
  405de5:	4d 89 e7             	mov    r15,r12
  405de8:	49 89 c4             	mov    r12,rax
  405deb:	4c 03 64 24 10       	add    r12,QWORD PTR [rsp+0x10]
  405df0:	4c 03 3c 24          	add    r15,QWORD PTR [rsp]
  405df4:	44 39 74 24 1c       	cmp    DWORD PTR [rsp+0x1c],r14d
  405df9:	75 85                	jne    405d80 <_ZN12intel_mlperf20compare_naive_weightEPiPaiiii+0x70>
  405dfb:	48 83 c4 28          	add    rsp,0x28
  405dff:	5b                   	pop    rbx
  405e00:	5d                   	pop    rbp
  405e01:	41 5c                	pop    r12
  405e03:	41 5d                	pop    r13
  405e05:	41 5e                	pop    r14
  405e07:	48 8d 3d 1a 56 00 00 	lea    rdi,[rip+0x561a]        # 40b428 <__dso_handle+0x420>
  405e0e:	41 5f                	pop    r15
  405e10:	e9 fb c3 ff ff       	jmp    402210 <puts@plt>
  405e15:	66 66 2e 0f 1f 84 00 	data16 cs nop WORD PTR [rax+rax*1+0x0]
  405e1c:	00 00 00 00 

0000000000405e20 <_ZN12intel_mlperf20compare_naive_outputEPiPaiiii>:
  405e20:	41 57                	push   r15
  405e22:	49 63 c1             	movsxd rax,r9d
  405e25:	49 89 f7             	mov    r15,rsi
  405e28:	41 56                	push   r14
  405e2a:	41 89 d6             	mov    r14d,edx
  405e2d:	41 55                	push   r13
  405e2f:	4d 63 e8             	movsxd r13,r8d
  405e32:	41 54                	push   r12
  405e34:	55                   	push   rbp
  405e35:	48 89 fd             	mov    rbp,rdi
  405e38:	48 8d 3d b1 55 00 00 	lea    rdi,[rip+0x55b1]        # 40b3f0 <__dso_handle+0x3e8>
  405e3f:	53                   	push   rbx
  405e40:	48 63 d9             	movsxd rbx,ecx
  405e43:	48 83 ec 28          	sub    rsp,0x28
  405e47:	89 54 24 14          	mov    DWORD PTR [rsp+0x14],edx
  405e4b:	48 89 44 24 08       	mov    QWORD PTR [rsp+0x8],rax
  405e50:	e8 bb c3 ff ff       	call   402210 <puts@plt>
  405e55:	45 85 f6             	test   r14d,r14d
  405e58:	7e 65                	jle    405ebf <_ZN12intel_mlperf20compare_naive_outputEPiPaiiii+0x9f>
  405e5a:	85 db                	test   ebx,ebx
  405e5c:	7e 61                	jle    405ebf <_ZN12intel_mlperf20compare_naive_outputEPiPaiiii+0x9f>
  405e5e:	4a 8d 04 ad 00 00 00 	lea    rax,[r13*4+0x0]
  405e65:	00 
  405e66:	48 89 44 24 18       	mov    QWORD PTR [rsp+0x18],rax
  405e6b:	49 89 ee             	mov    r14,rbp
  405e6e:	4c 8d 25 fe 55 00 00 	lea    r12,[rip+0x55fe]        # 40b473 <__dso_handle+0x46b>
  405e75:	31 ed                	xor    ebp,ebp
  405e77:	66 0f 1f 84 00 00 00 	nop    WORD PTR [rax+rax*1+0x0]
  405e7e:	00 00 
  405e80:	45 31 ed             	xor    r13d,r13d
  405e83:	0f 1f 44 00 00       	nop    DWORD PTR [rax+rax*1+0x0]
  405e88:	47 0f be 04 2f       	movsx  r8d,BYTE PTR [r15+r13*1]
  405e8d:	43 8b 0c ae          	mov    ecx,DWORD PTR [r14+r13*4]
  405e91:	44 89 ea             	mov    edx,r13d
  405e94:	41 38 c8             	cmp    r8b,cl
  405e97:	74 0c                	je     405ea5 <_ZN12intel_mlperf20compare_naive_outputEPiPaiiii+0x85>
  405e99:	89 ee                	mov    esi,ebp
  405e9b:	4c 89 e7             	mov    rdi,r12
  405e9e:	31 c0                	xor    eax,eax
  405ea0:	e8 ab c1 ff ff       	call   402050 <printf@plt>
  405ea5:	49 ff c5             	inc    r13
  405ea8:	49 39 dd             	cmp    r13,rbx
  405eab:	75 db                	jne    405e88 <_ZN12intel_mlperf20compare_naive_outputEPiPaiiii+0x68>
  405ead:	ff c5                	inc    ebp
  405eaf:	4c 03 7c 24 08       	add    r15,QWORD PTR [rsp+0x8]
  405eb4:	4c 03 74 24 18       	add    r14,QWORD PTR [rsp+0x18]
  405eb9:	39 6c 24 14          	cmp    DWORD PTR [rsp+0x14],ebp
  405ebd:	75 c1                	jne    405e80 <_ZN12intel_mlperf20compare_naive_outputEPiPaiiii+0x60>
  405ebf:	48 83 c4 28          	add    rsp,0x28
  405ec3:	5b                   	pop    rbx
  405ec4:	5d                   	pop    rbp
  405ec5:	41 5c                	pop    r12
  405ec7:	41 5d                	pop    r13
  405ec9:	41 5e                	pop    r14
  405ecb:	48 8d 3d 56 55 00 00 	lea    rdi,[rip+0x5556]        # 40b428 <__dso_handle+0x420>
  405ed2:	41 5f                	pop    r15
  405ed4:	e9 37 c3 ff ff       	jmp    402210 <puts@plt>
  405ed9:	0f 1f 80 00 00 00 00 	nop    DWORD PTR [rax+0x0]

0000000000405ee0 <_ZN12intel_mlperf8amx_initEv>:
  405ee0:	41 54                	push   r12
  405ee2:	31 c0                	xor    eax,eax
  405ee4:	be 22 10 00 00       	mov    esi,0x1022
  405ee9:	48 83 ec 10          	sub    rsp,0x10
  405eed:	4c 8d 64 24 08       	lea    r12,[rsp+0x8]
  405ef2:	4c 89 e2             	mov    rdx,r12
  405ef5:	bf 9e 00 00 00       	mov    edi,0x9e
  405efa:	48 c7 44 24 08 00 00 	mov    QWORD PTR [rsp+0x8],0x0
  405f01:	00 00 
  405f03:	e8 68 c1 ff ff       	call   402070 <syscall@plt>
  405f08:	48 85 c0             	test   rax,rax
  405f0b:	75 2e                	jne    405f3b <_ZN12intel_mlperf8amx_initEv+0x5b>
  405f0d:	f6 44 24 0a 04       	test   BYTE PTR [rsp+0xa],0x4
  405f12:	74 0c                	je     405f20 <_ZN12intel_mlperf8amx_initEv+0x40>
  405f14:	48 83 c4 10          	add    rsp,0x10
  405f18:	b8 01 00 00 00       	mov    eax,0x1
  405f1d:	41 5c                	pop    r12
  405f1f:	c3                   	ret    
  405f20:	31 c0                	xor    eax,eax
  405f22:	ba 12 00 00 00       	mov    edx,0x12
  405f27:	be 23 10 00 00       	mov    esi,0x1023
  405f2c:	bf 9e 00 00 00       	mov    edi,0x9e
  405f31:	e8 3a c1 ff ff       	call   402070 <syscall@plt>
  405f36:	48 85 c0             	test   rax,rax
  405f39:	74 0d                	je     405f48 <_ZN12intel_mlperf8amx_initEv+0x68>
  405f3b:	48 83 c4 10          	add    rsp,0x10
  405f3f:	31 c0                	xor    eax,eax
  405f41:	41 5c                	pop    r12
  405f43:	c3                   	ret    
  405f44:	0f 1f 40 00          	nop    DWORD PTR [rax+0x0]
  405f48:	4c 89 e2             	mov    rdx,r12
  405f4b:	be 22 10 00 00       	mov    esi,0x1022
  405f50:	bf 9e 00 00 00       	mov    edi,0x9e
  405f55:	e8 16 c1 ff ff       	call   402070 <syscall@plt>
  405f5a:	48 85 c0             	test   rax,rax
  405f5d:	75 dc                	jne    405f3b <_ZN12intel_mlperf8amx_initEv+0x5b>
  405f5f:	f6 44 24 0a 04       	test   BYTE PTR [rsp+0xa],0x4
  405f64:	75 ae                	jne    405f14 <_ZN12intel_mlperf8amx_initEv+0x34>
  405f66:	eb d3                	jmp    405f3b <_ZN12intel_mlperf8amx_initEv+0x5b>
  405f68:	0f 1f 84 00 00 00 00 	nop    DWORD PTR [rax+rax*1+0x0]
  405f6f:	00 

0000000000405f70 <_ZN12intel_mlperf8i_linear23tile_dot_product_16x256EiiPvmS1_S1_S1_f>:
  405f70:	41 57                	push   r15
  405f72:	41 89 f3             	mov    r11d,esi
  405f75:	49 89 fa             	mov    r10,rdi
  405f78:	41 56                	push   r14
  405f7a:	41 55                	push   r13
  405f7c:	41 54                	push   r12
  405f7e:	55                   	push   rbp
  405f7f:	53                   	push   rbx
  405f80:	48 81 ec a8 00 00 00 	sub    rsp,0xa8
  405f87:	83 fa 10             	cmp    edx,0x10
  405f8a:	0f 95 c0             	setne  al
  405f8d:	0f b6 c0             	movzx  eax,al
  405f90:	89 74 24 58          	mov    DWORD PTR [rsp+0x58],esi
  405f94:	48 8d 70 04          	lea    rsi,[rax+0x4]
  405f98:	48 83 c0 02          	add    rax,0x2
  405f9c:	48 c1 e6 04          	shl    rsi,0x4
  405fa0:	48 c1 e0 04          	shl    rax,0x4
  405fa4:	48 81 c6 20 dc 40 00 	add    rsi,0x40dc20
  405fab:	48 81 c0 20 dc 40 00 	add    rax,0x40dc20
  405fb2:	4c 8b 36             	mov    r14,QWORD PTR [rsi]
  405fb5:	48 89 4c 24 70       	mov    QWORD PTR [rsp+0x70],rcx
  405fba:	48 8b 5e 08          	mov    rbx,QWORD PTR [rsi+0x8]
  405fbe:	4c 8b 38             	mov    r15,QWORD PTR [rax]
  405fc1:	48 8b 70 08          	mov    rsi,QWORD PTR [rax+0x8]
  405fc5:	49 8b 4a 28          	mov    rcx,QWORD PTR [r10+0x28]
  405fc9:	48 89 7c 24 48       	mov    QWORD PTR [rsp+0x48],rdi
  405fce:	4c 89 4c 24 60       	mov    QWORD PTR [rsp+0x60],r9
  405fd3:	4c 89 74 24 08       	mov    QWORD PTR [rsp+0x8],r14
  405fd8:	4c 89 7c 24 78       	mov    QWORD PTR [rsp+0x78],r15
  405fdd:	48 89 b4 24 80 00 00 	mov    QWORD PTR [rsp+0x80],rsi
  405fe4:	00 
  405fe5:	48 8b 7f 20          	mov    rdi,QWORD PTR [rdi+0x20]
  405fe9:	49 8b 52 08          	mov    rdx,QWORD PTR [r10+0x8]
  405fed:	c5 fa 11 44 24 20    	vmovss DWORD PTR [rsp+0x20],xmm0
  405ff3:	48 85 c9             	test   rcx,rcx
  405ff6:	0f 84 57 01 00 00    	je     406153 <_ZN12intel_mlperf8i_linear23tile_dot_product_16x256EiiPvmS1_S1_S1_f+0x1e3>
  405ffc:	44 89 d8             	mov    eax,r11d
  405fff:	c1 e8 1f             	shr    eax,0x1f
  406002:	44 01 d8             	add    eax,r11d
  406005:	44 89 de             	mov    esi,r11d
  406008:	d1 f8                	sar    eax,1
  40600a:	c1 ee 1f             	shr    esi,0x1f
  40600d:	89 44 24 24          	mov    DWORD PTR [rsp+0x24],eax
  406011:	4d 89 c5             	mov    r13,r8
  406014:	41 89 c0             	mov    r8d,eax
  406017:	41 8d 04 33          	lea    eax,[r11+rsi*1]
  40601b:	83 e0 01             	and    eax,0x1
  40601e:	29 f0                	sub    eax,esi
  406020:	89 44 24 5c          	mov    DWORD PTR [rsp+0x5c],eax
  406024:	48 8b 44 24 70       	mov    rax,QWORD PTR [rsp+0x70]
  406029:	41 83 e6 01          	and    r14d,0x1
  40602d:	48 89 44 24 40       	mov    QWORD PTR [rsp+0x40],rax
  406032:	48 89 c8             	mov    rax,rcx
  406035:	48 c1 e0 0b          	shl    rax,0xb
  406039:	48 89 44 24 10       	mov    QWORD PTR [rsp+0x10],rax
  40603e:	48 89 d0             	mov    rax,rdx
  406041:	48 c1 e0 05          	shl    rax,0x5
  406045:	41 83 e7 01          	and    r15d,0x1
  406049:	48 c1 e7 0c          	shl    rdi,0xc
  40604d:	48 89 44 24 18       	mov    QWORD PTR [rsp+0x18],rax
  406052:	45 85 c0             	test   r8d,r8d
  406055:	b8 01 00 00 00       	mov    eax,0x1
  40605a:	41 0f 4f c0          	cmovg  eax,r8d
  40605e:	31 f6                	xor    esi,esi
  406060:	41 83 fb 01          	cmp    r11d,0x1
  406064:	0f 4e c6             	cmovle eax,esi
  406067:	4c 01 d3             	add    rbx,r10
  40606a:	01 c0                	add    eax,eax
  40606c:	48 0f af d0          	imul   rdx,rax
  406070:	48 0f af c1          	imul   rax,rcx
  406074:	4c 89 74 24 68       	mov    QWORD PTR [rsp+0x68],r14
  406079:	48 c1 e2 04          	shl    rdx,0x4
  40607d:	4c 01 ca             	add    rdx,r9
  406080:	48 c1 e0 0a          	shl    rax,0xa
  406084:	4c 89 bc 24 88 00 00 	mov    QWORD PTR [rsp+0x88],r15
  40608b:	00 
  40608c:	48 89 7c 24 50       	mov    QWORD PTR [rsp+0x50],rdi
  406091:	48 89 94 24 90 00 00 	mov    QWORD PTR [rsp+0x90],rdx
  406098:	00 
  406099:	48 89 84 24 98 00 00 	mov    QWORD PTR [rsp+0x98],rax
  4060a0:	00 
  4060a1:	48 c7 44 24 38 00 00 	mov    QWORD PTR [rsp+0x38],0x0
  4060a8:	00 00 
  4060aa:	48 89 5c 24 30       	mov    QWORD PTR [rsp+0x30],rbx
  4060af:	4c 8b a4 24 e0 00 00 	mov    r12,QWORD PTR [rsp+0xe0]
  4060b6:	00 
  4060b7:	48 8b ac 24 e8 00 00 	mov    rbp,QWORD PTR [rsp+0xe8]
  4060be:	00 
  4060bf:	90                   	nop
  4060c0:	83 7c 24 58 01       	cmp    DWORD PTR [rsp+0x58],0x1
  4060c5:	7e 56                	jle    40611d <_ZN12intel_mlperf8i_linear23tile_dot_product_16x256EiiPvmS1_S1_S1_f+0x1ad>
  4060c7:	45 31 f6             	xor    r14d,r14d
  4060ca:	48 83 7c 24 68 00    	cmp    QWORD PTR [rsp+0x68],0x0
  4060d0:	48 8b 4c 24 60       	mov    rcx,QWORD PTR [rsp+0x60]
  4060d5:	4c 8b 7c 24 40       	mov    r15,QWORD PTR [rsp+0x40]
  4060da:	0f 85 88 00 00 00    	jne    406168 <_ZN12intel_mlperf8i_linear23tile_dot_product_16x256EiiPvmS1_S1_S1_f+0x1f8>
  4060e0:	48 89 cb             	mov    rbx,rcx
  4060e3:	0f 1f 44 00 00       	nop    DWORD PTR [rax+rax*1+0x0]
  4060e8:	c5 fa 10 44 24 20    	vmovss xmm0,DWORD PTR [rsp+0x20]
  4060ee:	48 8b 7c 24 30       	mov    rdi,QWORD PTR [rsp+0x30]
  4060f3:	48 8b 44 24 08       	mov    rax,QWORD PTR [rsp+0x8]
  4060f8:	48 89 d9             	mov    rcx,rbx
  4060fb:	4c 89 fe             	mov    rsi,r15
  4060fe:	49 89 e9             	mov    r9,rbp
  406101:	4d 89 e0             	mov    r8,r12
  406104:	4c 89 ea             	mov    rdx,r13
  406107:	41 ff c6             	inc    r14d
  40610a:	ff d0                	call   rax
  40610c:	4c 03 7c 24 10       	add    r15,QWORD PTR [rsp+0x10]
  406111:	48 03 5c 24 18       	add    rbx,QWORD PTR [rsp+0x18]
  406116:	44 39 74 24 24       	cmp    DWORD PTR [rsp+0x24],r14d
  40611b:	7f cb                	jg     4060e8 <_ZN12intel_mlperf8i_linear23tile_dot_product_16x256EiiPvmS1_S1_S1_f+0x178>
  40611d:	83 7c 24 5c 01       	cmp    DWORD PTR [rsp+0x5c],0x1
  406122:	0f 84 a2 00 00 00    	je     4061ca <_ZN12intel_mlperf8i_linear23tile_dot_product_16x256EiiPvmS1_S1_S1_f+0x25a>
  406128:	48 ff 44 24 38       	inc    QWORD PTR [rsp+0x38]
  40612d:	48 8b 7c 24 48       	mov    rdi,QWORD PTR [rsp+0x48]
  406132:	48 83 44 24 40 40    	add    QWORD PTR [rsp+0x40],0x40
  406138:	4c 03 64 24 50       	add    r12,QWORD PTR [rsp+0x50]
  40613d:	48 8b 44 24 38       	mov    rax,QWORD PTR [rsp+0x38]
  406142:	48 81 c5 00 01 00 00 	add    rbp,0x100
  406149:	48 39 47 28          	cmp    QWORD PTR [rdi+0x28],rax
  40614d:	0f 87 6d ff ff ff    	ja     4060c0 <_ZN12intel_mlperf8i_linear23tile_dot_product_16x256EiiPvmS1_S1_S1_f+0x150>
  406153:	48 81 c4 a8 00 00 00 	add    rsp,0xa8
  40615a:	5b                   	pop    rbx
  40615b:	5d                   	pop    rbp
  40615c:	41 5c                	pop    r12
  40615e:	41 5d                	pop    r13
  406160:	41 5e                	pop    r14
  406162:	41 5f                	pop    r15
  406164:	c3                   	ret    
  406165:	0f 1f 00             	nop    DWORD PTR [rax]
  406168:	48 89 6c 24 28       	mov    QWORD PTR [rsp+0x28],rbp
  40616d:	48 8b 6c 24 30       	mov    rbp,QWORD PTR [rsp+0x30]
  406172:	44 89 f3             	mov    ebx,r14d
  406175:	49 89 ce             	mov    r14,rcx
  406178:	0f 1f 84 00 00 00 00 	nop    DWORD PTR [rax+rax*1+0x0]
  40617f:	00 
  406180:	4c 8b 55 00          	mov    r10,QWORD PTR [rbp+0x0]
  406184:	c5 fa 10 44 24 20    	vmovss xmm0,DWORD PTR [rsp+0x20]
  40618a:	4c 8b 4c 24 28       	mov    r9,QWORD PTR [rsp+0x28]
  40618f:	48 8b 44 24 08       	mov    rax,QWORD PTR [rsp+0x8]
  406194:	4c 89 f1             	mov    rcx,r14
  406197:	4c 89 fe             	mov    rsi,r15
  40619a:	4d 89 e0             	mov    r8,r12
  40619d:	4c 89 ea             	mov    rdx,r13
  4061a0:	48 89 ef             	mov    rdi,rbp
  4061a3:	ff c3                	inc    ebx
  4061a5:	42 ff 54 10 ff       	call   QWORD PTR [rax+r10*1-0x1]
  4061aa:	4c 03 7c 24 10       	add    r15,QWORD PTR [rsp+0x10]
  4061af:	4c 03 74 24 18       	add    r14,QWORD PTR [rsp+0x18]
  4061b4:	3b 5c 24 24          	cmp    ebx,DWORD PTR [rsp+0x24]
  4061b8:	7c c6                	jl     406180 <_ZN12intel_mlperf8i_linear23tile_dot_product_16x256EiiPvmS1_S1_S1_f+0x210>
  4061ba:	83 7c 24 5c 01       	cmp    DWORD PTR [rsp+0x5c],0x1
  4061bf:	48 8b 6c 24 28       	mov    rbp,QWORD PTR [rsp+0x28]
  4061c4:	0f 85 5e ff ff ff    	jne    406128 <_ZN12intel_mlperf8i_linear23tile_dot_product_16x256EiiPvmS1_S1_S1_f+0x1b8>
  4061ca:	48 8b 7c 24 48       	mov    rdi,QWORD PTR [rsp+0x48]
  4061cf:	48 8b 4c 24 78       	mov    rcx,QWORD PTR [rsp+0x78]
  4061d4:	48 03 bc 24 80 00 00 	add    rdi,QWORD PTR [rsp+0x80]
  4061db:	00 
  4061dc:	48 83 bc 24 88 00 00 	cmp    QWORD PTR [rsp+0x88],0x0
  4061e3:	00 00 
  4061e5:	48 89 c8             	mov    rax,rcx
  4061e8:	74 08                	je     4061f2 <_ZN12intel_mlperf8i_linear23tile_dot_product_16x256EiiPvmS1_S1_S1_f+0x282>
  4061ea:	48 8b 07             	mov    rax,QWORD PTR [rdi]
  4061ed:	48 8b 44 08 ff       	mov    rax,QWORD PTR [rax+rcx*1-0x1]
  4061f2:	48 8b 74 24 38       	mov    rsi,QWORD PTR [rsp+0x38]
  4061f7:	c5 fa 10 44 24 20    	vmovss xmm0,DWORD PTR [rsp+0x20]
  4061fd:	48 c1 e6 06          	shl    rsi,0x6
  406201:	48 03 b4 24 98 00 00 	add    rsi,QWORD PTR [rsp+0x98]
  406208:	00 
  406209:	48 8b 8c 24 90 00 00 	mov    rcx,QWORD PTR [rsp+0x90]
  406210:	00 
  406211:	48 03 74 24 70       	add    rsi,QWORD PTR [rsp+0x70]
  406216:	49 89 e9             	mov    r9,rbp
  406219:	4d 89 e0             	mov    r8,r12
  40621c:	4c 89 ea             	mov    rdx,r13
  40621f:	ff d0                	call   rax
  406221:	e9 02 ff ff ff       	jmp    406128 <_ZN12intel_mlperf8i_linear23tile_dot_product_16x256EiiPvmS1_S1_S1_f+0x1b8>
  406226:	66 2e 0f 1f 84 00 00 	cs nop WORD PTR [rax+rax*1+0x0]
  40622d:	00 00 00 

0000000000406230 <_ZN12intel_mlperf8i_linear3refEPvS1_S1_S1_f>:
  406230:	48 83 ec 08          	sub    rsp,0x8
  406234:	41 50                	push   r8
  406236:	48 8b 07             	mov    rax,QWORD PTR [rdi]
  406239:	49 89 f2             	mov    r10,rsi
  40623c:	51                   	push   rcx
  40623d:	49 89 d1             	mov    r9,rdx
  406240:	48 8d 70 0f          	lea    rsi,[rax+0xf]
  406244:	4c 8b 47 10          	mov    r8,QWORD PTR [rdi+0x10]
  406248:	8b 57 20             	mov    edx,DWORD PTR [rdi+0x20]
  40624b:	48 c1 ee 04          	shr    rsi,0x4
  40624f:	4c 89 d1             	mov    rcx,r10
  406252:	e8 19 fd ff ff       	call   405f70 <_ZN12intel_mlperf8i_linear23tile_dot_product_16x256EiiPvmS1_S1_S1_f>
  406257:	48 83 c4 18          	add    rsp,0x18
  40625b:	c3                   	ret    
  40625c:	0f 1f 40 00          	nop    DWORD PTR [rax+0x0]

0000000000406260 <_ZN12intel_mlperf8i_linear13compute_blockILi1ELi16EEEvPvmS2_S2_Pff>:
  406260:	48 89 f7             	mov    rdi,rsi
  406263:	48 89 d6             	mov    rsi,rdx
  406266:	48 89 ca             	mov    rdx,rcx
  406269:	4c 89 c1             	mov    rcx,r8
  40626c:	4d 89 c8             	mov    r8,r9
  40626f:	e9 5c e9 ff ff       	jmp    404bd0 <_ZN12intel_mlperf24_tile_dot_product_16x256ILi1ELi16ENS_9io_policyILi16ELNS_8i_formatE0EEEE7computeEPvmS5_S5_Pff>
  406274:	66 2e 0f 1f 84 00 00 	cs nop WORD PTR [rax+rax*1+0x0]
  40627b:	00 00 00 
  40627e:	66 90                	xchg   ax,ax

0000000000406280 <_ZN12intel_mlperf24_tile_dot_product_16x256ILi1ELi64ENS_9io_policyILi64ELNS_8i_formatE0EEEE7computeEPvmS5_S5_Pff>:
  406280:	55                   	push   rbp
  406281:	49 89 f9             	mov    r9,rdi
  406284:	49 89 f2             	mov    r10,rsi
  406287:	48 89 e5             	mov    rbp,rsp
  40628a:	41 54                	push   r12
  40628c:	49 89 cb             	mov    r11,rcx
  40628f:	53                   	push   rbx
  406290:	48 83 e4 c0          	and    rsp,0xffffffffffffffc0
  406294:	48 81 ec 88 0f 00 00 	sub    rsp,0xf88
  40629b:	c4 e2 7b 49 c0       	tilezero tmm0
  4062a0:	c4 e2 7b 49 c8       	tilezero tmm1
  4062a5:	be 40 00 00 00       	mov    esi,0x40
  4062aa:	4c 8d a1 00 00 01 00 	lea    r12,[rcx+0x10000]
  4062b1:	4c 89 d8             	mov    rax,r11
  4062b4:	48 89 d1             	mov    rcx,rdx
  4062b7:	bb 00 10 00 00       	mov    ebx,0x1000
  4062bc:	0f 1f 40 00          	nop    DWORD PTR [rax+0x0]
  4062c0:	c4 e2 7b 4b 34 30    	tileloadd tmm6,[rax+rsi*1]
  4062c6:	c4 e2 7b 4b 24 19    	tileloadd tmm4,[rcx+rbx*1]
  4062cc:	c4 e2 4b 5e c4       	tdpbssd tmm0,tmm4,tmm6
  4062d1:	48 8d b8 00 00 01 00 	lea    rdi,[rax+0x10000]
  4062d8:	c4 e2 7b 4b 3c 37    	tileloadd tmm7,[rdi+rsi*1]
  4062de:	c4 e2 43 5e cc       	tdpbssd tmm1,tmm4,tmm7
  4062e3:	48 05 00 04 00 00    	add    rax,0x400
  4062e9:	48 83 c1 40          	add    rcx,0x40
  4062ed:	49 39 c4             	cmp    r12,rax
  4062f0:	75 ce                	jne    4062c0 <_ZN12intel_mlperf24_tile_dot_product_16x256ILi1ELi64ENS_9io_policyILi64ELNS_8i_formatE0EEEE7computeEPvmS5_S5_Pff+0x40>
  4062f2:	48 8d 44 24 88       	lea    rax,[rsp-0x78]
  4062f7:	c4 e2 7a 4b 04 30    	tilestored [rax+rsi*1],tmm0
  4062fd:	48 8d bc 24 88 03 00 	lea    rdi,[rsp+0x388]
  406304:	00 
  406305:	c4 e2 7a 4b 0c 37    	tilestored [rdi+rsi*1],tmm1
  40630b:	c4 e2 7b 49 c0       	tilezero tmm0
  406310:	c4 e2 7b 49 c8       	tilezero tmm1
  406315:	b9 40 00 00 00       	mov    ecx,0x40
  40631a:	49 8d 83 00 00 02 00 	lea    rax,[r11+0x20000]
  406321:	bb 00 10 00 00       	mov    ebx,0x1000
  406326:	49 81 c3 00 00 03 00 	add    r11,0x30000
  40632d:	0f 1f 00             	nop    DWORD PTR [rax]
  406330:	c4 e2 7b 4b 34 08    	tileloadd tmm6,[rax+rcx*1]
  406336:	c4 e2 7b 4b 24 1a    	tileloadd tmm4,[rdx+rbx*1]
  40633c:	c4 e2 4b 5e c4       	tdpbssd tmm0,tmm4,tmm6
  406341:	48 8d b0 00 00 01 00 	lea    rsi,[rax+0x10000]
  406348:	c4 e2 7b 4b 3c 0e    	tileloadd tmm7,[rsi+rcx*1]
  40634e:	c4 e2 43 5e cc       	tdpbssd tmm1,tmm4,tmm7
  406353:	48 05 00 04 00 00    	add    rax,0x400
  406359:	48 83 c2 40          	add    rdx,0x40
  40635d:	49 39 c3             	cmp    r11,rax
  406360:	75 ce                	jne    406330 <_ZN12intel_mlperf24_tile_dot_product_16x256ILi1ELi64ENS_9io_policyILi64ELNS_8i_formatE0EEEE7computeEPvmS5_S5_Pff+0xb0>
  406362:	4c 8d 9c 24 88 07 00 	lea    r11,[rsp+0x788]
  406369:	00 
  40636a:	c4 c2 7a 4b 04 0b    	tilestored [r11+rcx*1],tmm0
  406370:	48 8d b4 24 88 0b 00 	lea    rsi,[rsp+0xb88]
  406377:	00 
  406378:	c4 e2 7a 4b 0c 0e    	tilestored [rsi+rcx*1],tmm1
  40637e:	62 f2 7d 48 18 35 58 	vbroadcastss zmm6,DWORD PTR [rip+0x4e58]        # 40b1e0 <__dso_handle+0x1d8>
  406385:	4e 00 00 
  406388:	62 51 7c 48 10 10    	vmovups zmm10,ZMMWORD PTR [r8]
  40638e:	62 51 7c 48 10 48 01 	vmovups zmm9,ZMMWORD PTR [r8+0x40]
  406395:	62 51 7c 48 10 40 02 	vmovups zmm8,ZMMWORD PTR [r8+0x80]
  40639c:	62 d1 7c 48 10 78 03 	vmovups zmm7,ZMMWORD PTR [r8+0xc0]
  4063a3:	62 f2 7d 48 18 2d 37 	vbroadcastss zmm5,DWORD PTR [rip+0x4e37]        # 40b1e4 <__dso_handle+0x1dc>
  4063aa:	4e 00 00 
  4063ad:	62 f2 7d 48 18 e0    	vbroadcastss zmm4,xmm0
  4063b3:	4c 89 c8             	mov    rax,r9
  4063b6:	48 89 fa             	mov    rdx,rdi
  4063b9:	48 89 f1             	mov    rcx,rsi
  4063bc:	0f 1f 40 00          	nop    DWORD PTR [rax+0x0]
  4063c0:	62 f1 7c 48 5b 5a f0 	vcvtdq2ps zmm3,ZMMWORD PTR [rdx-0x400]
  4063c7:	62 f1 7c 48 5b 12    	vcvtdq2ps zmm2,ZMMWORD PTR [rdx]
  4063cd:	62 f1 7c 48 5b 49 f0 	vcvtdq2ps zmm1,ZMMWORD PTR [rcx-0x400]
  4063d4:	62 f1 7c 48 5b 01    	vcvtdq2ps zmm0,ZMMWORD PTR [rcx]
  4063da:	62 f1 2c 48 58 db    	vaddps zmm3,zmm10,zmm3
  4063e0:	62 f1 34 48 58 d2    	vaddps zmm2,zmm9,zmm2
  4063e6:	62 f1 3c 48 58 c9    	vaddps zmm1,zmm8,zmm1
  4063ec:	62 f1 44 48 58 c0    	vaddps zmm0,zmm7,zmm0
  4063f2:	62 f1 64 48 59 dc    	vmulps zmm3,zmm3,zmm4
  4063f8:	62 f1 6c 48 59 d4    	vmulps zmm2,zmm2,zmm4
  4063fe:	62 f1 74 48 59 cc    	vmulps zmm1,zmm1,zmm4
  406404:	62 f1 7c 48 59 c4    	vmulps zmm0,zmm0,zmm4
  40640a:	48 83 c2 40          	add    rdx,0x40
  40640e:	62 f3 7d 48 08 db 00 	vrndscaleps zmm3,zmm3,0x0
  406415:	62 f3 7d 48 08 d2 00 	vrndscaleps zmm2,zmm2,0x0
  40641c:	62 f3 7d 48 08 c9 00 	vrndscaleps zmm1,zmm1,0x0
  406423:	62 f3 7d 48 08 c0 00 	vrndscaleps zmm0,zmm0,0x0
  40642a:	48 83 c1 40          	add    rcx,0x40
  40642e:	62 f1 64 48 5d de    	vminps zmm3,zmm3,zmm6
  406434:	62 f1 6c 48 5d d6    	vminps zmm2,zmm2,zmm6
  40643a:	62 f1 74 48 5d ce    	vminps zmm1,zmm1,zmm6
  406440:	62 f1 7c 48 5d c6    	vminps zmm0,zmm0,zmm6
  406446:	62 f1 64 48 5f dd    	vmaxps zmm3,zmm3,zmm5
  40644c:	62 f1 6c 48 5f d5    	vmaxps zmm2,zmm2,zmm5
  406452:	62 f1 74 48 5f cd    	vmaxps zmm1,zmm1,zmm5
  406458:	62 f1 7c 48 5f c5    	vmaxps zmm0,zmm0,zmm5
  40645e:	62 f1 7d 48 5b db    	vcvtps2dq zmm3,zmm3
  406464:	62 f1 7d 48 5b d2    	vcvtps2dq zmm2,zmm2
  40646a:	62 f2 7e 48 31 18    	vpmovdb XMMWORD PTR [rax],zmm3
  406470:	62 f2 7e 48 31 50 01 	vpmovdb XMMWORD PTR [rax+0x10],zmm2
  406477:	62 f1 7d 48 5b c9    	vcvtps2dq zmm1,zmm1
  40647d:	62 f1 7d 48 5b c0    	vcvtps2dq zmm0,zmm0
  406483:	62 f2 7e 48 31 48 02 	vpmovdb XMMWORD PTR [rax+0x20],zmm1
  40648a:	62 f2 7e 48 31 40 03 	vpmovdb XMMWORD PTR [rax+0x30],zmm0
  406491:	4c 01 d0             	add    rax,r10
  406494:	49 39 d3             	cmp    r11,rdx
  406497:	0f 85 23 ff ff ff    	jne    4063c0 <_ZN12intel_mlperf24_tile_dot_product_16x256ILi1ELi64ENS_9io_policyILi64ELNS_8i_formatE0EEEE7computeEPvmS5_S5_Pff+0x140>
  40649d:	c5 f8 77             	vzeroupper 
  4064a0:	48 8d 65 f0          	lea    rsp,[rbp-0x10]
  4064a4:	5b                   	pop    rbx
  4064a5:	41 5c                	pop    r12
  4064a7:	5d                   	pop    rbp
  4064a8:	c3                   	ret    
  4064a9:	0f 1f 80 00 00 00 00 	nop    DWORD PTR [rax+0x0]

00000000004064b0 <_ZN12intel_mlperf8i_linear13compute_blockILi1ELi64EEEvPvmS2_S2_Pff>:
  4064b0:	48 89 f7             	mov    rdi,rsi
  4064b3:	48 89 d6             	mov    rsi,rdx
  4064b6:	48 89 ca             	mov    rdx,rcx
  4064b9:	4c 89 c1             	mov    rcx,r8
  4064bc:	4d 89 c8             	mov    r8,r9
  4064bf:	e9 bc fd ff ff       	jmp    406280 <_ZN12intel_mlperf24_tile_dot_product_16x256ILi1ELi64ENS_9io_policyILi64ELNS_8i_formatE0EEEE7computeEPvmS5_S5_Pff>
  4064c4:	66 2e 0f 1f 84 00 00 	cs nop WORD PTR [rax+rax*1+0x0]
  4064cb:	00 00 00 
  4064ce:	66 90                	xchg   ax,ax

00000000004064d0 <_ZN12intel_mlperf8i_linear13compute_blockILi2ELi16EEEvPvmS2_S2_Pff>:
  4064d0:	48 89 f7             	mov    rdi,rsi
  4064d3:	48 89 d6             	mov    rsi,rdx
  4064d6:	48 89 ca             	mov    rdx,rcx
  4064d9:	4c 89 c1             	mov    rcx,r8
  4064dc:	4d 89 c8             	mov    r8,r9
  4064df:	e9 3c de ff ff       	jmp    404320 <_ZN12intel_mlperf24_tile_dot_product_16x256ILi2ELi16ENS_9io_policyILi16ELNS_8i_formatE0EEEE7computeEPvmS5_S5_Pff>
  4064e4:	66 2e 0f 1f 84 00 00 	cs nop WORD PTR [rax+rax*1+0x0]
  4064eb:	00 00 00 
  4064ee:	66 90                	xchg   ax,ax

00000000004064f0 <_ZN12intel_mlperf24_tile_dot_product_16x256ILi2ELi64ENS_9io_policyILi64ELNS_8i_formatE0EEEE7computeEPvmS5_S5_Pff>:
  4064f0:	55                   	push   rbp
  4064f1:	49 89 fa             	mov    r10,rdi
  4064f4:	49 89 f1             	mov    r9,rsi
  4064f7:	48 89 e5             	mov    rbp,rsp
  4064fa:	41 54                	push   r12
  4064fc:	53                   	push   rbx
  4064fd:	48 89 cb             	mov    rbx,rcx
  406500:	48 83 e4 c0          	and    rsp,0xffffffffffffffc0
  406504:	48 81 ec 88 1f 00 00 	sub    rsp,0x1f88
  40650b:	c4 e2 7b 49 c0       	tilezero tmm0
  406510:	c4 e2 7b 49 c8       	tilezero tmm1
  406515:	c4 e2 7b 49 d0       	tilezero tmm2
  40651a:	c4 e2 7b 49 d8       	tilezero tmm3
  40651f:	be 40 00 00 00       	mov    esi,0x40
  406524:	4c 8d a1 00 00 01 00 	lea    r12,[rcx+0x10000]
  40652b:	48 89 d8             	mov    rax,rbx
  40652e:	48 89 d1             	mov    rcx,rdx
  406531:	bf 00 10 00 00       	mov    edi,0x1000
  406536:	66 2e 0f 1f 84 00 00 	cs nop WORD PTR [rax+rax*1+0x0]
  40653d:	00 00 00 
  406540:	c4 e2 7b 4b 34 30    	tileloadd tmm6,[rax+rsi*1]
  406546:	c4 e2 7b 4b 24 39    	tileloadd tmm4,[rcx+rdi*1]
  40654c:	4c 8d 99 00 00 01 00 	lea    r11,[rcx+0x10000]
  406553:	c4 c2 7b 4b 2c 3b    	tileloadd tmm5,[r11+rdi*1]
  406559:	4c 8d 98 00 00 01 00 	lea    r11,[rax+0x10000]
  406560:	c4 c2 7b 4b 3c 33    	tileloadd tmm7,[r11+rsi*1]
  406566:	48 05 00 04 00 00    	add    rax,0x400
  40656c:	48 83 c1 40          	add    rcx,0x40
  406570:	49 39 c4             	cmp    r12,rax
  406573:	75 cb                	jne    406540 <_ZN12intel_mlperf24_tile_dot_product_16x256ILi2ELi64ENS_9io_policyILi64ELNS_8i_formatE0EEEE7computeEPvmS5_S5_Pff+0x50>
  406575:	4c 8d 5c 24 88       	lea    r11,[rsp-0x78]
  40657a:	c4 c2 7a 4b 04 33    	tilestored [r11+rsi*1],tmm0
  406580:	48 8d 84 24 88 03 00 	lea    rax,[rsp+0x388]
  406587:	00 
  406588:	c4 e2 7a 4b 0c 30    	tilestored [rax+rsi*1],tmm1
  40658e:	48 8d 84 24 88 07 00 	lea    rax,[rsp+0x788]
  406595:	00 
  406596:	c4 e2 7a 4b 14 30    	tilestored [rax+rsi*1],tmm2
  40659c:	48 8d 84 24 88 0b 00 	lea    rax,[rsp+0xb88]
  4065a3:	00 
  4065a4:	c4 e2 7a 4b 1c 30    	tilestored [rax+rsi*1],tmm3
  4065aa:	c4 e2 7b 49 c0       	tilezero tmm0
  4065af:	c4 e2 7b 49 c8       	tilezero tmm1
  4065b4:	c4 e2 7b 49 d0       	tilezero tmm2
  4065b9:	c4 e2 7b 49 d8       	tilezero tmm3
  4065be:	b9 40 00 00 00       	mov    ecx,0x40
  4065c3:	48 8d 83 00 00 02 00 	lea    rax,[rbx+0x20000]
  4065ca:	be 00 10 00 00       	mov    esi,0x1000
  4065cf:	48 81 c3 00 00 03 00 	add    rbx,0x30000
  4065d6:	66 2e 0f 1f 84 00 00 	cs nop WORD PTR [rax+rax*1+0x0]
  4065dd:	00 00 00 
  4065e0:	c4 e2 7b 4b 34 08    	tileloadd tmm6,[rax+rcx*1]
  4065e6:	c4 e2 7b 4b 24 32    	tileloadd tmm4,[rdx+rsi*1]
  4065ec:	48 8d ba 00 00 01 00 	lea    rdi,[rdx+0x10000]
  4065f3:	c4 e2 7b 4b 2c 37    	tileloadd tmm5,[rdi+rsi*1]
  4065f9:	48 8d b8 00 00 01 00 	lea    rdi,[rax+0x10000]
  406600:	c4 e2 7b 4b 3c 0f    	tileloadd tmm7,[rdi+rcx*1]
  406606:	48 05 00 04 00 00    	add    rax,0x400
  40660c:	48 83 c2 40          	add    rdx,0x40
  406610:	48 39 c3             	cmp    rbx,rax
  406613:	75 cb                	jne    4065e0 <_ZN12intel_mlperf24_tile_dot_product_16x256ILi2ELi64ENS_9io_policyILi64ELNS_8i_formatE0EEEE7computeEPvmS5_S5_Pff+0xf0>
  406615:	48 8d bc 24 88 0f 00 	lea    rdi,[rsp+0xf88]
  40661c:	00 
  40661d:	c4 e2 7a 4b 04 0f    	tilestored [rdi+rcx*1],tmm0
  406623:	48 8d 84 24 88 13 00 	lea    rax,[rsp+0x1388]
  40662a:	00 
  40662b:	c4 e2 7a 4b 0c 08    	tilestored [rax+rcx*1],tmm1
  406631:	48 8d 84 24 88 17 00 	lea    rax,[rsp+0x1788]
  406638:	00 
  406639:	c4 e2 7a 4b 14 08    	tilestored [rax+rcx*1],tmm2
  40663f:	48 8d 84 24 88 1b 00 	lea    rax,[rsp+0x1b88]
  406646:	00 
  406647:	c4 e2 7a 4b 1c 08    	tilestored [rax+rcx*1],tmm3
  40664d:	62 f2 7d 48 18 35 89 	vbroadcastss zmm6,DWORD PTR [rip+0x4b89]        # 40b1e0 <__dso_handle+0x1d8>
  406654:	4b 00 00 
  406657:	62 51 7c 48 10 10    	vmovups zmm10,ZMMWORD PTR [r8]
  40665d:	62 51 7c 48 10 48 01 	vmovups zmm9,ZMMWORD PTR [r8+0x40]
  406664:	62 51 7c 48 10 40 02 	vmovups zmm8,ZMMWORD PTR [r8+0x80]
  40666b:	62 d1 7c 48 10 78 03 	vmovups zmm7,ZMMWORD PTR [r8+0xc0]
  406672:	62 f2 7d 48 18 2d 68 	vbroadcastss zmm5,DWORD PTR [rip+0x4b68]        # 40b1e4 <__dso_handle+0x1dc>
  406679:	4b 00 00 
  40667c:	4d 89 c8             	mov    r8,r9
  40667f:	62 f2 7d 48 18 e0    	vbroadcastss zmm4,xmm0
  406685:	49 c1 e0 04          	shl    r8,0x4
  406689:	4c 89 d9             	mov    rcx,r11
  40668c:	48 89 fe             	mov    rsi,rdi
  40668f:	4c 89 d2             	mov    rdx,r10
  406692:	31 c0                	xor    eax,eax
  406694:	0f 1f 40 00          	nop    DWORD PTR [rax+0x0]
  406698:	62 f1 7c 48 5b 1c 01 	vcvtdq2ps zmm3,ZMMWORD PTR [rcx+rax*1]
  40669f:	62 f1 7c 48 5b 54 01 	vcvtdq2ps zmm2,ZMMWORD PTR [rcx+rax*1+0x400]
  4066a6:	10 
  4066a7:	62 f1 7c 48 5b 0c 06 	vcvtdq2ps zmm1,ZMMWORD PTR [rsi+rax*1]
  4066ae:	62 f1 7c 48 5b 44 06 	vcvtdq2ps zmm0,ZMMWORD PTR [rsi+rax*1+0x400]
  4066b5:	10 
  4066b6:	62 f1 2c 48 58 db    	vaddps zmm3,zmm10,zmm3
  4066bc:	62 f1 34 48 58 d2    	vaddps zmm2,zmm9,zmm2
  4066c2:	62 f1 3c 48 58 c9    	vaddps zmm1,zmm8,zmm1
  4066c8:	62 f1 44 48 58 c0    	vaddps zmm0,zmm7,zmm0
  4066ce:	62 f1 64 48 59 dc    	vmulps zmm3,zmm3,zmm4
  4066d4:	62 f1 6c 48 59 d4    	vmulps zmm2,zmm2,zmm4
  4066da:	62 f1 74 48 59 cc    	vmulps zmm1,zmm1,zmm4
  4066e0:	62 f1 7c 48 59 c4    	vmulps zmm0,zmm0,zmm4
  4066e6:	48 83 c0 40          	add    rax,0x40
  4066ea:	62 f3 7d 48 08 db 00 	vrndscaleps zmm3,zmm3,0x0
  4066f1:	62 f3 7d 48 08 d2 00 	vrndscaleps zmm2,zmm2,0x0
  4066f8:	62 f3 7d 48 08 c9 00 	vrndscaleps zmm1,zmm1,0x0
  4066ff:	62 f3 7d 48 08 c0 00 	vrndscaleps zmm0,zmm0,0x0
  406706:	62 f1 64 48 5d de    	vminps zmm3,zmm3,zmm6
  40670c:	62 f1 6c 48 5d d6    	vminps zmm2,zmm2,zmm6
  406712:	62 f1 74 48 5d ce    	vminps zmm1,zmm1,zmm6
  406718:	62 f1 7c 48 5d c6    	vminps zmm0,zmm0,zmm6
  40671e:	62 f1 64 48 5f dd    	vmaxps zmm3,zmm3,zmm5
  406724:	62 f1 6c 48 5f d5    	vmaxps zmm2,zmm2,zmm5
  40672a:	62 f1 74 48 5f cd    	vmaxps zmm1,zmm1,zmm5
  406730:	62 f1 7c 48 5f c5    	vmaxps zmm0,zmm0,zmm5
  406736:	62 f1 7d 48 5b db    	vcvtps2dq zmm3,zmm3
  40673c:	62 f1 7d 48 5b d2    	vcvtps2dq zmm2,zmm2
  406742:	62 f2 7e 48 31 1a    	vpmovdb XMMWORD PTR [rdx],zmm3
  406748:	62 f2 7e 48 31 52 01 	vpmovdb XMMWORD PTR [rdx+0x10],zmm2
  40674f:	62 f1 7d 48 5b c9    	vcvtps2dq zmm1,zmm1
  406755:	62 f1 7d 48 5b c0    	vcvtps2dq zmm0,zmm0
  40675b:	62 f2 7e 48 31 4a 02 	vpmovdb XMMWORD PTR [rdx+0x20],zmm1
  406762:	62 f2 7e 48 31 42 03 	vpmovdb XMMWORD PTR [rdx+0x30],zmm0
  406769:	4c 01 ca             	add    rdx,r9
  40676c:	48 3d 00 04 00 00    	cmp    rax,0x400
  406772:	0f 85 20 ff ff ff    	jne    406698 <_ZN12intel_mlperf24_tile_dot_product_16x256ILi2ELi64ENS_9io_policyILi64ELNS_8i_formatE0EEEE7computeEPvmS5_S5_Pff+0x1a8>
  406778:	48 81 c1 00 08 00 00 	add    rcx,0x800
  40677f:	4d 01 c2             	add    r10,r8
  406782:	48 81 c6 00 08 00 00 	add    rsi,0x800
  406789:	48 39 cf             	cmp    rdi,rcx
  40678c:	0f 85 fd fe ff ff    	jne    40668f <_ZN12intel_mlperf24_tile_dot_product_16x256ILi2ELi64ENS_9io_policyILi64ELNS_8i_formatE0EEEE7computeEPvmS5_S5_Pff+0x19f>
  406792:	c5 f8 77             	vzeroupper 
  406795:	48 8d 65 f0          	lea    rsp,[rbp-0x10]
  406799:	5b                   	pop    rbx
  40679a:	41 5c                	pop    r12
  40679c:	5d                   	pop    rbp
  40679d:	c3                   	ret    
  40679e:	66 90                	xchg   ax,ax

00000000004067a0 <_ZN12intel_mlperf8i_linear13compute_blockILi2ELi64EEEvPvmS2_S2_Pff>:
  4067a0:	48 89 f7             	mov    rdi,rsi
  4067a3:	48 89 d6             	mov    rsi,rdx
  4067a6:	48 89 ca             	mov    rdx,rcx
  4067a9:	4c 89 c1             	mov    rcx,r8
  4067ac:	4d 89 c8             	mov    r8,r9
  4067af:	e9 3c fd ff ff       	jmp    4064f0 <_ZN12intel_mlperf24_tile_dot_product_16x256ILi2ELi64ENS_9io_policyILi64ELNS_8i_formatE0EEEE7computeEPvmS5_S5_Pff>
  4067b4:	66 2e 0f 1f 84 00 00 	cs nop WORD PTR [rax+rax*1+0x0]
  4067bb:	00 00 00 
  4067be:	66 90                	xchg   ax,ax

00000000004067c0 <_ZN12intel_mlperf24_tile_dot_product_16x256ILi3ELi16ENS_9io_policyILi16ELNS_8i_formatE0EEEE7computeEPvmS5_S5_Pff>:
  4067c0:	55                   	push   rbp
  4067c1:	49 89 f3             	mov    r11,rsi
  4067c4:	41 b9 40 00 00 00    	mov    r9d,0x40
  4067ca:	48 89 e5             	mov    rbp,rsp
  4067cd:	41 57                	push   r15
  4067cf:	49 89 cf             	mov    r15,rcx
  4067d2:	49 81 c7 00 40 01 00 	add    r15,0x14000
  4067d9:	41 56                	push   r14
  4067db:	be 00 04 00 00       	mov    esi,0x400
  4067e0:	49 89 d6             	mov    r14,rdx
  4067e3:	41 55                	push   r13
  4067e5:	41 54                	push   r12
  4067e7:	53                   	push   rbx
  4067e8:	48 8d 99 00 40 00 00 	lea    rbx,[rcx+0x4000]
  4067ef:	48 83 e4 c0          	and    rsp,0xffffffffffffffc0
  4067f3:	48 81 ec c8 2f 00 00 	sub    rsp,0x2fc8
  4067fa:	48 89 7c 24 c0       	mov    QWORD PTR [rsp-0x40],rdi
  4067ff:	4c 8d 54 24 c8       	lea    r10,[rsp-0x38]
  406804:	4d 89 d5             	mov    r13,r10
  406807:	c4 e2 7b 49 c0       	tilezero tmm0
  40680c:	c4 e2 7b 49 c8       	tilezero tmm1
  406811:	c4 e2 7b 49 d0       	tilezero tmm2
  406816:	48 8d 83 00 c0 ff ff 	lea    rax,[rbx-0x4000]
  40681d:	4c 89 f1             	mov    rcx,r14
  406820:	48 8d bb 00 c4 ff ff 	lea    rdi,[rbx-0x3c00]
  406827:	66 0f 1f 84 00 00 00 	nop    WORD PTR [rax+rax*1+0x0]
  40682e:	00 00 
  406830:	c4 a2 7b 4b 3c 08    	tileloadd tmm7,[rax+r9*1]
  406836:	c4 e2 7b 4b 1c 31    	tileloadd tmm3,[rcx+rsi*1]
  40683c:	c4 e2 43 5e c3       	tdpbssd tmm0,tmm3,tmm7
  406841:	48 8d 91 00 40 00 00 	lea    rdx,[rcx+0x4000]
  406848:	0f 18 0f             	prefetcht0 BYTE PTR [rdi]
  40684b:	0f 18 88 40 04 00 00 	prefetcht0 BYTE PTR [rax+0x440]
  406852:	0f 18 88 80 04 00 00 	prefetcht0 BYTE PTR [rax+0x480]
  406859:	0f 18 88 c0 04 00 00 	prefetcht0 BYTE PTR [rax+0x4c0]
  406860:	0f 18 88 00 05 00 00 	prefetcht0 BYTE PTR [rax+0x500]
  406867:	c4 e2 7b 4b 24 32    	tileloadd tmm4,[rdx+rsi*1]
  40686d:	c4 e2 43 5e cc       	tdpbssd tmm1,tmm4,tmm7
  406872:	48 8d 91 00 80 00 00 	lea    rdx,[rcx+0x8000]
  406879:	0f 18 88 40 05 00 00 	prefetcht0 BYTE PTR [rax+0x540]
  406880:	0f 18 88 80 05 00 00 	prefetcht0 BYTE PTR [rax+0x580]
  406887:	0f 18 88 c0 05 00 00 	prefetcht0 BYTE PTR [rax+0x5c0]
  40688e:	0f 18 88 00 06 00 00 	prefetcht0 BYTE PTR [rax+0x600]
  406895:	0f 18 88 40 06 00 00 	prefetcht0 BYTE PTR [rax+0x640]
  40689c:	c4 e2 7b 4b 2c 32    	tileloadd tmm5,[rdx+rsi*1]
  4068a2:	c4 e2 43 5e d5       	tdpbssd tmm2,tmm5,tmm7
  4068a7:	0f 18 88 80 06 00 00 	prefetcht0 BYTE PTR [rax+0x680]
  4068ae:	0f 18 88 c0 06 00 00 	prefetcht0 BYTE PTR [rax+0x6c0]
  4068b5:	0f 18 88 00 07 00 00 	prefetcht0 BYTE PTR [rax+0x700]
  4068bc:	0f 18 88 40 07 00 00 	prefetcht0 BYTE PTR [rax+0x740]
  4068c3:	0f 18 88 80 07 00 00 	prefetcht0 BYTE PTR [rax+0x780]
  4068ca:	0f 18 88 c0 07 00 00 	prefetcht0 BYTE PTR [rax+0x7c0]
  4068d1:	c4 a2 7b 4b 34 0f    	tileloadd tmm6,[rdi+r9*1]
  4068d7:	48 8d 51 40          	lea    rdx,[rcx+0x40]
  4068db:	c4 e2 7b 4b 1c 32    	tileloadd tmm3,[rdx+rsi*1]
  4068e1:	c4 e2 4b 5e c3       	tdpbssd tmm0,tmm3,tmm6
  4068e6:	48 89 c2             	mov    rdx,rax
  4068e9:	48 05 00 08 00 00    	add    rax,0x800
  4068ef:	4c 8d a1 40 40 00 00 	lea    r12,[rcx+0x4040]
  4068f6:	0f 18 08             	prefetcht0 BYTE PTR [rax]
  4068f9:	0f 18 8a 40 08 00 00 	prefetcht0 BYTE PTR [rdx+0x840]
  406900:	0f 18 8a 80 08 00 00 	prefetcht0 BYTE PTR [rdx+0x880]
  406907:	0f 18 8a c0 08 00 00 	prefetcht0 BYTE PTR [rdx+0x8c0]
  40690e:	0f 18 8a 00 09 00 00 	prefetcht0 BYTE PTR [rdx+0x900]
  406915:	c4 c2 7b 4b 24 34    	tileloadd tmm4,[r12+rsi*1]
  40691b:	c4 e2 4b 5e cc       	tdpbssd tmm1,tmm4,tmm6
  406920:	4c 8d a1 40 80 00 00 	lea    r12,[rcx+0x8040]
  406927:	0f 18 8a 40 09 00 00 	prefetcht0 BYTE PTR [rdx+0x940]
  40692e:	0f 18 8a 80 09 00 00 	prefetcht0 BYTE PTR [rdx+0x980]
  406935:	0f 18 8a c0 09 00 00 	prefetcht0 BYTE PTR [rdx+0x9c0]
  40693c:	0f 18 8a 00 0a 00 00 	prefetcht0 BYTE PTR [rdx+0xa00]
  406943:	0f 18 8a 40 0a 00 00 	prefetcht0 BYTE PTR [rdx+0xa40]
  40694a:	c4 c2 7b 4b 2c 34    	tileloadd tmm5,[r12+rsi*1]
  406950:	c4 e2 4b 5e d5       	tdpbssd tmm2,tmm5,tmm6
  406955:	48 83 e9 80          	sub    rcx,0xffffffffffffff80
  406959:	48 81 c7 00 08 00 00 	add    rdi,0x800
  406960:	0f 18 8a 80 0a 00 00 	prefetcht0 BYTE PTR [rdx+0xa80]
  406967:	0f 18 8a c0 0a 00 00 	prefetcht0 BYTE PTR [rdx+0xac0]
  40696e:	0f 18 8a 00 0b 00 00 	prefetcht0 BYTE PTR [rdx+0xb00]
  406975:	0f 18 8a 40 0b 00 00 	prefetcht0 BYTE PTR [rdx+0xb40]
  40697c:	0f 18 8a 80 0b 00 00 	prefetcht0 BYTE PTR [rdx+0xb80]
  406983:	0f 18 8a c0 0b 00 00 	prefetcht0 BYTE PTR [rdx+0xbc0]
  40698a:	48 39 d8             	cmp    rax,rbx
  40698d:	0f 85 9d fe ff ff    	jne    406830 <_ZN12intel_mlperf24_tile_dot_product_16x256ILi3ELi16ENS_9io_policyILi16ELNS_8i_formatE0EEEE7computeEPvmS5_S5_Pff+0x70>
  406993:	c4 82 7a 4b 44 0d 00 	tilestored [r13+r9*1+0x0],tmm0
  40699a:	49 8d 95 00 04 00 00 	lea    rdx,[r13+0x400]
  4069a1:	c4 a2 7a 4b 0c 0a    	tilestored [rdx+r9*1],tmm1
  4069a7:	49 8d 95 00 08 00 00 	lea    rdx,[r13+0x800]
  4069ae:	c4 a2 7a 4b 14 0a    	tilestored [rdx+r9*1],tmm2
  4069b4:	48 8d 98 00 40 00 00 	lea    rbx,[rax+0x4000]
  4069bb:	49 81 c5 00 0c 00 00 	add    r13,0xc00
  4069c2:	4c 39 fb             	cmp    rbx,r15
  4069c5:	0f 85 3c fe ff ff    	jne    406807 <_ZN12intel_mlperf24_tile_dot_product_16x256ILi3ELi16ENS_9io_policyILi16ELNS_8i_formatE0EEEE7computeEPvmS5_S5_Pff+0x47>
  4069cb:	4c 89 de             	mov    rsi,r11
  4069ce:	62 51 7c 48 10 10    	vmovups zmm10,ZMMWORD PTR [r8]
  4069d4:	62 51 7c 48 10 48 01 	vmovups zmm9,ZMMWORD PTR [r8+0x40]
  4069db:	62 51 7c 48 10 40 02 	vmovups zmm8,ZMMWORD PTR [r8+0x80]
  4069e2:	62 d1 7c 48 10 78 03 	vmovups zmm7,ZMMWORD PTR [r8+0xc0]
  4069e9:	4c 8b 64 24 c0       	mov    r12,QWORD PTR [rsp-0x40]
  4069ee:	62 f2 7d 48 18 35 e8 	vbroadcastss zmm6,DWORD PTR [rip+0x47e8]        # 40b1e0 <__dso_handle+0x1d8>
  4069f5:	47 00 00 
  4069f8:	62 f2 7d 48 18 2d e2 	vbroadcastss zmm5,DWORD PTR [rip+0x47e2]        # 40b1e4 <__dso_handle+0x1dc>
  4069ff:	47 00 00 
  406a02:	62 f2 7d 48 18 e0    	vbroadcastss zmm4,xmm0
  406a08:	48 c1 e6 04          	shl    rsi,0x4
  406a0c:	49 81 c2 00 04 00 00 	add    r10,0x400
  406a13:	31 c9                	xor    ecx,ecx
  406a15:	49 8d 82 00 fc ff ff 	lea    rax,[r10-0x400]
  406a1c:	4c 89 e2             	mov    rdx,r12
  406a1f:	90                   	nop
  406a20:	62 f1 7c 48 5b 18    	vcvtdq2ps zmm3,ZMMWORD PTR [rax]
  406a26:	62 f1 7c 48 5b 50 30 	vcvtdq2ps zmm2,ZMMWORD PTR [rax+0xc00]
  406a2d:	62 f1 7c 48 5b 48 60 	vcvtdq2ps zmm1,ZMMWORD PTR [rax+0x1800]
  406a34:	62 f1 7c 48 5b 80 00 	vcvtdq2ps zmm0,ZMMWORD PTR [rax+0x2400]
  406a3b:	24 00 00 
  406a3e:	62 f1 2c 48 58 db    	vaddps zmm3,zmm10,zmm3
  406a44:	62 f1 34 48 58 d2    	vaddps zmm2,zmm9,zmm2
  406a4a:	62 f1 3c 48 58 c9    	vaddps zmm1,zmm8,zmm1
  406a50:	62 f1 44 48 58 c0    	vaddps zmm0,zmm7,zmm0
  406a56:	62 f1 64 48 59 dc    	vmulps zmm3,zmm3,zmm4
  406a5c:	62 f1 6c 48 59 d4    	vmulps zmm2,zmm2,zmm4
  406a62:	62 f1 74 48 59 cc    	vmulps zmm1,zmm1,zmm4
  406a68:	62 f1 7c 48 59 c4    	vmulps zmm0,zmm0,zmm4
  406a6e:	48 83 c0 40          	add    rax,0x40
  406a72:	62 f3 7d 48 08 db 00 	vrndscaleps zmm3,zmm3,0x0
  406a79:	62 f3 7d 48 08 d2 00 	vrndscaleps zmm2,zmm2,0x0
  406a80:	62 f3 7d 48 08 c9 00 	vrndscaleps zmm1,zmm1,0x0
  406a87:	62 f3 7d 48 08 c0 00 	vrndscaleps zmm0,zmm0,0x0
  406a8e:	62 f1 64 48 5d de    	vminps zmm3,zmm3,zmm6
  406a94:	62 f1 6c 48 5d d6    	vminps zmm2,zmm2,zmm6
  406a9a:	62 f1 74 48 5d ce    	vminps zmm1,zmm1,zmm6
  406aa0:	62 f1 7c 48 5d c6    	vminps zmm0,zmm0,zmm6
  406aa6:	62 f1 64 48 5f dd    	vmaxps zmm3,zmm3,zmm5
  406aac:	62 f1 6c 48 5f d5    	vmaxps zmm2,zmm2,zmm5
  406ab2:	62 f1 74 48 5f cd    	vmaxps zmm1,zmm1,zmm5
  406ab8:	62 f1 7c 48 5f c5    	vmaxps zmm0,zmm0,zmm5
  406abe:	62 f1 7d 48 5b db    	vcvtps2dq zmm3,zmm3
  406ac4:	62 f1 7d 48 5b d2    	vcvtps2dq zmm2,zmm2
  406aca:	62 f2 7e 48 31 1a    	vpmovdb XMMWORD PTR [rdx],zmm3
  406ad0:	62 f2 7e 48 31 52 01 	vpmovdb XMMWORD PTR [rdx+0x10],zmm2
  406ad7:	62 f1 7d 48 5b c9    	vcvtps2dq zmm1,zmm1
  406add:	62 f1 7d 48 5b c0    	vcvtps2dq zmm0,zmm0
  406ae3:	62 f2 7e 48 31 4a 02 	vpmovdb XMMWORD PTR [rdx+0x20],zmm1
  406aea:	62 f2 7e 48 31 42 03 	vpmovdb XMMWORD PTR [rdx+0x30],zmm0
  406af1:	4c 01 da             	add    rdx,r11
  406af4:	49 39 c2             	cmp    r10,rax
  406af7:	0f 85 23 ff ff ff    	jne    406a20 <_ZN12intel_mlperf24_tile_dot_product_16x256ILi3ELi16ENS_9io_policyILi16ELNS_8i_formatE0EEEE7computeEPvmS5_S5_Pff+0x260>
  406afd:	48 83 c1 10          	add    rcx,0x10
  406b01:	49 01 f4             	add    r12,rsi
  406b04:	49 81 c2 00 04 00 00 	add    r10,0x400
  406b0b:	48 83 f9 30          	cmp    rcx,0x30
  406b0f:	0f 85 00 ff ff ff    	jne    406a15 <_ZN12intel_mlperf24_tile_dot_product_16x256ILi3ELi16ENS_9io_policyILi16ELNS_8i_formatE0EEEE7computeEPvmS5_S5_Pff+0x255>
  406b15:	c5 f8 77             	vzeroupper 
  406b18:	48 8d 65 d8          	lea    rsp,[rbp-0x28]
  406b1c:	5b                   	pop    rbx
  406b1d:	41 5c                	pop    r12
  406b1f:	41 5d                	pop    r13
  406b21:	41 5e                	pop    r14
  406b23:	41 5f                	pop    r15
  406b25:	5d                   	pop    rbp
  406b26:	c3                   	ret    
  406b27:	66 0f 1f 84 00 00 00 	nop    WORD PTR [rax+rax*1+0x0]
  406b2e:	00 00 

0000000000406b30 <_ZN12intel_mlperf8i_linear13compute_blockILi3ELi16EEEvPvmS2_S2_Pff>:
  406b30:	48 89 f7             	mov    rdi,rsi
  406b33:	48 89 d6             	mov    rsi,rdx
  406b36:	48 89 ca             	mov    rdx,rcx
  406b39:	4c 89 c1             	mov    rcx,r8
  406b3c:	4d 89 c8             	mov    r8,r9
  406b3f:	e9 7c fc ff ff       	jmp    4067c0 <_ZN12intel_mlperf24_tile_dot_product_16x256ILi3ELi16ENS_9io_policyILi16ELNS_8i_formatE0EEEE7computeEPvmS5_S5_Pff>
  406b44:	66 2e 0f 1f 84 00 00 	cs nop WORD PTR [rax+rax*1+0x0]
  406b4b:	00 00 00 
  406b4e:	66 90                	xchg   ax,ax

0000000000406b50 <_ZN12intel_mlperf24_tile_dot_product_16x256ILi3ELi64ENS_9io_policyILi64ELNS_8i_formatE0EEEE7computeEPvmS5_S5_Pff>:
  406b50:	55                   	push   rbp
  406b51:	4c 8d 91 00 00 01 00 	lea    r10,[rcx+0x10000]
  406b58:	41 b9 40 00 00 00    	mov    r9d,0x40
  406b5e:	48 89 e5             	mov    rbp,rsp
  406b61:	41 57                	push   r15
  406b63:	49 89 cf             	mov    r15,rcx
  406b66:	49 81 c7 00 00 05 00 	add    r15,0x50000
  406b6d:	41 56                	push   r14
  406b6f:	49 89 d6             	mov    r14,rdx
  406b72:	41 55                	push   r13
  406b74:	41 54                	push   r12
  406b76:	53                   	push   rbx
  406b77:	48 89 f3             	mov    rbx,rsi
  406b7a:	be 00 10 00 00       	mov    esi,0x1000
  406b7f:	48 83 e4 c0          	and    rsp,0xffffffffffffffc0
  406b83:	48 81 ec c8 2f 00 00 	sub    rsp,0x2fc8
  406b8a:	48 89 7c 24 c0       	mov    QWORD PTR [rsp-0x40],rdi
  406b8f:	4c 8d 5c 24 c8       	lea    r11,[rsp-0x38]
  406b94:	4d 89 dd             	mov    r13,r11
  406b97:	c4 e2 7b 49 c0       	tilezero tmm0
  406b9c:	c4 e2 7b 49 c8       	tilezero tmm1
  406ba1:	c4 e2 7b 49 d0       	tilezero tmm2
  406ba6:	49 8d 82 00 00 ff ff 	lea    rax,[r10-0x10000]
  406bad:	4c 89 f1             	mov    rcx,r14
  406bb0:	49 8d ba 00 04 ff ff 	lea    rdi,[r10-0xfc00]
  406bb7:	66 0f 1f 84 00 00 00 	nop    WORD PTR [rax+rax*1+0x0]
  406bbe:	00 00 
  406bc0:	c4 a2 7b 4b 3c 08    	tileloadd tmm7,[rax+r9*1]
  406bc6:	c4 e2 7b 4b 1c 31    	tileloadd tmm3,[rcx+rsi*1]
  406bcc:	c4 e2 43 5e c3       	tdpbssd tmm0,tmm3,tmm7
  406bd1:	48 8d 91 00 00 01 00 	lea    rdx,[rcx+0x10000]
  406bd8:	0f 18 0f             	prefetcht0 BYTE PTR [rdi]
  406bdb:	0f 18 88 40 04 00 00 	prefetcht0 BYTE PTR [rax+0x440]
  406be2:	0f 18 88 80 04 00 00 	prefetcht0 BYTE PTR [rax+0x480]
  406be9:	0f 18 88 c0 04 00 00 	prefetcht0 BYTE PTR [rax+0x4c0]
  406bf0:	0f 18 88 00 05 00 00 	prefetcht0 BYTE PTR [rax+0x500]
  406bf7:	c4 e2 7b 4b 24 32    	tileloadd tmm4,[rdx+rsi*1]
  406bfd:	c4 e2 43 5e cc       	tdpbssd tmm1,tmm4,tmm7
  406c02:	48 8d 91 00 00 02 00 	lea    rdx,[rcx+0x20000]
  406c09:	0f 18 88 40 05 00 00 	prefetcht0 BYTE PTR [rax+0x540]
  406c10:	0f 18 88 80 05 00 00 	prefetcht0 BYTE PTR [rax+0x580]
  406c17:	0f 18 88 c0 05 00 00 	prefetcht0 BYTE PTR [rax+0x5c0]
  406c1e:	0f 18 88 00 06 00 00 	prefetcht0 BYTE PTR [rax+0x600]
  406c25:	0f 18 88 40 06 00 00 	prefetcht0 BYTE PTR [rax+0x640]
  406c2c:	c4 e2 7b 4b 2c 32    	tileloadd tmm5,[rdx+rsi*1]
  406c32:	c4 e2 43 5e d5       	tdpbssd tmm2,tmm5,tmm7
  406c37:	0f 18 88 80 06 00 00 	prefetcht0 BYTE PTR [rax+0x680]
  406c3e:	0f 18 88 c0 06 00 00 	prefetcht0 BYTE PTR [rax+0x6c0]
  406c45:	0f 18 88 00 07 00 00 	prefetcht0 BYTE PTR [rax+0x700]
  406c4c:	0f 18 88 40 07 00 00 	prefetcht0 BYTE PTR [rax+0x740]
  406c53:	0f 18 88 80 07 00 00 	prefetcht0 BYTE PTR [rax+0x780]
  406c5a:	0f 18 88 c0 07 00 00 	prefetcht0 BYTE PTR [rax+0x7c0]
  406c61:	c4 a2 7b 4b 34 0f    	tileloadd tmm6,[rdi+r9*1]
  406c67:	48 8d 51 40          	lea    rdx,[rcx+0x40]
  406c6b:	c4 e2 7b 4b 1c 32    	tileloadd tmm3,[rdx+rsi*1]
  406c71:	c4 e2 4b 5e c3       	tdpbssd tmm0,tmm3,tmm6
  406c76:	48 89 c2             	mov    rdx,rax
  406c79:	48 05 00 08 00 00    	add    rax,0x800
  406c7f:	4c 8d a1 40 00 01 00 	lea    r12,[rcx+0x10040]
  406c86:	0f 18 08             	prefetcht0 BYTE PTR [rax]
  406c89:	0f 18 8a 40 08 00 00 	prefetcht0 BYTE PTR [rdx+0x840]
  406c90:	0f 18 8a 80 08 00 00 	prefetcht0 BYTE PTR [rdx+0x880]
  406c97:	0f 18 8a c0 08 00 00 	prefetcht0 BYTE PTR [rdx+0x8c0]
  406c9e:	0f 18 8a 00 09 00 00 	prefetcht0 BYTE PTR [rdx+0x900]
  406ca5:	c4 c2 7b 4b 24 34    	tileloadd tmm4,[r12+rsi*1]
  406cab:	c4 e2 4b 5e cc       	tdpbssd tmm1,tmm4,tmm6
  406cb0:	4c 8d a1 40 00 02 00 	lea    r12,[rcx+0x20040]
  406cb7:	0f 18 8a 40 09 00 00 	prefetcht0 BYTE PTR [rdx+0x940]
  406cbe:	0f 18 8a 80 09 00 00 	prefetcht0 BYTE PTR [rdx+0x980]
  406cc5:	0f 18 8a c0 09 00 00 	prefetcht0 BYTE PTR [rdx+0x9c0]
  406ccc:	0f 18 8a 00 0a 00 00 	prefetcht0 BYTE PTR [rdx+0xa00]
  406cd3:	0f 18 8a 40 0a 00 00 	prefetcht0 BYTE PTR [rdx+0xa40]
  406cda:	c4 c2 7b 4b 2c 34    	tileloadd tmm5,[r12+rsi*1]
  406ce0:	c4 e2 4b 5e d5       	tdpbssd tmm2,tmm5,tmm6
  406ce5:	48 83 e9 80          	sub    rcx,0xffffffffffffff80
  406ce9:	48 81 c7 00 08 00 00 	add    rdi,0x800
  406cf0:	0f 18 8a 80 0a 00 00 	prefetcht0 BYTE PTR [rdx+0xa80]
  406cf7:	0f 18 8a c0 0a 00 00 	prefetcht0 BYTE PTR [rdx+0xac0]
  406cfe:	0f 18 8a 00 0b 00 00 	prefetcht0 BYTE PTR [rdx+0xb00]
  406d05:	0f 18 8a 40 0b 00 00 	prefetcht0 BYTE PTR [rdx+0xb40]
  406d0c:	0f 18 8a 80 0b 00 00 	prefetcht0 BYTE PTR [rdx+0xb80]
  406d13:	0f 18 8a c0 0b 00 00 	prefetcht0 BYTE PTR [rdx+0xbc0]
  406d1a:	4c 39 d0             	cmp    rax,r10
  406d1d:	0f 85 9d fe ff ff    	jne    406bc0 <_ZN12intel_mlperf24_tile_dot_product_16x256ILi3ELi64ENS_9io_policyILi64ELNS_8i_formatE0EEEE7computeEPvmS5_S5_Pff+0x70>
  406d23:	c4 82 7a 4b 44 0d 00 	tilestored [r13+r9*1+0x0],tmm0
  406d2a:	49 8d 95 00 04 00 00 	lea    rdx,[r13+0x400]
  406d31:	c4 a2 7a 4b 0c 0a    	tilestored [rdx+r9*1],tmm1
  406d37:	49 8d 95 00 08 00 00 	lea    rdx,[r13+0x800]
  406d3e:	c4 a2 7a 4b 14 0a    	tilestored [rdx+r9*1],tmm2
  406d44:	4c 8d 90 00 00 01 00 	lea    r10,[rax+0x10000]
  406d4b:	49 81 c5 00 0c 00 00 	add    r13,0xc00
  406d52:	4d 39 fa             	cmp    r10,r15
  406d55:	0f 85 3c fe ff ff    	jne    406b97 <_ZN12intel_mlperf24_tile_dot_product_16x256ILi3ELi64ENS_9io_policyILi64ELNS_8i_formatE0EEEE7computeEPvmS5_S5_Pff+0x47>
  406d5b:	48 89 de             	mov    rsi,rbx
  406d5e:	62 51 7c 48 10 10    	vmovups zmm10,ZMMWORD PTR [r8]
  406d64:	62 51 7c 48 10 48 01 	vmovups zmm9,ZMMWORD PTR [r8+0x40]
  406d6b:	62 51 7c 48 10 40 02 	vmovups zmm8,ZMMWORD PTR [r8+0x80]
  406d72:	62 d1 7c 48 10 78 03 	vmovups zmm7,ZMMWORD PTR [r8+0xc0]
  406d79:	4c 8b 64 24 c0       	mov    r12,QWORD PTR [rsp-0x40]
  406d7e:	62 f2 7d 48 18 35 58 	vbroadcastss zmm6,DWORD PTR [rip+0x4458]        # 40b1e0 <__dso_handle+0x1d8>
  406d85:	44 00 00 
  406d88:	62 f2 7d 48 18 2d 52 	vbroadcastss zmm5,DWORD PTR [rip+0x4452]        # 40b1e4 <__dso_handle+0x1dc>
  406d8f:	44 00 00 
  406d92:	62 f2 7d 48 18 e0    	vbroadcastss zmm4,xmm0
  406d98:	48 c1 e6 04          	shl    rsi,0x4
  406d9c:	49 81 c3 00 04 00 00 	add    r11,0x400
  406da3:	31 c9                	xor    ecx,ecx
  406da5:	49 8d 83 00 fc ff ff 	lea    rax,[r11-0x400]
  406dac:	4c 89 e2             	mov    rdx,r12
  406daf:	90                   	nop
  406db0:	62 f1 7c 48 5b 18    	vcvtdq2ps zmm3,ZMMWORD PTR [rax]
  406db6:	62 f1 7c 48 5b 50 30 	vcvtdq2ps zmm2,ZMMWORD PTR [rax+0xc00]
  406dbd:	62 f1 7c 48 5b 48 60 	vcvtdq2ps zmm1,ZMMWORD PTR [rax+0x1800]
  406dc4:	62 f1 7c 48 5b 80 00 	vcvtdq2ps zmm0,ZMMWORD PTR [rax+0x2400]
  406dcb:	24 00 00 
  406dce:	62 f1 2c 48 58 db    	vaddps zmm3,zmm10,zmm3
  406dd4:	62 f1 34 48 58 d2    	vaddps zmm2,zmm9,zmm2
  406dda:	62 f1 3c 48 58 c9    	vaddps zmm1,zmm8,zmm1
  406de0:	62 f1 44 48 58 c0    	vaddps zmm0,zmm7,zmm0
  406de6:	62 f1 64 48 59 dc    	vmulps zmm3,zmm3,zmm4
  406dec:	62 f1 6c 48 59 d4    	vmulps zmm2,zmm2,zmm4
  406df2:	62 f1 74 48 59 cc    	vmulps zmm1,zmm1,zmm4
  406df8:	62 f1 7c 48 59 c4    	vmulps zmm0,zmm0,zmm4
  406dfe:	48 83 c0 40          	add    rax,0x40
  406e02:	62 f3 7d 48 08 db 00 	vrndscaleps zmm3,zmm3,0x0
  406e09:	62 f3 7d 48 08 d2 00 	vrndscaleps zmm2,zmm2,0x0
  406e10:	62 f3 7d 48 08 c9 00 	vrndscaleps zmm1,zmm1,0x0
  406e17:	62 f3 7d 48 08 c0 00 	vrndscaleps zmm0,zmm0,0x0
  406e1e:	62 f1 64 48 5d de    	vminps zmm3,zmm3,zmm6
  406e24:	62 f1 6c 48 5d d6    	vminps zmm2,zmm2,zmm6
  406e2a:	62 f1 74 48 5d ce    	vminps zmm1,zmm1,zmm6
  406e30:	62 f1 7c 48 5d c6    	vminps zmm0,zmm0,zmm6
  406e36:	62 f1 64 48 5f dd    	vmaxps zmm3,zmm3,zmm5
  406e3c:	62 f1 6c 48 5f d5    	vmaxps zmm2,zmm2,zmm5
  406e42:	62 f1 74 48 5f cd    	vmaxps zmm1,zmm1,zmm5
  406e48:	62 f1 7c 48 5f c5    	vmaxps zmm0,zmm0,zmm5
  406e4e:	62 f1 7d 48 5b db    	vcvtps2dq zmm3,zmm3
  406e54:	62 f1 7d 48 5b d2    	vcvtps2dq zmm2,zmm2
  406e5a:	62 f2 7e 48 31 1a    	vpmovdb XMMWORD PTR [rdx],zmm3
  406e60:	62 f2 7e 48 31 52 01 	vpmovdb XMMWORD PTR [rdx+0x10],zmm2
  406e67:	62 f1 7d 48 5b c9    	vcvtps2dq zmm1,zmm1
  406e6d:	62 f1 7d 48 5b c0    	vcvtps2dq zmm0,zmm0
  406e73:	62 f2 7e 48 31 4a 02 	vpmovdb XMMWORD PTR [rdx+0x20],zmm1
  406e7a:	62 f2 7e 48 31 42 03 	vpmovdb XMMWORD PTR [rdx+0x30],zmm0
  406e81:	48 01 da             	add    rdx,rbx
  406e84:	49 39 c3             	cmp    r11,rax
  406e87:	0f 85 23 ff ff ff    	jne    406db0 <_ZN12intel_mlperf24_tile_dot_product_16x256ILi3ELi64ENS_9io_policyILi64ELNS_8i_formatE0EEEE7computeEPvmS5_S5_Pff+0x260>
  406e8d:	48 83 c1 10          	add    rcx,0x10
  406e91:	49 01 f4             	add    r12,rsi
  406e94:	49 81 c3 00 04 00 00 	add    r11,0x400
  406e9b:	48 83 f9 30          	cmp    rcx,0x30
  406e9f:	0f 85 00 ff ff ff    	jne    406da5 <_ZN12intel_mlperf24_tile_dot_product_16x256ILi3ELi64ENS_9io_policyILi64ELNS_8i_formatE0EEEE7computeEPvmS5_S5_Pff+0x255>
  406ea5:	c5 f8 77             	vzeroupper 
  406ea8:	48 8d 65 d8          	lea    rsp,[rbp-0x28]
  406eac:	5b                   	pop    rbx
  406ead:	41 5c                	pop    r12
  406eaf:	41 5d                	pop    r13
  406eb1:	41 5e                	pop    r14
  406eb3:	41 5f                	pop    r15
  406eb5:	5d                   	pop    rbp
  406eb6:	c3                   	ret    
  406eb7:	66 0f 1f 84 00 00 00 	nop    WORD PTR [rax+rax*1+0x0]
  406ebe:	00 00 

0000000000406ec0 <_ZN12intel_mlperf8i_linear13compute_blockILi3ELi64EEEvPvmS2_S2_Pff>:
  406ec0:	48 89 f7             	mov    rdi,rsi
  406ec3:	48 89 d6             	mov    rsi,rdx
  406ec6:	48 89 ca             	mov    rdx,rcx
  406ec9:	4c 89 c1             	mov    rcx,r8
  406ecc:	4d 89 c8             	mov    r8,r9
  406ecf:	e9 7c fc ff ff       	jmp    406b50 <_ZN12intel_mlperf24_tile_dot_product_16x256ILi3ELi64ENS_9io_policyILi64ELNS_8i_formatE0EEEE7computeEPvmS5_S5_Pff>
  406ed4:	66 2e 0f 1f 84 00 00 	cs nop WORD PTR [rax+rax*1+0x0]
  406edb:	00 00 00 
  406ede:	66 90                	xchg   ax,ax

0000000000406ee0 <_ZN12intel_mlperf24_tile_dot_product_16x256ILi4ELi16ENS_9io_policyILi16ELNS_8i_formatE0EEEE7computeEPvmS5_S5_Pff>:
  406ee0:	55                   	push   rbp
  406ee1:	49 89 f3             	mov    r11,rsi
  406ee4:	41 b9 40 00 00 00    	mov    r9d,0x40
  406eea:	48 89 e5             	mov    rbp,rsp
  406eed:	41 57                	push   r15
  406eef:	be 00 04 00 00       	mov    esi,0x400
  406ef4:	4c 8d b9 00 40 01 00 	lea    r15,[rcx+0x14000]
  406efb:	41 56                	push   r14
  406efd:	49 89 d6             	mov    r14,rdx
  406f00:	41 55                	push   r13
  406f02:	41 54                	push   r12
  406f04:	53                   	push   rbx
  406f05:	48 8d 99 00 40 00 00 	lea    rbx,[rcx+0x4000]
  406f0c:	48 83 e4 c0          	and    rsp,0xffffffffffffffc0
  406f10:	48 81 ec c8 3f 00 00 	sub    rsp,0x3fc8
  406f17:	48 89 7c 24 c0       	mov    QWORD PTR [rsp-0x40],rdi
  406f1c:	4c 8d 54 24 c8       	lea    r10,[rsp-0x38]
  406f21:	4d 89 d5             	mov    r13,r10
  406f24:	c4 e2 7b 49 c0       	tilezero tmm0
  406f29:	c4 e2 7b 49 c8       	tilezero tmm1
  406f2e:	c4 e2 7b 49 d0       	tilezero tmm2
  406f33:	c4 e2 7b 49 d8       	tilezero tmm3
  406f38:	48 8d 83 00 c0 ff ff 	lea    rax,[rbx-0x4000]
  406f3f:	4c 89 f1             	mov    rcx,r14
  406f42:	48 8d bb 00 c4 ff ff 	lea    rdi,[rbx-0x3c00]
  406f49:	0f 1f 80 00 00 00 00 	nop    DWORD PTR [rax+0x0]
  406f50:	c4 a2 7b 4b 3c 08    	tileloadd tmm7,[rax+r9*1]
  406f56:	c4 e2 7b 4b 24 31    	tileloadd tmm4,[rcx+rsi*1]
  406f5c:	c4 e2 43 5e c4       	tdpbssd tmm0,tmm4,tmm7
  406f61:	48 8d 91 00 40 00 00 	lea    rdx,[rcx+0x4000]
  406f68:	0f 18 0f             	prefetcht0 BYTE PTR [rdi]
  406f6b:	0f 18 88 40 04 00 00 	prefetcht0 BYTE PTR [rax+0x440]
  406f72:	0f 18 88 80 04 00 00 	prefetcht0 BYTE PTR [rax+0x480]
  406f79:	0f 18 88 c0 04 00 00 	prefetcht0 BYTE PTR [rax+0x4c0]
  406f80:	c4 e2 7b 4b 2c 32    	tileloadd tmm5,[rdx+rsi*1]
  406f86:	c4 e2 43 5e cd       	tdpbssd tmm1,tmm5,tmm7
  406f8b:	48 8d 91 00 80 00 00 	lea    rdx,[rcx+0x8000]
  406f92:	0f 18 88 00 05 00 00 	prefetcht0 BYTE PTR [rax+0x500]
  406f99:	0f 18 88 40 05 00 00 	prefetcht0 BYTE PTR [rax+0x540]
  406fa0:	0f 18 88 80 05 00 00 	prefetcht0 BYTE PTR [rax+0x580]
  406fa7:	0f 18 88 c0 05 00 00 	prefetcht0 BYTE PTR [rax+0x5c0]
  406fae:	c4 e2 7b 4b 24 32    	tileloadd tmm4,[rdx+rsi*1]
  406fb4:	c4 e2 43 5e d4       	tdpbssd tmm2,tmm4,tmm7
  406fb9:	48 8d 91 00 c0 00 00 	lea    rdx,[rcx+0xc000]
  406fc0:	0f 18 88 00 06 00 00 	prefetcht0 BYTE PTR [rax+0x600]
  406fc7:	0f 18 88 40 06 00 00 	prefetcht0 BYTE PTR [rax+0x640]
  406fce:	0f 18 88 80 06 00 00 	prefetcht0 BYTE PTR [rax+0x680]
  406fd5:	0f 18 88 c0 06 00 00 	prefetcht0 BYTE PTR [rax+0x6c0]
  406fdc:	c4 e2 7b 4b 2c 32    	tileloadd tmm5,[rdx+rsi*1]
  406fe2:	c4 e2 43 5e dd       	tdpbssd tmm3,tmm5,tmm7
  406fe7:	0f 18 88 00 07 00 00 	prefetcht0 BYTE PTR [rax+0x700]
  406fee:	0f 18 88 40 07 00 00 	prefetcht0 BYTE PTR [rax+0x740]
  406ff5:	0f 18 88 80 07 00 00 	prefetcht0 BYTE PTR [rax+0x780]
  406ffc:	0f 18 88 c0 07 00 00 	prefetcht0 BYTE PTR [rax+0x7c0]
  407003:	c4 a2 7b 4b 34 0f    	tileloadd tmm6,[rdi+r9*1]
  407009:	48 8d 51 40          	lea    rdx,[rcx+0x40]
  40700d:	c4 e2 7b 4b 24 32    	tileloadd tmm4,[rdx+rsi*1]
  407013:	c4 e2 4b 5e c4       	tdpbssd tmm0,tmm4,tmm6
  407018:	48 89 c2             	mov    rdx,rax
  40701b:	48 05 00 08 00 00    	add    rax,0x800
  407021:	4c 8d a1 40 40 00 00 	lea    r12,[rcx+0x4040]
  407028:	0f 18 08             	prefetcht0 BYTE PTR [rax]
  40702b:	0f 18 8a 40 08 00 00 	prefetcht0 BYTE PTR [rdx+0x840]
  407032:	0f 18 8a 80 08 00 00 	prefetcht0 BYTE PTR [rdx+0x880]
  407039:	0f 18 8a c0 08 00 00 	prefetcht0 BYTE PTR [rdx+0x8c0]
  407040:	c4 c2 7b 4b 2c 34    	tileloadd tmm5,[r12+rsi*1]
  407046:	c4 e2 4b 5e cd       	tdpbssd tmm1,tmm5,tmm6
  40704b:	4c 8d a1 40 80 00 00 	lea    r12,[rcx+0x8040]
  407052:	0f 18 8a 00 09 00 00 	prefetcht0 BYTE PTR [rdx+0x900]
  407059:	0f 18 8a 40 09 00 00 	prefetcht0 BYTE PTR [rdx+0x940]
  407060:	0f 18 8a 80 09 00 00 	prefetcht0 BYTE PTR [rdx+0x980]
  407067:	0f 18 8a c0 09 00 00 	prefetcht0 BYTE PTR [rdx+0x9c0]
  40706e:	c4 c2 7b 4b 24 34    	tileloadd tmm4,[r12+rsi*1]
  407074:	c4 e2 4b 5e d4       	tdpbssd tmm2,tmm4,tmm6
  407079:	4c 8d a1 40 c0 00 00 	lea    r12,[rcx+0xc040]
  407080:	0f 18 8a 00 0a 00 00 	prefetcht0 BYTE PTR [rdx+0xa00]
  407087:	0f 18 8a 40 0a 00 00 	prefetcht0 BYTE PTR [rdx+0xa40]
  40708e:	0f 18 8a 80 0a 00 00 	prefetcht0 BYTE PTR [rdx+0xa80]
  407095:	0f 18 8a c0 0a 00 00 	prefetcht0 BYTE PTR [rdx+0xac0]
  40709c:	c4 c2 7b 4b 2c 34    	tileloadd tmm5,[r12+rsi*1]
  4070a2:	c4 e2 4b 5e dd       	tdpbssd tmm3,tmm5,tmm6
  4070a7:	48 83 e9 80          	sub    rcx,0xffffffffffffff80
  4070ab:	48 81 c7 00 08 00 00 	add    rdi,0x800
  4070b2:	0f 18 8a 00 0b 00 00 	prefetcht0 BYTE PTR [rdx+0xb00]
  4070b9:	0f 18 8a 40 0b 00 00 	prefetcht0 BYTE PTR [rdx+0xb40]
  4070c0:	0f 18 8a 80 0b 00 00 	prefetcht0 BYTE PTR [rdx+0xb80]
  4070c7:	0f 18 8a c0 0b 00 00 	prefetcht0 BYTE PTR [rdx+0xbc0]
  4070ce:	48 39 d8             	cmp    rax,rbx
  4070d1:	0f 85 79 fe ff ff    	jne    406f50 <_ZN12intel_mlperf24_tile_dot_product_16x256ILi4ELi16ENS_9io_policyILi16ELNS_8i_formatE0EEEE7computeEPvmS5_S5_Pff+0x70>
  4070d7:	c4 82 7a 4b 44 0d 00 	tilestored [r13+r9*1+0x0],tmm0
  4070de:	49 8d 95 00 04 00 00 	lea    rdx,[r13+0x400]
  4070e5:	c4 a2 7a 4b 0c 0a    	tilestored [rdx+r9*1],tmm1
  4070eb:	49 8d 95 00 08 00 00 	lea    rdx,[r13+0x800]
  4070f2:	c4 a2 7a 4b 14 0a    	tilestored [rdx+r9*1],tmm2
  4070f8:	49 8d 95 00 0c 00 00 	lea    rdx,[r13+0xc00]
  4070ff:	c4 a2 7a 4b 1c 0a    	tilestored [rdx+r9*1],tmm3
  407105:	48 8d 98 00 40 00 00 	lea    rbx,[rax+0x4000]
  40710c:	49 81 c5 00 10 00 00 	add    r13,0x1000
  407113:	4c 39 fb             	cmp    rbx,r15
  407116:	0f 85 08 fe ff ff    	jne    406f24 <_ZN12intel_mlperf24_tile_dot_product_16x256ILi4ELi16ENS_9io_policyILi16ELNS_8i_formatE0EEEE7computeEPvmS5_S5_Pff+0x44>
  40711c:	4c 89 df             	mov    rdi,r11
  40711f:	62 51 7c 48 10 10    	vmovups zmm10,ZMMWORD PTR [r8]
  407125:	62 51 7c 48 10 48 01 	vmovups zmm9,ZMMWORD PTR [r8+0x40]
  40712c:	62 51 7c 48 10 40 02 	vmovups zmm8,ZMMWORD PTR [r8+0x80]
  407133:	62 d1 7c 48 10 78 03 	vmovups zmm7,ZMMWORD PTR [r8+0xc0]
  40713a:	4c 8b 64 24 c0       	mov    r12,QWORD PTR [rsp-0x40]
  40713f:	62 f2 7d 48 18 35 97 	vbroadcastss zmm6,DWORD PTR [rip+0x4097]        # 40b1e0 <__dso_handle+0x1d8>
  407146:	40 00 00 
  407149:	62 f2 7d 48 18 2d 91 	vbroadcastss zmm5,DWORD PTR [rip+0x4091]        # 40b1e4 <__dso_handle+0x1dc>
  407150:	40 00 00 
  407153:	62 f2 7d 48 18 e0    	vbroadcastss zmm4,xmm0
  407159:	48 c1 e7 04          	shl    rdi,0x4
  40715d:	49 8d 8a 00 04 00 00 	lea    rcx,[r10+0x400]
  407164:	31 f6                	xor    esi,esi
  407166:	48 8d 81 00 fc ff ff 	lea    rax,[rcx-0x400]
  40716d:	4c 89 e2             	mov    rdx,r12
  407170:	62 f1 7c 48 5b 18    	vcvtdq2ps zmm3,ZMMWORD PTR [rax]
  407176:	62 f1 7c 48 5b 50 40 	vcvtdq2ps zmm2,ZMMWORD PTR [rax+0x1000]
  40717d:	62 f1 7c 48 5b 88 00 	vcvtdq2ps zmm1,ZMMWORD PTR [rax+0x2000]
  407184:	20 00 00 
  407187:	62 f1 7c 48 5b 80 00 	vcvtdq2ps zmm0,ZMMWORD PTR [rax+0x3000]
  40718e:	30 00 00 
  407191:	62 f1 2c 48 58 db    	vaddps zmm3,zmm10,zmm3
  407197:	62 f1 34 48 58 d2    	vaddps zmm2,zmm9,zmm2
  40719d:	62 f1 3c 48 58 c9    	vaddps zmm1,zmm8,zmm1
  4071a3:	62 f1 44 48 58 c0    	vaddps zmm0,zmm7,zmm0
  4071a9:	62 f1 64 48 59 dc    	vmulps zmm3,zmm3,zmm4
  4071af:	62 f1 6c 48 59 d4    	vmulps zmm2,zmm2,zmm4
  4071b5:	62 f1 74 48 59 cc    	vmulps zmm1,zmm1,zmm4
  4071bb:	62 f1 7c 48 59 c4    	vmulps zmm0,zmm0,zmm4
  4071c1:	48 83 c0 40          	add    rax,0x40
  4071c5:	62 f3 7d 48 08 db 00 	vrndscaleps zmm3,zmm3,0x0
  4071cc:	62 f3 7d 48 08 d2 00 	vrndscaleps zmm2,zmm2,0x0
  4071d3:	62 f3 7d 48 08 c9 00 	vrndscaleps zmm1,zmm1,0x0
  4071da:	62 f3 7d 48 08 c0 00 	vrndscaleps zmm0,zmm0,0x0
  4071e1:	62 f1 64 48 5d de    	vminps zmm3,zmm3,zmm6
  4071e7:	62 f1 6c 48 5d d6    	vminps zmm2,zmm2,zmm6
  4071ed:	62 f1 74 48 5d ce    	vminps zmm1,zmm1,zmm6
  4071f3:	62 f1 7c 48 5d c6    	vminps zmm0,zmm0,zmm6
  4071f9:	62 f1 64 48 5f dd    	vmaxps zmm3,zmm3,zmm5
  4071ff:	62 f1 6c 48 5f d5    	vmaxps zmm2,zmm2,zmm5
  407205:	62 f1 74 48 5f cd    	vmaxps zmm1,zmm1,zmm5
  40720b:	62 f1 7c 48 5f c5    	vmaxps zmm0,zmm0,zmm5
  407211:	62 f1 7d 48 5b db    	vcvtps2dq zmm3,zmm3
  407217:	62 f1 7d 48 5b d2    	vcvtps2dq zmm2,zmm2
  40721d:	62 f2 7e 48 31 1a    	vpmovdb XMMWORD PTR [rdx],zmm3
  407223:	62 f2 7e 48 31 52 01 	vpmovdb XMMWORD PTR [rdx+0x10],zmm2
  40722a:	62 f1 7d 48 5b c9    	vcvtps2dq zmm1,zmm1
  407230:	62 f1 7d 48 5b c0    	vcvtps2dq zmm0,zmm0
  407236:	62 f2 7e 48 31 4a 02 	vpmovdb XMMWORD PTR [rdx+0x20],zmm1
  40723d:	62 f2 7e 48 31 42 03 	vpmovdb XMMWORD PTR [rdx+0x30],zmm0
  407244:	4c 01 da             	add    rdx,r11
  407247:	48 39 c1             	cmp    rcx,rax
  40724a:	0f 85 20 ff ff ff    	jne    407170 <_ZN12intel_mlperf24_tile_dot_product_16x256ILi4ELi16ENS_9io_policyILi16ELNS_8i_formatE0EEEE7computeEPvmS5_S5_Pff+0x290>
  407250:	48 83 c6 10          	add    rsi,0x10
  407254:	49 01 fc             	add    r12,rdi
  407257:	48 81 c1 00 04 00 00 	add    rcx,0x400
  40725e:	48 83 fe 40          	cmp    rsi,0x40
  407262:	0f 85 fe fe ff ff    	jne    407166 <_ZN12intel_mlperf24_tile_dot_product_16x256ILi4ELi16ENS_9io_policyILi16ELNS_8i_formatE0EEEE7computeEPvmS5_S5_Pff+0x286>
  407268:	c5 f8 77             	vzeroupper 
  40726b:	48 8d 65 d8          	lea    rsp,[rbp-0x28]
  40726f:	5b                   	pop    rbx
  407270:	41 5c                	pop    r12
  407272:	41 5d                	pop    r13
  407274:	41 5e                	pop    r14
  407276:	41 5f                	pop    r15
  407278:	5d                   	pop    rbp
  407279:	c3                   	ret    
  40727a:	66 0f 1f 44 00 00    	nop    WORD PTR [rax+rax*1+0x0]

0000000000407280 <_ZN12intel_mlperf8i_linear13compute_blockILi4ELi16EEEvPvmS2_S2_Pff>:
  407280:	48 89 f7             	mov    rdi,rsi
  407283:	48 89 d6             	mov    rsi,rdx
  407286:	48 89 ca             	mov    rdx,rcx
  407289:	4c 89 c1             	mov    rcx,r8
  40728c:	4d 89 c8             	mov    r8,r9
  40728f:	e9 4c fc ff ff       	jmp    406ee0 <_ZN12intel_mlperf24_tile_dot_product_16x256ILi4ELi16ENS_9io_policyILi16ELNS_8i_formatE0EEEE7computeEPvmS5_S5_Pff>
  407294:	66 2e 0f 1f 84 00 00 	cs nop WORD PTR [rax+rax*1+0x0]
  40729b:	00 00 00 
  40729e:	66 90                	xchg   ax,ax

00000000004072a0 <_ZN12intel_mlperf24_tile_dot_product_16x256ILi4ELi64ENS_9io_policyILi64ELNS_8i_formatE0EEEE7computeEPvmS5_S5_Pff>:
  4072a0:	55                   	push   rbp
  4072a1:	4c 8d 91 00 00 01 00 	lea    r10,[rcx+0x10000]
  4072a8:	41 b9 40 00 00 00    	mov    r9d,0x40
  4072ae:	48 89 e5             	mov    rbp,rsp
  4072b1:	41 57                	push   r15
  4072b3:	49 89 cf             	mov    r15,rcx
  4072b6:	49 81 c7 00 00 05 00 	add    r15,0x50000
  4072bd:	41 56                	push   r14
  4072bf:	49 89 d6             	mov    r14,rdx
  4072c2:	41 55                	push   r13
  4072c4:	41 54                	push   r12
  4072c6:	53                   	push   rbx
  4072c7:	48 89 f3             	mov    rbx,rsi
  4072ca:	be 00 10 00 00       	mov    esi,0x1000
  4072cf:	48 83 e4 c0          	and    rsp,0xffffffffffffffc0
  4072d3:	48 81 ec c8 3f 00 00 	sub    rsp,0x3fc8
  4072da:	48 89 7c 24 c0       	mov    QWORD PTR [rsp-0x40],rdi
  4072df:	4c 8d 5c 24 c8       	lea    r11,[rsp-0x38]
  4072e4:	4d 89 dd             	mov    r13,r11
  4072e7:	c4 e2 7b 49 c0       	tilezero tmm0
  4072ec:	c4 e2 7b 49 c8       	tilezero tmm1
  4072f1:	c4 e2 7b 49 d0       	tilezero tmm2
  4072f6:	c4 e2 7b 49 d8       	tilezero tmm3
  4072fb:	49 8d 82 00 00 ff ff 	lea    rax,[r10-0x10000]
  407302:	4c 89 f1             	mov    rcx,r14
  407305:	49 8d ba 00 04 ff ff 	lea    rdi,[r10-0xfc00]
  40730c:	0f 1f 40 00          	nop    DWORD PTR [rax+0x0]
  407310:	c4 a2 7b 4b 3c 08    	tileloadd tmm7,[rax+r9*1]
  407316:	c4 e2 7b 4b 24 31    	tileloadd tmm4,[rcx+rsi*1]
  40731c:	c4 e2 43 5e c4       	tdpbssd tmm0,tmm4,tmm7
  407321:	48 8d 91 00 00 01 00 	lea    rdx,[rcx+0x10000]
  407328:	0f 18 0f             	prefetcht0 BYTE PTR [rdi]
  40732b:	0f 18 88 40 04 00 00 	prefetcht0 BYTE PTR [rax+0x440]
  407332:	0f 18 88 80 04 00 00 	prefetcht0 BYTE PTR [rax+0x480]
  407339:	0f 18 88 c0 04 00 00 	prefetcht0 BYTE PTR [rax+0x4c0]
  407340:	c4 e2 7b 4b 2c 32    	tileloadd tmm5,[rdx+rsi*1]
  407346:	c4 e2 43 5e cd       	tdpbssd tmm1,tmm5,tmm7
  40734b:	48 8d 91 00 00 02 00 	lea    rdx,[rcx+0x20000]
  407352:	0f 18 88 00 05 00 00 	prefetcht0 BYTE PTR [rax+0x500]
  407359:	0f 18 88 40 05 00 00 	prefetcht0 BYTE PTR [rax+0x540]
  407360:	0f 18 88 80 05 00 00 	prefetcht0 BYTE PTR [rax+0x580]
  407367:	0f 18 88 c0 05 00 00 	prefetcht0 BYTE PTR [rax+0x5c0]
  40736e:	c4 e2 7b 4b 24 32    	tileloadd tmm4,[rdx+rsi*1]
  407374:	c4 e2 43 5e d4       	tdpbssd tmm2,tmm4,tmm7
  407379:	48 8d 91 00 00 03 00 	lea    rdx,[rcx+0x30000]
  407380:	0f 18 88 00 06 00 00 	prefetcht0 BYTE PTR [rax+0x600]
  407387:	0f 18 88 40 06 00 00 	prefetcht0 BYTE PTR [rax+0x640]
  40738e:	0f 18 88 80 06 00 00 	prefetcht0 BYTE PTR [rax+0x680]
  407395:	0f 18 88 c0 06 00 00 	prefetcht0 BYTE PTR [rax+0x6c0]
  40739c:	c4 e2 7b 4b 2c 32    	tileloadd tmm5,[rdx+rsi*1]
  4073a2:	c4 e2 43 5e dd       	tdpbssd tmm3,tmm5,tmm7
  4073a7:	0f 18 88 00 07 00 00 	prefetcht0 BYTE PTR [rax+0x700]
  4073ae:	0f 18 88 40 07 00 00 	prefetcht0 BYTE PTR [rax+0x740]
  4073b5:	0f 18 88 80 07 00 00 	prefetcht0 BYTE PTR [rax+0x780]
  4073bc:	0f 18 88 c0 07 00 00 	prefetcht0 BYTE PTR [rax+0x7c0]
  4073c3:	c4 a2 7b 4b 34 0f    	tileloadd tmm6,[rdi+r9*1]
  4073c9:	48 8d 51 40          	lea    rdx,[rcx+0x40]
  4073cd:	c4 e2 7b 4b 24 32    	tileloadd tmm4,[rdx+rsi*1]
  4073d3:	c4 e2 4b 5e c4       	tdpbssd tmm0,tmm4,tmm6
  4073d8:	48 89 c2             	mov    rdx,rax
  4073db:	48 05 00 08 00 00    	add    rax,0x800
  4073e1:	4c 8d a1 40 00 01 00 	lea    r12,[rcx+0x10040]
  4073e8:	0f 18 08             	prefetcht0 BYTE PTR [rax]
  4073eb:	0f 18 8a 40 08 00 00 	prefetcht0 BYTE PTR [rdx+0x840]
  4073f2:	0f 18 8a 80 08 00 00 	prefetcht0 BYTE PTR [rdx+0x880]
  4073f9:	0f 18 8a c0 08 00 00 	prefetcht0 BYTE PTR [rdx+0x8c0]
  407400:	c4 c2 7b 4b 2c 34    	tileloadd tmm5,[r12+rsi*1]
  407406:	c4 e2 4b 5e cd       	tdpbssd tmm1,tmm5,tmm6
  40740b:	4c 8d a1 40 00 02 00 	lea    r12,[rcx+0x20040]
  407412:	0f 18 8a 00 09 00 00 	prefetcht0 BYTE PTR [rdx+0x900]
  407419:	0f 18 8a 40 09 00 00 	prefetcht0 BYTE PTR [rdx+0x940]
  407420:	0f 18 8a 80 09 00 00 	prefetcht0 BYTE PTR [rdx+0x980]
  407427:	0f 18 8a c0 09 00 00 	prefetcht0 BYTE PTR [rdx+0x9c0]
  40742e:	c4 c2 7b 4b 24 34    	tileloadd tmm4,[r12+rsi*1]
  407434:	c4 e2 4b 5e d4       	tdpbssd tmm2,tmm4,tmm6
  407439:	4c 8d a1 40 00 03 00 	lea    r12,[rcx+0x30040]
  407440:	0f 18 8a 00 0a 00 00 	prefetcht0 BYTE PTR [rdx+0xa00]
  407447:	0f 18 8a 40 0a 00 00 	prefetcht0 BYTE PTR [rdx+0xa40]
  40744e:	0f 18 8a 80 0a 00 00 	prefetcht0 BYTE PTR [rdx+0xa80]
  407455:	0f 18 8a c0 0a 00 00 	prefetcht0 BYTE PTR [rdx+0xac0]
  40745c:	c4 c2 7b 4b 2c 34    	tileloadd tmm5,[r12+rsi*1]
  407462:	c4 e2 4b 5e dd       	tdpbssd tmm3,tmm5,tmm6
  407467:	48 83 e9 80          	sub    rcx,0xffffffffffffff80
  40746b:	48 81 c7 00 08 00 00 	add    rdi,0x800
  407472:	0f 18 8a 00 0b 00 00 	prefetcht0 BYTE PTR [rdx+0xb00]
  407479:	0f 18 8a 40 0b 00 00 	prefetcht0 BYTE PTR [rdx+0xb40]
  407480:	0f 18 8a 80 0b 00 00 	prefetcht0 BYTE PTR [rdx+0xb80]
  407487:	0f 18 8a c0 0b 00 00 	prefetcht0 BYTE PTR [rdx+0xbc0]
  40748e:	4c 39 d0             	cmp    rax,r10
  407491:	0f 85 79 fe ff ff    	jne    407310 <_ZN12intel_mlperf24_tile_dot_product_16x256ILi4ELi64ENS_9io_policyILi64ELNS_8i_formatE0EEEE7computeEPvmS5_S5_Pff+0x70>
  407497:	c4 82 7a 4b 44 0d 00 	tilestored [r13+r9*1+0x0],tmm0
  40749e:	49 8d 95 00 04 00 00 	lea    rdx,[r13+0x400]
  4074a5:	c4 a2 7a 4b 0c 0a    	tilestored [rdx+r9*1],tmm1
  4074ab:	49 8d 95 00 08 00 00 	lea    rdx,[r13+0x800]
  4074b2:	c4 a2 7a 4b 14 0a    	tilestored [rdx+r9*1],tmm2
  4074b8:	49 8d 95 00 0c 00 00 	lea    rdx,[r13+0xc00]
  4074bf:	c4 a2 7a 4b 1c 0a    	tilestored [rdx+r9*1],tmm3
  4074c5:	4c 8d 90 00 00 01 00 	lea    r10,[rax+0x10000]
  4074cc:	49 81 c5 00 10 00 00 	add    r13,0x1000
  4074d3:	4d 39 fa             	cmp    r10,r15
  4074d6:	0f 85 0b fe ff ff    	jne    4072e7 <_ZN12intel_mlperf24_tile_dot_product_16x256ILi4ELi64ENS_9io_policyILi64ELNS_8i_formatE0EEEE7computeEPvmS5_S5_Pff+0x47>
  4074dc:	48 89 de             	mov    rsi,rbx
  4074df:	62 51 7c 48 10 10    	vmovups zmm10,ZMMWORD PTR [r8]
  4074e5:	62 51 7c 48 10 48 01 	vmovups zmm9,ZMMWORD PTR [r8+0x40]
  4074ec:	62 51 7c 48 10 40 02 	vmovups zmm8,ZMMWORD PTR [r8+0x80]
  4074f3:	62 d1 7c 48 10 78 03 	vmovups zmm7,ZMMWORD PTR [r8+0xc0]
  4074fa:	4c 8b 64 24 c0       	mov    r12,QWORD PTR [rsp-0x40]
  4074ff:	62 f2 7d 48 18 35 d7 	vbroadcastss zmm6,DWORD PTR [rip+0x3cd7]        # 40b1e0 <__dso_handle+0x1d8>
  407506:	3c 00 00 
  407509:	62 f2 7d 48 18 2d d1 	vbroadcastss zmm5,DWORD PTR [rip+0x3cd1]        # 40b1e4 <__dso_handle+0x1dc>
  407510:	3c 00 00 
  407513:	62 f2 7d 48 18 e0    	vbroadcastss zmm4,xmm0
  407519:	48 c1 e6 04          	shl    rsi,0x4
  40751d:	49 81 c3 00 04 00 00 	add    r11,0x400
  407524:	31 c9                	xor    ecx,ecx
  407526:	49 8d 83 00 fc ff ff 	lea    rax,[r11-0x400]
  40752d:	4c 89 e2             	mov    rdx,r12
  407530:	62 f1 7c 48 5b 18    	vcvtdq2ps zmm3,ZMMWORD PTR [rax]
  407536:	62 f1 7c 48 5b 50 40 	vcvtdq2ps zmm2,ZMMWORD PTR [rax+0x1000]
  40753d:	62 f1 7c 48 5b 88 00 	vcvtdq2ps zmm1,ZMMWORD PTR [rax+0x2000]
  407544:	20 00 00 
  407547:	62 f1 7c 48 5b 80 00 	vcvtdq2ps zmm0,ZMMWORD PTR [rax+0x3000]
  40754e:	30 00 00 
  407551:	62 f1 2c 48 58 db    	vaddps zmm3,zmm10,zmm3
  407557:	62 f1 34 48 58 d2    	vaddps zmm2,zmm9,zmm2
  40755d:	62 f1 3c 48 58 c9    	vaddps zmm1,zmm8,zmm1
  407563:	62 f1 44 48 58 c0    	vaddps zmm0,zmm7,zmm0
  407569:	62 f1 64 48 59 dc    	vmulps zmm3,zmm3,zmm4
  40756f:	62 f1 6c 48 59 d4    	vmulps zmm2,zmm2,zmm4
  407575:	62 f1 74 48 59 cc    	vmulps zmm1,zmm1,zmm4
  40757b:	62 f1 7c 48 59 c4    	vmulps zmm0,zmm0,zmm4
  407581:	48 83 c0 40          	add    rax,0x40
  407585:	62 f3 7d 48 08 db 00 	vrndscaleps zmm3,zmm3,0x0
  40758c:	62 f3 7d 48 08 d2 00 	vrndscaleps zmm2,zmm2,0x0
  407593:	62 f3 7d 48 08 c9 00 	vrndscaleps zmm1,zmm1,0x0
  40759a:	62 f3 7d 48 08 c0 00 	vrndscaleps zmm0,zmm0,0x0
  4075a1:	62 f1 64 48 5d de    	vminps zmm3,zmm3,zmm6
  4075a7:	62 f1 6c 48 5d d6    	vminps zmm2,zmm2,zmm6
  4075ad:	62 f1 74 48 5d ce    	vminps zmm1,zmm1,zmm6
  4075b3:	62 f1 7c 48 5d c6    	vminps zmm0,zmm0,zmm6
  4075b9:	62 f1 64 48 5f dd    	vmaxps zmm3,zmm3,zmm5
  4075bf:	62 f1 6c 48 5f d5    	vmaxps zmm2,zmm2,zmm5
  4075c5:	62 f1 74 48 5f cd    	vmaxps zmm1,zmm1,zmm5
  4075cb:	62 f1 7c 48 5f c5    	vmaxps zmm0,zmm0,zmm5
  4075d1:	62 f1 7d 48 5b db    	vcvtps2dq zmm3,zmm3
  4075d7:	62 f1 7d 48 5b d2    	vcvtps2dq zmm2,zmm2
  4075dd:	62 f2 7e 48 31 1a    	vpmovdb XMMWORD PTR [rdx],zmm3
  4075e3:	62 f2 7e 48 31 52 01 	vpmovdb XMMWORD PTR [rdx+0x10],zmm2
  4075ea:	62 f1 7d 48 5b c9    	vcvtps2dq zmm1,zmm1
  4075f0:	62 f1 7d 48 5b c0    	vcvtps2dq zmm0,zmm0
  4075f6:	62 f2 7e 48 31 4a 02 	vpmovdb XMMWORD PTR [rdx+0x20],zmm1
  4075fd:	62 f2 7e 48 31 42 03 	vpmovdb XMMWORD PTR [rdx+0x30],zmm0
  407604:	48 01 da             	add    rdx,rbx
  407607:	49 39 c3             	cmp    r11,rax
  40760a:	0f 85 20 ff ff ff    	jne    407530 <_ZN12intel_mlperf24_tile_dot_product_16x256ILi4ELi64ENS_9io_policyILi64ELNS_8i_formatE0EEEE7computeEPvmS5_S5_Pff+0x290>
  407610:	48 83 c1 10          	add    rcx,0x10
  407614:	49 01 f4             	add    r12,rsi
  407617:	49 81 c3 00 04 00 00 	add    r11,0x400
  40761e:	48 83 f9 40          	cmp    rcx,0x40
  407622:	0f 85 fe fe ff ff    	jne    407526 <_ZN12intel_mlperf24_tile_dot_product_16x256ILi4ELi64ENS_9io_policyILi64ELNS_8i_formatE0EEEE7computeEPvmS5_S5_Pff+0x286>
  407628:	c5 f8 77             	vzeroupper 
  40762b:	48 8d 65 d8          	lea    rsp,[rbp-0x28]
  40762f:	5b                   	pop    rbx
  407630:	41 5c                	pop    r12
  407632:	41 5d                	pop    r13
  407634:	41 5e                	pop    r14
  407636:	41 5f                	pop    r15
  407638:	5d                   	pop    rbp
  407639:	c3                   	ret    
  40763a:	66 0f 1f 44 00 00    	nop    WORD PTR [rax+rax*1+0x0]

0000000000407640 <_ZN12intel_mlperf8i_linear13compute_blockILi4ELi64EEEvPvmS2_S2_Pff>:
  407640:	48 89 f7             	mov    rdi,rsi
  407643:	48 89 d6             	mov    rsi,rdx
  407646:	48 89 ca             	mov    rdx,rcx
  407649:	4c 89 c1             	mov    rcx,r8
  40764c:	4d 89 c8             	mov    r8,r9
  40764f:	e9 4c fc ff ff       	jmp    4072a0 <_ZN12intel_mlperf24_tile_dot_product_16x256ILi4ELi64ENS_9io_policyILi64ELNS_8i_formatE0EEEE7computeEPvmS5_S5_Pff>
  407654:	66 2e 0f 1f 84 00 00 	cs nop WORD PTR [rax+rax*1+0x0]
  40765b:	00 00 00 
  40765e:	66 90                	xchg   ax,ax

0000000000407660 <_ZN12intel_mlperf24_tile_dot_product_16x256ILi5ELi16ENS_9io_policyILi16ELNS_8i_formatE0EEEE7computeEPvmS5_S5_Pff>:
  407660:	55                   	push   rbp
  407661:	49 89 f3             	mov    r11,rsi
  407664:	41 ba 40 00 00 00    	mov    r10d,0x40
  40766a:	48 89 e5             	mov    rbp,rsp
  40766d:	41 57                	push   r15
  40766f:	be 00 04 00 00       	mov    esi,0x400
  407674:	41 56                	push   r14
  407676:	49 89 d6             	mov    r14,rdx
  407679:	41 55                	push   r13
  40767b:	41 54                	push   r12
  40767d:	49 89 fc             	mov    r12,rdi
  407680:	53                   	push   rbx
  407681:	48 8d 99 00 40 00 00 	lea    rbx,[rcx+0x4000]
  407688:	48 83 e4 c0          	and    rsp,0xffffffffffffffc0
  40768c:	48 81 ec 88 4f 00 00 	sub    rsp,0x4f88
  407693:	4c 8d 4c 24 88       	lea    r9,[rsp-0x78]
  407698:	4c 8d bc 24 88 4f 00 	lea    r15,[rsp+0x4f88]
  40769f:	00 
  4076a0:	4d 89 cd             	mov    r13,r9
  4076a3:	c4 e2 7b 49 c0       	tilezero tmm0
  4076a8:	c4 e2 7b 49 c8       	tilezero tmm1
  4076ad:	c4 e2 7b 49 d0       	tilezero tmm2
  4076b2:	c4 e2 7b 49 d8       	tilezero tmm3
  4076b7:	c4 e2 7b 49 e0       	tilezero tmm4
  4076bc:	48 8d 8b 00 c0 ff ff 	lea    rcx,[rbx-0x4000]
  4076c3:	4c 89 f2             	mov    rdx,r14
  4076c6:	66 2e 0f 1f 84 00 00 	cs nop WORD PTR [rax+rax*1+0x0]
  4076cd:	00 00 00 
  4076d0:	c4 a2 7b 4b 3c 11    	tileloadd tmm7,[rcx+r10*1]
  4076d6:	c4 e2 7b 4b 2c 32    	tileloadd tmm5,[rdx+rsi*1]
  4076dc:	c4 e2 43 5e c5       	tdpbssd tmm0,tmm5,tmm7
  4076e1:	48 89 c8             	mov    rax,rcx
  4076e4:	48 81 c1 00 04 00 00 	add    rcx,0x400
  4076eb:	48 8d ba 00 40 00 00 	lea    rdi,[rdx+0x4000]
  4076f2:	0f 18 09             	prefetcht0 BYTE PTR [rcx]
  4076f5:	0f 18 88 40 04 00 00 	prefetcht0 BYTE PTR [rax+0x440]
  4076fc:	0f 18 88 80 04 00 00 	prefetcht0 BYTE PTR [rax+0x480]
  407703:	c4 e2 7b 4b 34 37    	tileloadd tmm6,[rdi+rsi*1]
  407709:	c4 e2 43 5e ce       	tdpbssd tmm1,tmm6,tmm7
  40770e:	48 8d ba 00 80 00 00 	lea    rdi,[rdx+0x8000]
  407715:	0f 18 88 c0 04 00 00 	prefetcht0 BYTE PTR [rax+0x4c0]
  40771c:	0f 18 88 00 05 00 00 	prefetcht0 BYTE PTR [rax+0x500]
  407723:	0f 18 88 40 05 00 00 	prefetcht0 BYTE PTR [rax+0x540]
  40772a:	c4 e2 7b 4b 2c 37    	tileloadd tmm5,[rdi+rsi*1]
  407730:	c4 e2 43 5e d5       	tdpbssd tmm2,tmm5,tmm7
  407735:	48 8d ba 00 c0 00 00 	lea    rdi,[rdx+0xc000]
  40773c:	0f 18 88 80 05 00 00 	prefetcht0 BYTE PTR [rax+0x580]
  407743:	0f 18 88 c0 05 00 00 	prefetcht0 BYTE PTR [rax+0x5c0]
  40774a:	0f 18 88 00 06 00 00 	prefetcht0 BYTE PTR [rax+0x600]
  407751:	c4 e2 7b 4b 34 37    	tileloadd tmm6,[rdi+rsi*1]
  407757:	c4 e2 43 5e de       	tdpbssd tmm3,tmm6,tmm7
  40775c:	48 8d ba 00 00 01 00 	lea    rdi,[rdx+0x10000]
  407763:	0f 18 88 40 06 00 00 	prefetcht0 BYTE PTR [rax+0x640]
  40776a:	0f 18 88 80 06 00 00 	prefetcht0 BYTE PTR [rax+0x680]
  407771:	0f 18 88 c0 06 00 00 	prefetcht0 BYTE PTR [rax+0x6c0]
  407778:	c4 e2 7b 4b 2c 37    	tileloadd tmm5,[rdi+rsi*1]
  40777e:	c4 e2 43 5e e5       	tdpbssd tmm4,tmm5,tmm7
  407783:	48 83 c2 40          	add    rdx,0x40
  407787:	0f 18 88 00 07 00 00 	prefetcht0 BYTE PTR [rax+0x700]
  40778e:	0f 18 88 40 07 00 00 	prefetcht0 BYTE PTR [rax+0x740]
  407795:	0f 18 88 80 07 00 00 	prefetcht0 BYTE PTR [rax+0x780]
  40779c:	0f 18 88 c0 07 00 00 	prefetcht0 BYTE PTR [rax+0x7c0]
  4077a3:	48 39 cb             	cmp    rbx,rcx
  4077a6:	0f 85 24 ff ff ff    	jne    4076d0 <_ZN12intel_mlperf24_tile_dot_product_16x256ILi5ELi16ENS_9io_policyILi16ELNS_8i_formatE0EEEE7computeEPvmS5_S5_Pff+0x70>
  4077ac:	c4 82 7a 4b 44 15 00 	tilestored [r13+r10*1+0x0],tmm0
  4077b3:	49 8d 85 00 04 00 00 	lea    rax,[r13+0x400]
  4077ba:	c4 a2 7a 4b 0c 10    	tilestored [rax+r10*1],tmm1
  4077c0:	49 8d 85 00 08 00 00 	lea    rax,[r13+0x800]
  4077c7:	c4 a2 7a 4b 14 10    	tilestored [rax+r10*1],tmm2
  4077cd:	49 8d 85 00 0c 00 00 	lea    rax,[r13+0xc00]
  4077d4:	c4 a2 7a 4b 1c 10    	tilestored [rax+r10*1],tmm3
  4077da:	49 8d 85 00 10 00 00 	lea    rax,[r13+0x1000]
  4077e1:	c4 a2 7a 4b 24 10    	tilestored [rax+r10*1],tmm4
  4077e7:	49 81 c5 00 14 00 00 	add    r13,0x1400
  4077ee:	48 81 c3 00 40 00 00 	add    rbx,0x4000
  4077f5:	4d 39 ef             	cmp    r15,r13
  4077f8:	0f 85 a5 fe ff ff    	jne    4076a3 <_ZN12intel_mlperf24_tile_dot_product_16x256ILi5ELi16ENS_9io_policyILi16ELNS_8i_formatE0EEEE7computeEPvmS5_S5_Pff+0x43>
  4077fe:	4c 89 de             	mov    rsi,r11
  407801:	62 51 7c 48 10 10    	vmovups zmm10,ZMMWORD PTR [r8]
  407807:	62 51 7c 48 10 48 01 	vmovups zmm9,ZMMWORD PTR [r8+0x40]
  40780e:	62 51 7c 48 10 40 02 	vmovups zmm8,ZMMWORD PTR [r8+0x80]
  407815:	62 d1 7c 48 10 78 03 	vmovups zmm7,ZMMWORD PTR [r8+0xc0]
  40781c:	62 f2 7d 48 18 35 ba 	vbroadcastss zmm6,DWORD PTR [rip+0x39ba]        # 40b1e0 <__dso_handle+0x1d8>
  407823:	39 00 00 
  407826:	62 f2 7d 48 18 2d b4 	vbroadcastss zmm5,DWORD PTR [rip+0x39b4]        # 40b1e4 <__dso_handle+0x1dc>
  40782d:	39 00 00 
  407830:	62 f2 7d 48 18 e0    	vbroadcastss zmm4,xmm0
  407836:	48 c1 e6 04          	shl    rsi,0x4
  40783a:	49 81 c1 00 04 00 00 	add    r9,0x400
  407841:	31 c9                	xor    ecx,ecx
  407843:	0f 1f 44 00 00       	nop    DWORD PTR [rax+rax*1+0x0]
  407848:	49 8d 81 00 fc ff ff 	lea    rax,[r9-0x400]
  40784f:	4c 89 e2             	mov    rdx,r12
  407852:	66 0f 1f 44 00 00    	nop    WORD PTR [rax+rax*1+0x0]
  407858:	62 f1 7c 48 5b 18    	vcvtdq2ps zmm3,ZMMWORD PTR [rax]
  40785e:	62 f1 7c 48 5b 50 50 	vcvtdq2ps zmm2,ZMMWORD PTR [rax+0x1400]
  407865:	62 f1 7c 48 5b 88 00 	vcvtdq2ps zmm1,ZMMWORD PTR [rax+0x2800]
  40786c:	28 00 00 
  40786f:	62 f1 7c 48 5b 80 00 	vcvtdq2ps zmm0,ZMMWORD PTR [rax+0x3c00]
  407876:	3c 00 00 
  407879:	62 f1 2c 48 58 db    	vaddps zmm3,zmm10,zmm3
  40787f:	62 f1 34 48 58 d2    	vaddps zmm2,zmm9,zmm2
  407885:	62 f1 3c 48 58 c9    	vaddps zmm1,zmm8,zmm1
  40788b:	62 f1 44 48 58 c0    	vaddps zmm0,zmm7,zmm0
  407891:	62 f1 64 48 59 dc    	vmulps zmm3,zmm3,zmm4
  407897:	62 f1 6c 48 59 d4    	vmulps zmm2,zmm2,zmm4
  40789d:	62 f1 74 48 59 cc    	vmulps zmm1,zmm1,zmm4
  4078a3:	62 f1 7c 48 59 c4    	vmulps zmm0,zmm0,zmm4
  4078a9:	48 83 c0 40          	add    rax,0x40
  4078ad:	62 f3 7d 48 08 db 00 	vrndscaleps zmm3,zmm3,0x0
  4078b4:	62 f3 7d 48 08 d2 00 	vrndscaleps zmm2,zmm2,0x0
  4078bb:	62 f3 7d 48 08 c9 00 	vrndscaleps zmm1,zmm1,0x0
  4078c2:	62 f3 7d 48 08 c0 00 	vrndscaleps zmm0,zmm0,0x0
  4078c9:	62 f1 64 48 5d de    	vminps zmm3,zmm3,zmm6
  4078cf:	62 f1 6c 48 5d d6    	vminps zmm2,zmm2,zmm6
  4078d5:	62 f1 74 48 5d ce    	vminps zmm1,zmm1,zmm6
  4078db:	62 f1 7c 48 5d c6    	vminps zmm0,zmm0,zmm6
  4078e1:	62 f1 64 48 5f dd    	vmaxps zmm3,zmm3,zmm5
  4078e7:	62 f1 6c 48 5f d5    	vmaxps zmm2,zmm2,zmm5
  4078ed:	62 f1 74 48 5f cd    	vmaxps zmm1,zmm1,zmm5
  4078f3:	62 f1 7c 48 5f c5    	vmaxps zmm0,zmm0,zmm5
  4078f9:	62 f1 7d 48 5b db    	vcvtps2dq zmm3,zmm3
  4078ff:	62 f1 7d 48 5b d2    	vcvtps2dq zmm2,zmm2
  407905:	62 f2 7e 48 31 1a    	vpmovdb XMMWORD PTR [rdx],zmm3
  40790b:	62 f2 7e 48 31 52 01 	vpmovdb XMMWORD PTR [rdx+0x10],zmm2
  407912:	62 f1 7d 48 5b c9    	vcvtps2dq zmm1,zmm1
  407918:	62 f1 7d 48 5b c0    	vcvtps2dq zmm0,zmm0
  40791e:	62 f2 7e 48 31 4a 02 	vpmovdb XMMWORD PTR [rdx+0x20],zmm1
  407925:	62 f2 7e 48 31 42 03 	vpmovdb XMMWORD PTR [rdx+0x30],zmm0
  40792c:	4c 01 da             	add    rdx,r11
  40792f:	49 39 c1             	cmp    r9,rax
  407932:	0f 85 20 ff ff ff    	jne    407858 <_ZN12intel_mlperf24_tile_dot_product_16x256ILi5ELi16ENS_9io_policyILi16ELNS_8i_formatE0EEEE7computeEPvmS5_S5_Pff+0x1f8>
  407938:	48 83 c1 10          	add    rcx,0x10
  40793c:	49 01 f4             	add    r12,rsi
  40793f:	49 81 c1 00 04 00 00 	add    r9,0x400
  407946:	48 83 f9 50          	cmp    rcx,0x50
  40794a:	0f 85 f8 fe ff ff    	jne    407848 <_ZN12intel_mlperf24_tile_dot_product_16x256ILi5ELi16ENS_9io_policyILi16ELNS_8i_formatE0EEEE7computeEPvmS5_S5_Pff+0x1e8>
  407950:	c5 f8 77             	vzeroupper 
  407953:	48 8d 65 d8          	lea    rsp,[rbp-0x28]
  407957:	5b                   	pop    rbx
  407958:	41 5c                	pop    r12
  40795a:	41 5d                	pop    r13
  40795c:	41 5e                	pop    r14
  40795e:	41 5f                	pop    r15
  407960:	5d                   	pop    rbp
  407961:	c3                   	ret    
  407962:	66 2e 0f 1f 84 00 00 	cs nop WORD PTR [rax+rax*1+0x0]
  407969:	00 00 00 
  40796c:	0f 1f 40 00          	nop    DWORD PTR [rax+0x0]

0000000000407970 <_ZN12intel_mlperf8i_linear13compute_blockILi5ELi16EEEvPvmS2_S2_Pff>:
  407970:	48 89 f7             	mov    rdi,rsi
  407973:	48 89 d6             	mov    rsi,rdx
  407976:	48 89 ca             	mov    rdx,rcx
  407979:	4c 89 c1             	mov    rcx,r8
  40797c:	4d 89 c8             	mov    r8,r9
  40797f:	e9 dc fc ff ff       	jmp    407660 <_ZN12intel_mlperf24_tile_dot_product_16x256ILi5ELi16ENS_9io_policyILi16ELNS_8i_formatE0EEEE7computeEPvmS5_S5_Pff>
  407984:	66 2e 0f 1f 84 00 00 	cs nop WORD PTR [rax+rax*1+0x0]
  40798b:	00 00 00 
  40798e:	66 90                	xchg   ax,ax

0000000000407990 <_ZN12intel_mlperf24_tile_dot_product_16x256ILi5ELi64ENS_9io_policyILi64ELNS_8i_formatE0EEEE7computeEPvmS5_S5_Pff>:
  407990:	55                   	push   rbp
  407991:	c5 f8 28 e0          	vmovaps xmm4,xmm0
  407995:	4c 8d 91 00 00 01 00 	lea    r10,[rcx+0x10000]
  40799c:	48 89 e5             	mov    rbp,rsp
  40799f:	41 57                	push   r15
  4079a1:	41 b9 40 00 00 00    	mov    r9d,0x40
  4079a7:	41 56                	push   r14
  4079a9:	4d 89 c6             	mov    r14,r8
  4079ac:	41 55                	push   r13
  4079ae:	49 89 d5             	mov    r13,rdx
  4079b1:	41 54                	push   r12
  4079b3:	49 89 fc             	mov    r12,rdi
  4079b6:	53                   	push   rbx
  4079b7:	48 89 f3             	mov    rbx,rsi
  4079ba:	be 00 10 00 00       	mov    esi,0x1000
  4079bf:	48 83 e4 c0          	and    rsp,0xffffffffffffffc0
  4079c3:	48 81 ec 88 4f 00 00 	sub    rsp,0x4f88
  4079ca:	4c 8d 5c 24 88       	lea    r11,[rsp-0x78]
  4079cf:	4c 8d bc 24 88 4f 00 	lea    r15,[rsp+0x4f88]
  4079d6:	00 
  4079d7:	4d 89 d8             	mov    r8,r11
  4079da:	c4 e2 7b 49 c0       	tilezero tmm0
  4079df:	c4 e2 7b 49 c8       	tilezero tmm1
  4079e4:	c4 e2 7b 49 d0       	tilezero tmm2
  4079e9:	c4 e2 7b 49 d8       	tilezero tmm3
  4079ee:	c4 e2 7b 49 e0       	tilezero tmm4
  4079f3:	49 8d 8a 00 00 ff ff 	lea    rcx,[r10-0x10000]
  4079fa:	4c 89 ea             	mov    rdx,r13
  4079fd:	0f 1f 00             	nop    DWORD PTR [rax]
  407a00:	c4 a2 7b 4b 3c 09    	tileloadd tmm7,[rcx+r9*1]
  407a06:	c4 e2 7b 4b 2c 32    	tileloadd tmm5,[rdx+rsi*1]
  407a0c:	c4 e2 43 5e c5       	tdpbssd tmm0,tmm5,tmm7
  407a11:	48 89 c8             	mov    rax,rcx
  407a14:	48 81 c1 00 04 00 00 	add    rcx,0x400
  407a1b:	48 8d ba 00 00 01 00 	lea    rdi,[rdx+0x10000]
  407a22:	0f 18 09             	prefetcht0 BYTE PTR [rcx]
  407a25:	0f 18 88 40 04 00 00 	prefetcht0 BYTE PTR [rax+0x440]
  407a2c:	0f 18 88 80 04 00 00 	prefetcht0 BYTE PTR [rax+0x480]
  407a33:	c4 e2 7b 4b 34 37    	tileloadd tmm6,[rdi+rsi*1]
  407a39:	c4 e2 43 5e ce       	tdpbssd tmm1,tmm6,tmm7
  407a3e:	48 8d ba 00 00 02 00 	lea    rdi,[rdx+0x20000]
  407a45:	0f 18 88 c0 04 00 00 	prefetcht0 BYTE PTR [rax+0x4c0]
  407a4c:	0f 18 88 00 05 00 00 	prefetcht0 BYTE PTR [rax+0x500]
  407a53:	0f 18 88 40 05 00 00 	prefetcht0 BYTE PTR [rax+0x540]
  407a5a:	c4 e2 7b 4b 2c 37    	tileloadd tmm5,[rdi+rsi*1]
  407a60:	c4 e2 43 5e d5       	tdpbssd tmm2,tmm5,tmm7
  407a65:	48 8d ba 00 00 03 00 	lea    rdi,[rdx+0x30000]
  407a6c:	0f 18 88 80 05 00 00 	prefetcht0 BYTE PTR [rax+0x580]
  407a73:	0f 18 88 c0 05 00 00 	prefetcht0 BYTE PTR [rax+0x5c0]
  407a7a:	0f 18 88 00 06 00 00 	prefetcht0 BYTE PTR [rax+0x600]
  407a81:	c4 e2 7b 4b 34 37    	tileloadd tmm6,[rdi+rsi*1]
  407a87:	c4 e2 43 5e de       	tdpbssd tmm3,tmm6,tmm7
  407a8c:	48 8d ba 00 00 04 00 	lea    rdi,[rdx+0x40000]
  407a93:	0f 18 88 40 06 00 00 	prefetcht0 BYTE PTR [rax+0x640]
  407a9a:	0f 18 88 80 06 00 00 	prefetcht0 BYTE PTR [rax+0x680]
  407aa1:	0f 18 88 c0 06 00 00 	prefetcht0 BYTE PTR [rax+0x6c0]
  407aa8:	c4 e2 7b 4b 2c 37    	tileloadd tmm5,[rdi+rsi*1]
  407aae:	c4 e2 43 5e e5       	tdpbssd tmm4,tmm5,tmm7
  407ab3:	48 83 c2 40          	add    rdx,0x40
  407ab7:	0f 18 88 00 07 00 00 	prefetcht0 BYTE PTR [rax+0x700]
  407abe:	0f 18 88 40 07 00 00 	prefetcht0 BYTE PTR [rax+0x740]
  407ac5:	0f 18 88 80 07 00 00 	prefetcht0 BYTE PTR [rax+0x780]
  407acc:	0f 18 88 c0 07 00 00 	prefetcht0 BYTE PTR [rax+0x7c0]
  407ad3:	49 39 ca             	cmp    r10,rcx
  407ad6:	0f 85 24 ff ff ff    	jne    407a00 <_ZN12intel_mlperf24_tile_dot_product_16x256ILi5ELi64ENS_9io_policyILi64ELNS_8i_formatE0EEEE7computeEPvmS5_S5_Pff+0x70>
  407adc:	c4 82 7a 4b 04 08    	tilestored [r8+r9*1],tmm0
  407ae2:	49 8d 80 00 04 00 00 	lea    rax,[r8+0x400]
  407ae9:	c4 a2 7a 4b 0c 08    	tilestored [rax+r9*1],tmm1
  407aef:	49 8d 80 00 08 00 00 	lea    rax,[r8+0x800]
  407af6:	c4 a2 7a 4b 14 08    	tilestored [rax+r9*1],tmm2
  407afc:	49 8d 80 00 0c 00 00 	lea    rax,[r8+0xc00]
  407b03:	c4 a2 7a 4b 1c 08    	tilestored [rax+r9*1],tmm3
  407b09:	49 8d 80 00 10 00 00 	lea    rax,[r8+0x1000]
  407b10:	c4 a2 7a 4b 24 08    	tilestored [rax+r9*1],tmm4
  407b16:	49 81 c0 00 14 00 00 	add    r8,0x1400
  407b1d:	49 81 c2 00 00 01 00 	add    r10,0x10000
  407b24:	4d 39 c7             	cmp    r15,r8
  407b27:	0f 85 ad fe ff ff    	jne    4079da <_ZN12intel_mlperf24_tile_dot_product_16x256ILi5ELi64ENS_9io_policyILi64ELNS_8i_formatE0EEEE7computeEPvmS5_S5_Pff+0x4a>
  407b2d:	48 89 de             	mov    rsi,rbx
  407b30:	62 51 7c 48 10 16    	vmovups zmm10,ZMMWORD PTR [r14]
  407b36:	62 51 7c 48 10 4e 01 	vmovups zmm9,ZMMWORD PTR [r14+0x40]
  407b3d:	62 51 7c 48 10 46 02 	vmovups zmm8,ZMMWORD PTR [r14+0x80]
  407b44:	62 d1 7c 48 10 7e 03 	vmovups zmm7,ZMMWORD PTR [r14+0xc0]
  407b4b:	62 f2 7d 48 18 35 8b 	vbroadcastss zmm6,DWORD PTR [rip+0x368b]        # 40b1e0 <__dso_handle+0x1d8>
  407b52:	36 00 00 
  407b55:	62 f2 7d 48 18 2d 85 	vbroadcastss zmm5,DWORD PTR [rip+0x3685]        # 40b1e4 <__dso_handle+0x1dc>
  407b5c:	36 00 00 
  407b5f:	62 f2 7d 48 18 e4    	vbroadcastss zmm4,xmm4
  407b65:	48 c1 e6 04          	shl    rsi,0x4
  407b69:	49 81 c3 00 04 00 00 	add    r11,0x400
  407b70:	31 c9                	xor    ecx,ecx
  407b72:	66 0f 1f 44 00 00    	nop    WORD PTR [rax+rax*1+0x0]
  407b78:	49 8d 83 00 fc ff ff 	lea    rax,[r11-0x400]
  407b7f:	4c 89 e2             	mov    rdx,r12
  407b82:	66 0f 1f 44 00 00    	nop    WORD PTR [rax+rax*1+0x0]
  407b88:	62 f1 7c 48 5b 18    	vcvtdq2ps zmm3,ZMMWORD PTR [rax]
  407b8e:	62 f1 7c 48 5b 50 50 	vcvtdq2ps zmm2,ZMMWORD PTR [rax+0x1400]
  407b95:	62 f1 7c 48 5b 88 00 	vcvtdq2ps zmm1,ZMMWORD PTR [rax+0x2800]
  407b9c:	28 00 00 
  407b9f:	62 f1 7c 48 5b 80 00 	vcvtdq2ps zmm0,ZMMWORD PTR [rax+0x3c00]
  407ba6:	3c 00 00 
  407ba9:	62 f1 2c 48 58 db    	vaddps zmm3,zmm10,zmm3
  407baf:	62 f1 34 48 58 d2    	vaddps zmm2,zmm9,zmm2
  407bb5:	62 f1 3c 48 58 c9    	vaddps zmm1,zmm8,zmm1
  407bbb:	62 f1 44 48 58 c0    	vaddps zmm0,zmm7,zmm0
  407bc1:	62 f1 64 48 59 dc    	vmulps zmm3,zmm3,zmm4
  407bc7:	62 f1 6c 48 59 d4    	vmulps zmm2,zmm2,zmm4
  407bcd:	62 f1 74 48 59 cc    	vmulps zmm1,zmm1,zmm4
  407bd3:	62 f1 7c 48 59 c4    	vmulps zmm0,zmm0,zmm4
  407bd9:	48 83 c0 40          	add    rax,0x40
  407bdd:	62 f3 7d 48 08 db 00 	vrndscaleps zmm3,zmm3,0x0
  407be4:	62 f3 7d 48 08 d2 00 	vrndscaleps zmm2,zmm2,0x0
  407beb:	62 f3 7d 48 08 c9 00 	vrndscaleps zmm1,zmm1,0x0
  407bf2:	62 f3 7d 48 08 c0 00 	vrndscaleps zmm0,zmm0,0x0
  407bf9:	62 f1 64 48 5d de    	vminps zmm3,zmm3,zmm6
  407bff:	62 f1 6c 48 5d d6    	vminps zmm2,zmm2,zmm6
  407c05:	62 f1 74 48 5d ce    	vminps zmm1,zmm1,zmm6
  407c0b:	62 f1 7c 48 5d c6    	vminps zmm0,zmm0,zmm6
  407c11:	62 f1 64 48 5f dd    	vmaxps zmm3,zmm3,zmm5
  407c17:	62 f1 6c 48 5f d5    	vmaxps zmm2,zmm2,zmm5
  407c1d:	62 f1 74 48 5f cd    	vmaxps zmm1,zmm1,zmm5
  407c23:	62 f1 7c 48 5f c5    	vmaxps zmm0,zmm0,zmm5
  407c29:	62 f1 7d 48 5b db    	vcvtps2dq zmm3,zmm3
  407c2f:	62 f1 7d 48 5b d2    	vcvtps2dq zmm2,zmm2
  407c35:	62 f2 7e 48 31 1a    	vpmovdb XMMWORD PTR [rdx],zmm3
  407c3b:	62 f2 7e 48 31 52 01 	vpmovdb XMMWORD PTR [rdx+0x10],zmm2
  407c42:	62 f1 7d 48 5b c9    	vcvtps2dq zmm1,zmm1
  407c48:	62 f1 7d 48 5b c0    	vcvtps2dq zmm0,zmm0
  407c4e:	62 f2 7e 48 31 4a 02 	vpmovdb XMMWORD PTR [rdx+0x20],zmm1
  407c55:	62 f2 7e 48 31 42 03 	vpmovdb XMMWORD PTR [rdx+0x30],zmm0
  407c5c:	48 01 da             	add    rdx,rbx
  407c5f:	49 39 c3             	cmp    r11,rax
  407c62:	0f 85 20 ff ff ff    	jne    407b88 <_ZN12intel_mlperf24_tile_dot_product_16x256ILi5ELi64ENS_9io_policyILi64ELNS_8i_formatE0EEEE7computeEPvmS5_S5_Pff+0x1f8>
  407c68:	48 83 c1 10          	add    rcx,0x10
  407c6c:	49 01 f4             	add    r12,rsi
  407c6f:	49 81 c3 00 04 00 00 	add    r11,0x400
  407c76:	48 83 f9 50          	cmp    rcx,0x50
  407c7a:	0f 85 f8 fe ff ff    	jne    407b78 <_ZN12intel_mlperf24_tile_dot_product_16x256ILi5ELi64ENS_9io_policyILi64ELNS_8i_formatE0EEEE7computeEPvmS5_S5_Pff+0x1e8>
  407c80:	c5 f8 77             	vzeroupper 
  407c83:	48 8d 65 d8          	lea    rsp,[rbp-0x28]
  407c87:	5b                   	pop    rbx
  407c88:	41 5c                	pop    r12
  407c8a:	41 5d                	pop    r13
  407c8c:	41 5e                	pop    r14
  407c8e:	41 5f                	pop    r15
  407c90:	5d                   	pop    rbp
  407c91:	c3                   	ret    
  407c92:	66 2e 0f 1f 84 00 00 	cs nop WORD PTR [rax+rax*1+0x0]
  407c99:	00 00 00 
  407c9c:	0f 1f 40 00          	nop    DWORD PTR [rax+0x0]

0000000000407ca0 <_ZN12intel_mlperf8i_linear13compute_blockILi5ELi64EEEvPvmS2_S2_Pff>:
  407ca0:	48 89 f7             	mov    rdi,rsi
  407ca3:	48 89 d6             	mov    rsi,rdx
  407ca6:	48 89 ca             	mov    rdx,rcx
  407ca9:	4c 89 c1             	mov    rcx,r8
  407cac:	4d 89 c8             	mov    r8,r9
  407caf:	e9 dc fc ff ff       	jmp    407990 <_ZN12intel_mlperf24_tile_dot_product_16x256ILi5ELi64ENS_9io_policyILi64ELNS_8i_formatE0EEEE7computeEPvmS5_S5_Pff>
  407cb4:	66 2e 0f 1f 84 00 00 	cs nop WORD PTR [rax+rax*1+0x0]
  407cbb:	00 00 00 
  407cbe:	66 90                	xchg   ax,ax

0000000000407cc0 <_ZN12intel_mlperf24_tile_dot_product_16x256ILi6ELi16ENS_9io_policyILi16ELNS_8i_formatE0EEEE7computeEPvmS5_S5_Pff>:
  407cc0:	55                   	push   rbp
  407cc1:	49 89 f2             	mov    r10,rsi
  407cc4:	41 bb 40 00 00 00    	mov    r11d,0x40
  407cca:	48 89 e5             	mov    rbp,rsp
  407ccd:	41 57                	push   r15
  407ccf:	be 00 04 00 00       	mov    esi,0x400
  407cd4:	41 56                	push   r14
  407cd6:	49 89 d6             	mov    r14,rdx
  407cd9:	41 55                	push   r13
  407cdb:	41 54                	push   r12
  407cdd:	49 89 fc             	mov    r12,rdi
  407ce0:	53                   	push   rbx
  407ce1:	48 8d 99 00 40 00 00 	lea    rbx,[rcx+0x4000]
  407ce8:	48 83 e4 c0          	and    rsp,0xffffffffffffffc0
  407cec:	48 81 ec 88 5f 00 00 	sub    rsp,0x5f88
  407cf3:	4c 8d 4c 24 88       	lea    r9,[rsp-0x78]
  407cf8:	4c 8d bc 24 88 5f 00 	lea    r15,[rsp+0x5f88]
  407cff:	00 
  407d00:	4d 89 cd             	mov    r13,r9
  407d03:	c4 e2 7b 49 c0       	tilezero tmm0
  407d08:	c4 e2 7b 49 c8       	tilezero tmm1
  407d0d:	c4 e2 7b 49 d0       	tilezero tmm2
  407d12:	c4 e2 7b 49 d8       	tilezero tmm3
  407d17:	c4 e2 7b 49 e0       	tilezero tmm4
  407d1c:	c4 e2 7b 49 e8       	tilezero tmm5
  407d21:	48 8d 8b 00 c0 ff ff 	lea    rcx,[rbx-0x4000]
  407d28:	4c 89 f2             	mov    rdx,r14
  407d2b:	0f 1f 44 00 00       	nop    DWORD PTR [rax+rax*1+0x0]
  407d30:	c4 a2 7b 4b 3c 19    	tileloadd tmm7,[rcx+r11*1]
  407d36:	c4 e2 7b 4b 34 32    	tileloadd tmm6,[rdx+rsi*1]
  407d3c:	c4 e2 43 5e c6       	tdpbssd tmm0,tmm6,tmm7
  407d41:	48 89 c8             	mov    rax,rcx
  407d44:	48 81 c1 00 04 00 00 	add    rcx,0x400
  407d4b:	48 8d ba 00 40 00 00 	lea    rdi,[rdx+0x4000]
  407d52:	0f 18 09             	prefetcht0 BYTE PTR [rcx]
  407d55:	0f 18 88 40 04 00 00 	prefetcht0 BYTE PTR [rax+0x440]
  407d5c:	0f 18 88 80 04 00 00 	prefetcht0 BYTE PTR [rax+0x480]
  407d63:	c4 e2 7b 4b 34 37    	tileloadd tmm6,[rdi+rsi*1]
  407d69:	c4 e2 43 5e ce       	tdpbssd tmm1,tmm6,tmm7
  407d6e:	48 8d ba 00 80 00 00 	lea    rdi,[rdx+0x8000]
  407d75:	0f 18 88 c0 04 00 00 	prefetcht0 BYTE PTR [rax+0x4c0]
  407d7c:	0f 18 88 00 05 00 00 	prefetcht0 BYTE PTR [rax+0x500]
  407d83:	0f 18 88 40 05 00 00 	prefetcht0 BYTE PTR [rax+0x540]
  407d8a:	c4 e2 7b 4b 34 37    	tileloadd tmm6,[rdi+rsi*1]
  407d90:	c4 e2 43 5e d6       	tdpbssd tmm2,tmm6,tmm7
  407d95:	48 8d ba 00 c0 00 00 	lea    rdi,[rdx+0xc000]
  407d9c:	0f 18 88 80 05 00 00 	prefetcht0 BYTE PTR [rax+0x580]
  407da3:	0f 18 88 c0 05 00 00 	prefetcht0 BYTE PTR [rax+0x5c0]
  407daa:	0f 18 88 00 06 00 00 	prefetcht0 BYTE PTR [rax+0x600]
  407db1:	c4 e2 7b 4b 34 37    	tileloadd tmm6,[rdi+rsi*1]
  407db7:	c4 e2 43 5e de       	tdpbssd tmm3,tmm6,tmm7
  407dbc:	48 8d ba 00 00 01 00 	lea    rdi,[rdx+0x10000]
  407dc3:	0f 18 88 40 06 00 00 	prefetcht0 BYTE PTR [rax+0x640]
  407dca:	0f 18 88 80 06 00 00 	prefetcht0 BYTE PTR [rax+0x680]
  407dd1:	0f 18 88 c0 06 00 00 	prefetcht0 BYTE PTR [rax+0x6c0]
  407dd8:	c4 e2 7b 4b 34 37    	tileloadd tmm6,[rdi+rsi*1]
  407dde:	c4 e2 43 5e e6       	tdpbssd tmm4,tmm6,tmm7
  407de3:	48 8d ba 00 40 01 00 	lea    rdi,[rdx+0x14000]
  407dea:	0f 18 88 00 07 00 00 	prefetcht0 BYTE PTR [rax+0x700]
  407df1:	0f 18 88 40 07 00 00 	prefetcht0 BYTE PTR [rax+0x740]
  407df8:	0f 18 88 80 07 00 00 	prefetcht0 BYTE PTR [rax+0x780]
  407dff:	c4 e2 7b 4b 34 37    	tileloadd tmm6,[rdi+rsi*1]
  407e05:	c4 e2 43 5e ee       	tdpbssd tmm5,tmm6,tmm7
  407e0a:	48 83 c2 40          	add    rdx,0x40
  407e0e:	0f 18 88 c0 07 00 00 	prefetcht0 BYTE PTR [rax+0x7c0]
  407e15:	48 39 cb             	cmp    rbx,rcx
  407e18:	0f 85 12 ff ff ff    	jne    407d30 <_ZN12intel_mlperf24_tile_dot_product_16x256ILi6ELi16ENS_9io_policyILi16ELNS_8i_formatE0EEEE7computeEPvmS5_S5_Pff+0x70>
  407e1e:	c4 82 7a 4b 44 1d 00 	tilestored [r13+r11*1+0x0],tmm0
  407e25:	49 8d 85 00 04 00 00 	lea    rax,[r13+0x400]
  407e2c:	c4 a2 7a 4b 0c 18    	tilestored [rax+r11*1],tmm1
  407e32:	49 8d 85 00 08 00 00 	lea    rax,[r13+0x800]
  407e39:	c4 a2 7a 4b 14 18    	tilestored [rax+r11*1],tmm2
  407e3f:	49 8d 85 00 0c 00 00 	lea    rax,[r13+0xc00]
  407e46:	c4 a2 7a 4b 1c 18    	tilestored [rax+r11*1],tmm3
  407e4c:	49 8d 85 00 10 00 00 	lea    rax,[r13+0x1000]
  407e53:	c4 a2 7a 4b 24 18    	tilestored [rax+r11*1],tmm4
  407e59:	49 8d 85 00 14 00 00 	lea    rax,[r13+0x1400]
  407e60:	c4 a2 7a 4b 2c 18    	tilestored [rax+r11*1],tmm5
  407e66:	49 81 c5 00 18 00 00 	add    r13,0x1800
  407e6d:	48 81 c3 00 40 00 00 	add    rbx,0x4000
  407e74:	4d 39 fd             	cmp    r13,r15
  407e77:	0f 85 86 fe ff ff    	jne    407d03 <_ZN12intel_mlperf24_tile_dot_product_16x256ILi6ELi16ENS_9io_policyILi16ELNS_8i_formatE0EEEE7computeEPvmS5_S5_Pff+0x43>
  407e7d:	4c 89 d6             	mov    rsi,r10
  407e80:	62 51 7c 48 10 10    	vmovups zmm10,ZMMWORD PTR [r8]
  407e86:	62 51 7c 48 10 48 01 	vmovups zmm9,ZMMWORD PTR [r8+0x40]
  407e8d:	62 51 7c 48 10 40 02 	vmovups zmm8,ZMMWORD PTR [r8+0x80]
  407e94:	62 d1 7c 48 10 78 03 	vmovups zmm7,ZMMWORD PTR [r8+0xc0]
  407e9b:	62 f2 7d 48 18 35 3b 	vbroadcastss zmm6,DWORD PTR [rip+0x333b]        # 40b1e0 <__dso_handle+0x1d8>
  407ea2:	33 00 00 
  407ea5:	62 f2 7d 48 18 2d 35 	vbroadcastss zmm5,DWORD PTR [rip+0x3335]        # 40b1e4 <__dso_handle+0x1dc>
  407eac:	33 00 00 
  407eaf:	62 f2 7d 48 18 e0    	vbroadcastss zmm4,xmm0
  407eb5:	48 c1 e6 04          	shl    rsi,0x4
  407eb9:	49 81 c1 00 04 00 00 	add    r9,0x400
  407ec0:	31 c9                	xor    ecx,ecx
  407ec2:	66 0f 1f 44 00 00    	nop    WORD PTR [rax+rax*1+0x0]
  407ec8:	49 8d 81 00 fc ff ff 	lea    rax,[r9-0x400]
  407ecf:	4c 89 e2             	mov    rdx,r12
  407ed2:	66 0f 1f 44 00 00    	nop    WORD PTR [rax+rax*1+0x0]
  407ed8:	62 f1 7c 48 5b 18    	vcvtdq2ps zmm3,ZMMWORD PTR [rax]
  407ede:	62 f1 7c 48 5b 50 60 	vcvtdq2ps zmm2,ZMMWORD PTR [rax+0x1800]
  407ee5:	62 f1 7c 48 5b 88 00 	vcvtdq2ps zmm1,ZMMWORD PTR [rax+0x3000]
  407eec:	30 00 00 
  407eef:	62 f1 7c 48 5b 80 00 	vcvtdq2ps zmm0,ZMMWORD PTR [rax+0x4800]
  407ef6:	48 00 00 
  407ef9:	62 f1 2c 48 58 db    	vaddps zmm3,zmm10,zmm3
  407eff:	62 f1 34 48 58 d2    	vaddps zmm2,zmm9,zmm2
  407f05:	62 f1 3c 48 58 c9    	vaddps zmm1,zmm8,zmm1
  407f0b:	62 f1 44 48 58 c0    	vaddps zmm0,zmm7,zmm0
  407f11:	62 f1 64 48 59 dc    	vmulps zmm3,zmm3,zmm4
  407f17:	62 f1 6c 48 59 d4    	vmulps zmm2,zmm2,zmm4
  407f1d:	62 f1 74 48 59 cc    	vmulps zmm1,zmm1,zmm4
  407f23:	62 f1 7c 48 59 c4    	vmulps zmm0,zmm0,zmm4
  407f29:	48 83 c0 40          	add    rax,0x40
  407f2d:	62 f3 7d 48 08 db 00 	vrndscaleps zmm3,zmm3,0x0
  407f34:	62 f3 7d 48 08 d2 00 	vrndscaleps zmm2,zmm2,0x0
  407f3b:	62 f3 7d 48 08 c9 00 	vrndscaleps zmm1,zmm1,0x0
  407f42:	62 f3 7d 48 08 c0 00 	vrndscaleps zmm0,zmm0,0x0
  407f49:	62 f1 64 48 5d de    	vminps zmm3,zmm3,zmm6
  407f4f:	62 f1 6c 48 5d d6    	vminps zmm2,zmm2,zmm6
  407f55:	62 f1 74 48 5d ce    	vminps zmm1,zmm1,zmm6
  407f5b:	62 f1 7c 48 5d c6    	vminps zmm0,zmm0,zmm6
  407f61:	62 f1 64 48 5f dd    	vmaxps zmm3,zmm3,zmm5
  407f67:	62 f1 6c 48 5f d5    	vmaxps zmm2,zmm2,zmm5
  407f6d:	62 f1 74 48 5f cd    	vmaxps zmm1,zmm1,zmm5
  407f73:	62 f1 7c 48 5f c5    	vmaxps zmm0,zmm0,zmm5
  407f79:	62 f1 7d 48 5b db    	vcvtps2dq zmm3,zmm3
  407f7f:	62 f1 7d 48 5b d2    	vcvtps2dq zmm2,zmm2
  407f85:	62 f2 7e 48 31 1a    	vpmovdb XMMWORD PTR [rdx],zmm3
  407f8b:	62 f2 7e 48 31 52 01 	vpmovdb XMMWORD PTR [rdx+0x10],zmm2
  407f92:	62 f1 7d 48 5b c9    	vcvtps2dq zmm1,zmm1
  407f98:	62 f1 7d 48 5b c0    	vcvtps2dq zmm0,zmm0
  407f9e:	62 f2 7e 48 31 4a 02 	vpmovdb XMMWORD PTR [rdx+0x20],zmm1
  407fa5:	62 f2 7e 48 31 42 03 	vpmovdb XMMWORD PTR [rdx+0x30],zmm0
  407fac:	4c 01 d2             	add    rdx,r10
  407faf:	49 39 c1             	cmp    r9,rax
  407fb2:	0f 85 20 ff ff ff    	jne    407ed8 <_ZN12intel_mlperf24_tile_dot_product_16x256ILi6ELi16ENS_9io_policyILi16ELNS_8i_formatE0EEEE7computeEPvmS5_S5_Pff+0x218>
  407fb8:	48 83 c1 10          	add    rcx,0x10
  407fbc:	49 01 f4             	add    r12,rsi
  407fbf:	49 81 c1 00 04 00 00 	add    r9,0x400
  407fc6:	48 83 f9 60          	cmp    rcx,0x60
  407fca:	0f 85 f8 fe ff ff    	jne    407ec8 <_ZN12intel_mlperf24_tile_dot_product_16x256ILi6ELi16ENS_9io_policyILi16ELNS_8i_formatE0EEEE7computeEPvmS5_S5_Pff+0x208>
  407fd0:	c5 f8 77             	vzeroupper 
  407fd3:	48 8d 65 d8          	lea    rsp,[rbp-0x28]
  407fd7:	5b                   	pop    rbx
  407fd8:	41 5c                	pop    r12
  407fda:	41 5d                	pop    r13
  407fdc:	41 5e                	pop    r14
  407fde:	41 5f                	pop    r15
  407fe0:	5d                   	pop    rbp
  407fe1:	c3                   	ret    
  407fe2:	66 2e 0f 1f 84 00 00 	cs nop WORD PTR [rax+rax*1+0x0]
  407fe9:	00 00 00 
  407fec:	0f 1f 40 00          	nop    DWORD PTR [rax+0x0]

0000000000407ff0 <_ZN12intel_mlperf8i_linear13compute_blockILi6ELi16EEEvPvmS2_S2_Pff>:
  407ff0:	48 89 f7             	mov    rdi,rsi
  407ff3:	48 89 d6             	mov    rsi,rdx
  407ff6:	48 89 ca             	mov    rdx,rcx
  407ff9:	4c 89 c1             	mov    rcx,r8
  407ffc:	4d 89 c8             	mov    r8,r9
  407fff:	e9 bc fc ff ff       	jmp    407cc0 <_ZN12intel_mlperf24_tile_dot_product_16x256ILi6ELi16ENS_9io_policyILi16ELNS_8i_formatE0EEEE7computeEPvmS5_S5_Pff>
  408004:	66 2e 0f 1f 84 00 00 	cs nop WORD PTR [rax+rax*1+0x0]
  40800b:	00 00 00 
  40800e:	66 90                	xchg   ax,ax

0000000000408010 <_ZN12intel_mlperf24_tile_dot_product_16x256ILi6ELi64ENS_9io_policyILi64ELNS_8i_formatE0EEEE7computeEPvmS5_S5_Pff>:
  408010:	55                   	push   rbp
  408011:	c5 f8 28 e0          	vmovaps xmm4,xmm0
  408015:	4c 8d 91 00 00 01 00 	lea    r10,[rcx+0x10000]
  40801c:	48 89 e5             	mov    rbp,rsp
  40801f:	41 57                	push   r15
  408021:	41 b9 40 00 00 00    	mov    r9d,0x40
  408027:	41 56                	push   r14
  408029:	4d 89 c6             	mov    r14,r8
  40802c:	41 55                	push   r13
  40802e:	49 89 d5             	mov    r13,rdx
  408031:	41 54                	push   r12
  408033:	49 89 fc             	mov    r12,rdi
  408036:	53                   	push   rbx
  408037:	48 89 f3             	mov    rbx,rsi
  40803a:	be 00 10 00 00       	mov    esi,0x1000
  40803f:	48 83 e4 c0          	and    rsp,0xffffffffffffffc0
  408043:	48 81 ec 88 5f 00 00 	sub    rsp,0x5f88
  40804a:	4c 8d 5c 24 88       	lea    r11,[rsp-0x78]
  40804f:	4c 8d bc 24 88 5f 00 	lea    r15,[rsp+0x5f88]
  408056:	00 
  408057:	4d 89 d8             	mov    r8,r11
  40805a:	c4 e2 7b 49 c0       	tilezero tmm0
  40805f:	c4 e2 7b 49 c8       	tilezero tmm1
  408064:	c4 e2 7b 49 d0       	tilezero tmm2
  408069:	c4 e2 7b 49 d8       	tilezero tmm3
  40806e:	c4 e2 7b 49 e0       	tilezero tmm4
  408073:	c4 e2 7b 49 e8       	tilezero tmm5
  408078:	49 8d 8a 00 00 ff ff 	lea    rcx,[r10-0x10000]
  40807f:	4c 89 ea             	mov    rdx,r13
  408082:	66 0f 1f 44 00 00    	nop    WORD PTR [rax+rax*1+0x0]
  408088:	c4 a2 7b 4b 3c 09    	tileloadd tmm7,[rcx+r9*1]
  40808e:	c4 e2 7b 4b 34 32    	tileloadd tmm6,[rdx+rsi*1]
  408094:	c4 e2 43 5e c6       	tdpbssd tmm0,tmm6,tmm7
  408099:	48 89 c8             	mov    rax,rcx
  40809c:	48 81 c1 00 04 00 00 	add    rcx,0x400
  4080a3:	48 8d ba 00 00 01 00 	lea    rdi,[rdx+0x10000]
  4080aa:	0f 18 09             	prefetcht0 BYTE PTR [rcx]
  4080ad:	0f 18 88 40 04 00 00 	prefetcht0 BYTE PTR [rax+0x440]
  4080b4:	0f 18 88 80 04 00 00 	prefetcht0 BYTE PTR [rax+0x480]
  4080bb:	c4 e2 7b 4b 34 37    	tileloadd tmm6,[rdi+rsi*1]
  4080c1:	c4 e2 43 5e ce       	tdpbssd tmm1,tmm6,tmm7
  4080c6:	48 8d ba 00 00 02 00 	lea    rdi,[rdx+0x20000]
  4080cd:	0f 18 88 c0 04 00 00 	prefetcht0 BYTE PTR [rax+0x4c0]
  4080d4:	0f 18 88 00 05 00 00 	prefetcht0 BYTE PTR [rax+0x500]
  4080db:	0f 18 88 40 05 00 00 	prefetcht0 BYTE PTR [rax+0x540]
  4080e2:	c4 e2 7b 4b 34 37    	tileloadd tmm6,[rdi+rsi*1]
  4080e8:	c4 e2 43 5e d6       	tdpbssd tmm2,tmm6,tmm7
  4080ed:	48 8d ba 00 00 03 00 	lea    rdi,[rdx+0x30000]
  4080f4:	0f 18 88 80 05 00 00 	prefetcht0 BYTE PTR [rax+0x580]
  4080fb:	0f 18 88 c0 05 00 00 	prefetcht0 BYTE PTR [rax+0x5c0]
  408102:	0f 18 88 00 06 00 00 	prefetcht0 BYTE PTR [rax+0x600]
  408109:	c4 e2 7b 4b 34 37    	tileloadd tmm6,[rdi+rsi*1]
  40810f:	c4 e2 43 5e de       	tdpbssd tmm3,tmm6,tmm7
  408114:	48 8d ba 00 00 04 00 	lea    rdi,[rdx+0x40000]
  40811b:	0f 18 88 40 06 00 00 	prefetcht0 BYTE PTR [rax+0x640]
  408122:	0f 18 88 80 06 00 00 	prefetcht0 BYTE PTR [rax+0x680]
  408129:	0f 18 88 c0 06 00 00 	prefetcht0 BYTE PTR [rax+0x6c0]
  408130:	c4 e2 7b 4b 34 37    	tileloadd tmm6,[rdi+rsi*1]
  408136:	c4 e2 43 5e e6       	tdpbssd tmm4,tmm6,tmm7
  40813b:	48 8d ba 00 00 05 00 	lea    rdi,[rdx+0x50000]
  408142:	0f 18 88 00 07 00 00 	prefetcht0 BYTE PTR [rax+0x700]
  408149:	0f 18 88 40 07 00 00 	prefetcht0 BYTE PTR [rax+0x740]
  408150:	0f 18 88 80 07 00 00 	prefetcht0 BYTE PTR [rax+0x780]
  408157:	c4 e2 7b 4b 34 37    	tileloadd tmm6,[rdi+rsi*1]
  40815d:	c4 e2 43 5e ee       	tdpbssd tmm5,tmm6,tmm7
  408162:	48 83 c2 40          	add    rdx,0x40
  408166:	0f 18 88 c0 07 00 00 	prefetcht0 BYTE PTR [rax+0x7c0]
  40816d:	49 39 ca             	cmp    r10,rcx
  408170:	0f 85 12 ff ff ff    	jne    408088 <_ZN12intel_mlperf24_tile_dot_product_16x256ILi6ELi64ENS_9io_policyILi64ELNS_8i_formatE0EEEE7computeEPvmS5_S5_Pff+0x78>
  408176:	c4 82 7a 4b 04 08    	tilestored [r8+r9*1],tmm0
  40817c:	49 8d 80 00 04 00 00 	lea    rax,[r8+0x400]
  408183:	c4 a2 7a 4b 0c 08    	tilestored [rax+r9*1],tmm1
  408189:	49 8d 80 00 08 00 00 	lea    rax,[r8+0x800]
  408190:	c4 a2 7a 4b 14 08    	tilestored [rax+r9*1],tmm2
  408196:	49 8d 80 00 0c 00 00 	lea    rax,[r8+0xc00]
  40819d:	c4 a2 7a 4b 1c 08    	tilestored [rax+r9*1],tmm3
  4081a3:	49 8d 80 00 10 00 00 	lea    rax,[r8+0x1000]
  4081aa:	c4 a2 7a 4b 24 08    	tilestored [rax+r9*1],tmm4
  4081b0:	49 8d 80 00 14 00 00 	lea    rax,[r8+0x1400]
  4081b7:	c4 a2 7a 4b 2c 08    	tilestored [rax+r9*1],tmm5
  4081bd:	49 81 c0 00 18 00 00 	add    r8,0x1800
  4081c4:	49 81 c2 00 00 01 00 	add    r10,0x10000
  4081cb:	4d 39 f8             	cmp    r8,r15
  4081ce:	0f 85 86 fe ff ff    	jne    40805a <_ZN12intel_mlperf24_tile_dot_product_16x256ILi6ELi64ENS_9io_policyILi64ELNS_8i_formatE0EEEE7computeEPvmS5_S5_Pff+0x4a>
  4081d4:	48 89 de             	mov    rsi,rbx
  4081d7:	62 51 7c 48 10 16    	vmovups zmm10,ZMMWORD PTR [r14]
  4081dd:	62 51 7c 48 10 4e 01 	vmovups zmm9,ZMMWORD PTR [r14+0x40]
  4081e4:	62 51 7c 48 10 46 02 	vmovups zmm8,ZMMWORD PTR [r14+0x80]
  4081eb:	62 d1 7c 48 10 7e 03 	vmovups zmm7,ZMMWORD PTR [r14+0xc0]
  4081f2:	62 f2 7d 48 18 35 e4 	vbroadcastss zmm6,DWORD PTR [rip+0x2fe4]        # 40b1e0 <__dso_handle+0x1d8>
  4081f9:	2f 00 00 
  4081fc:	62 f2 7d 48 18 2d de 	vbroadcastss zmm5,DWORD PTR [rip+0x2fde]        # 40b1e4 <__dso_handle+0x1dc>
  408203:	2f 00 00 
  408206:	62 f2 7d 48 18 e4    	vbroadcastss zmm4,xmm4
  40820c:	48 c1 e6 04          	shl    rsi,0x4
  408210:	49 81 c3 00 04 00 00 	add    r11,0x400
  408217:	31 c9                	xor    ecx,ecx
  408219:	0f 1f 80 00 00 00 00 	nop    DWORD PTR [rax+0x0]
  408220:	49 8d 83 00 fc ff ff 	lea    rax,[r11-0x400]
  408227:	4c 89 e2             	mov    rdx,r12
  40822a:	66 0f 1f 44 00 00    	nop    WORD PTR [rax+rax*1+0x0]
  408230:	62 f1 7c 48 5b 18    	vcvtdq2ps zmm3,ZMMWORD PTR [rax]
  408236:	62 f1 7c 48 5b 50 60 	vcvtdq2ps zmm2,ZMMWORD PTR [rax+0x1800]
  40823d:	62 f1 7c 48 5b 88 00 	vcvtdq2ps zmm1,ZMMWORD PTR [rax+0x3000]
  408244:	30 00 00 
  408247:	62 f1 7c 48 5b 80 00 	vcvtdq2ps zmm0,ZMMWORD PTR [rax+0x4800]
  40824e:	48 00 00 
  408251:	62 f1 2c 48 58 db    	vaddps zmm3,zmm10,zmm3
  408257:	62 f1 34 48 58 d2    	vaddps zmm2,zmm9,zmm2
  40825d:	62 f1 3c 48 58 c9    	vaddps zmm1,zmm8,zmm1
  408263:	62 f1 44 48 58 c0    	vaddps zmm0,zmm7,zmm0
  408269:	62 f1 64 48 59 dc    	vmulps zmm3,zmm3,zmm4
  40826f:	62 f1 6c 48 59 d4    	vmulps zmm2,zmm2,zmm4
  408275:	62 f1 74 48 59 cc    	vmulps zmm1,zmm1,zmm4
  40827b:	62 f1 7c 48 59 c4    	vmulps zmm0,zmm0,zmm4
  408281:	48 83 c0 40          	add    rax,0x40
  408285:	62 f3 7d 48 08 db 00 	vrndscaleps zmm3,zmm3,0x0
  40828c:	62 f3 7d 48 08 d2 00 	vrndscaleps zmm2,zmm2,0x0
  408293:	62 f3 7d 48 08 c9 00 	vrndscaleps zmm1,zmm1,0x0
  40829a:	62 f3 7d 48 08 c0 00 	vrndscaleps zmm0,zmm0,0x0
  4082a1:	62 f1 64 48 5d de    	vminps zmm3,zmm3,zmm6
  4082a7:	62 f1 6c 48 5d d6    	vminps zmm2,zmm2,zmm6
  4082ad:	62 f1 74 48 5d ce    	vminps zmm1,zmm1,zmm6
  4082b3:	62 f1 7c 48 5d c6    	vminps zmm0,zmm0,zmm6
  4082b9:	62 f1 64 48 5f dd    	vmaxps zmm3,zmm3,zmm5
  4082bf:	62 f1 6c 48 5f d5    	vmaxps zmm2,zmm2,zmm5
  4082c5:	62 f1 74 48 5f cd    	vmaxps zmm1,zmm1,zmm5
  4082cb:	62 f1 7c 48 5f c5    	vmaxps zmm0,zmm0,zmm5
  4082d1:	62 f1 7d 48 5b db    	vcvtps2dq zmm3,zmm3
  4082d7:	62 f1 7d 48 5b d2    	vcvtps2dq zmm2,zmm2
  4082dd:	62 f2 7e 48 31 1a    	vpmovdb XMMWORD PTR [rdx],zmm3
  4082e3:	62 f2 7e 48 31 52 01 	vpmovdb XMMWORD PTR [rdx+0x10],zmm2
  4082ea:	62 f1 7d 48 5b c9    	vcvtps2dq zmm1,zmm1
  4082f0:	62 f1 7d 48 5b c0    	vcvtps2dq zmm0,zmm0
  4082f6:	62 f2 7e 48 31 4a 02 	vpmovdb XMMWORD PTR [rdx+0x20],zmm1
  4082fd:	62 f2 7e 48 31 42 03 	vpmovdb XMMWORD PTR [rdx+0x30],zmm0
  408304:	48 01 da             	add    rdx,rbx
  408307:	49 39 c3             	cmp    r11,rax
  40830a:	0f 85 20 ff ff ff    	jne    408230 <_ZN12intel_mlperf24_tile_dot_product_16x256ILi6ELi64ENS_9io_policyILi64ELNS_8i_formatE0EEEE7computeEPvmS5_S5_Pff+0x220>
  408310:	48 83 c1 10          	add    rcx,0x10
  408314:	49 01 f4             	add    r12,rsi
  408317:	49 81 c3 00 04 00 00 	add    r11,0x400
  40831e:	48 83 f9 60          	cmp    rcx,0x60
  408322:	0f 85 f8 fe ff ff    	jne    408220 <_ZN12intel_mlperf24_tile_dot_product_16x256ILi6ELi64ENS_9io_policyILi64ELNS_8i_formatE0EEEE7computeEPvmS5_S5_Pff+0x210>
  408328:	c5 f8 77             	vzeroupper 
  40832b:	48 8d 65 d8          	lea    rsp,[rbp-0x28]
  40832f:	5b                   	pop    rbx
  408330:	41 5c                	pop    r12
  408332:	41 5d                	pop    r13
  408334:	41 5e                	pop    r14
  408336:	41 5f                	pop    r15
  408338:	5d                   	pop    rbp
  408339:	c3                   	ret    
  40833a:	66 0f 1f 44 00 00    	nop    WORD PTR [rax+rax*1+0x0]

0000000000408340 <_ZN12intel_mlperf8i_linear13compute_blockILi6ELi64EEEvPvmS2_S2_Pff>:
  408340:	48 89 f7             	mov    rdi,rsi
  408343:	48 89 d6             	mov    rsi,rdx
  408346:	48 89 ca             	mov    rdx,rcx
  408349:	4c 89 c1             	mov    rcx,r8
  40834c:	4d 89 c8             	mov    r8,r9
  40834f:	e9 bc fc ff ff       	jmp    408010 <_ZN12intel_mlperf24_tile_dot_product_16x256ILi6ELi64ENS_9io_policyILi64ELNS_8i_formatE0EEEE7computeEPvmS5_S5_Pff>
  408354:	66 2e 0f 1f 84 00 00 	cs nop WORD PTR [rax+rax*1+0x0]
  40835b:	00 00 00 
  40835e:	66 90                	xchg   ax,ax

0000000000408360 <_ZN12intel_mlperf24_tile_dot_product_16x256ILi7ELi16ENS_9io_policyILi16ELNS_8i_formatE0EEEE7computeEPvmS5_S5_Pff>:
  408360:	55                   	push   rbp
  408361:	49 89 f3             	mov    r11,rsi
  408364:	be 40 00 00 00       	mov    esi,0x40
  408369:	48 89 e5             	mov    rbp,rsp
  40836c:	41 57                	push   r15
  40836e:	41 56                	push   r14
  408370:	49 89 d6             	mov    r14,rdx
  408373:	41 55                	push   r13
  408375:	41 54                	push   r12
  408377:	49 89 fc             	mov    r12,rdi
  40837a:	53                   	push   rbx
  40837b:	48 8d 99 00 40 00 00 	lea    rbx,[rcx+0x4000]
  408382:	b9 00 04 00 00       	mov    ecx,0x400
  408387:	48 83 e4 c0          	and    rsp,0xffffffffffffffc0
  40838b:	48 81 ec 88 6f 00 00 	sub    rsp,0x6f88
  408392:	4c 8d 6c 24 88       	lea    r13,[rsp-0x78]
  408397:	4c 8d bc 24 88 6f 00 	lea    r15,[rsp+0x6f88]
  40839e:	00 
  40839f:	4c 89 ef             	mov    rdi,r13
  4083a2:	c4 e2 7b 49 c8       	tilezero tmm1
  4083a7:	c4 e2 7b 49 d0       	tilezero tmm2
  4083ac:	c4 e2 7b 49 d8       	tilezero tmm3
  4083b1:	c4 e2 7b 49 e0       	tilezero tmm4
  4083b6:	c4 e2 7b 49 e8       	tilezero tmm5
  4083bb:	c4 e2 7a 4b 0c 37    	tilestored [rdi+rsi*1],tmm1
  4083c1:	4c 8d 8f 00 04 00 00 	lea    r9,[rdi+0x400]
  4083c8:	c4 c2 7a 4b 0c 31    	tilestored [r9+rsi*1],tmm1
  4083ce:	48 8d 83 00 c0 ff ff 	lea    rax,[rbx-0x4000]
  4083d5:	4c 89 f2             	mov    rdx,r14
  4083d8:	0f 1f 84 00 00 00 00 	nop    DWORD PTR [rax+rax*1+0x0]
  4083df:	00 
  4083e0:	c4 e2 7b 4b 3c 30    	tileloadd tmm7,[rax+rsi*1]
  4083e6:	c4 e2 7b 4b 34 0a    	tileloadd tmm6,[rdx+rcx*1]
  4083ec:	c4 e2 7b 4b 04 37    	tileloadd tmm0,[rdi+rsi*1]
  4083f2:	c4 e2 43 5e c6       	tdpbssd tmm0,tmm6,tmm7
  4083f7:	c4 e2 7a 4b 04 37    	tilestored [rdi+rsi*1],tmm0
  4083fd:	4c 8d 92 00 40 00 00 	lea    r10,[rdx+0x4000]
  408404:	c4 c2 7b 4b 34 0a    	tileloadd tmm6,[r10+rcx*1]
  40840a:	c4 c2 7b 4b 04 31    	tileloadd tmm0,[r9+rsi*1]
  408410:	c4 e2 43 5e c6       	tdpbssd tmm0,tmm6,tmm7
  408415:	c4 c2 7a 4b 04 31    	tilestored [r9+rsi*1],tmm0
  40841b:	4c 8d 92 00 80 00 00 	lea    r10,[rdx+0x8000]
  408422:	0f 18 88 40 04 00 00 	prefetcht0 BYTE PTR [rax+0x440]
  408429:	0f 18 88 80 04 00 00 	prefetcht0 BYTE PTR [rax+0x480]
  408430:	0f 18 88 c0 04 00 00 	prefetcht0 BYTE PTR [rax+0x4c0]
  408437:	c4 c2 7b 4b 34 0a    	tileloadd tmm6,[r10+rcx*1]
  40843d:	c4 e2 43 5e ce       	tdpbssd tmm1,tmm6,tmm7
  408442:	4c 8d 92 00 c0 00 00 	lea    r10,[rdx+0xc000]
  408449:	0f 18 88 00 05 00 00 	prefetcht0 BYTE PTR [rax+0x500]
  408450:	0f 18 88 40 05 00 00 	prefetcht0 BYTE PTR [rax+0x540]
  408457:	0f 18 88 80 05 00 00 	prefetcht0 BYTE PTR [rax+0x580]
  40845e:	c4 c2 7b 4b 34 0a    	tileloadd tmm6,[r10+rcx*1]
  408464:	c4 e2 43 5e d6       	tdpbssd tmm2,tmm6,tmm7
  408469:	4c 8d 92 00 00 01 00 	lea    r10,[rdx+0x10000]
  408470:	0f 18 88 c0 05 00 00 	prefetcht0 BYTE PTR [rax+0x5c0]
  408477:	0f 18 88 00 06 00 00 	prefetcht0 BYTE PTR [rax+0x600]
  40847e:	0f 18 88 40 06 00 00 	prefetcht0 BYTE PTR [rax+0x640]
  408485:	c4 c2 7b 4b 34 0a    	tileloadd tmm6,[r10+rcx*1]
  40848b:	c4 e2 43 5e de       	tdpbssd tmm3,tmm6,tmm7
  408490:	4c 8d 92 00 40 01 00 	lea    r10,[rdx+0x14000]
  408497:	0f 18 88 80 06 00 00 	prefetcht0 BYTE PTR [rax+0x680]
  40849e:	0f 18 88 c0 06 00 00 	prefetcht0 BYTE PTR [rax+0x6c0]
  4084a5:	0f 18 88 00 07 00 00 	prefetcht0 BYTE PTR [rax+0x700]
  4084ac:	c4 c2 7b 4b 34 0a    	tileloadd tmm6,[r10+rcx*1]
  4084b2:	c4 e2 43 5e e6       	tdpbssd tmm4,tmm6,tmm7
  4084b7:	4c 8d 92 00 80 01 00 	lea    r10,[rdx+0x18000]
  4084be:	0f 18 88 40 07 00 00 	prefetcht0 BYTE PTR [rax+0x740]
  4084c5:	0f 18 88 80 07 00 00 	prefetcht0 BYTE PTR [rax+0x780]
  4084cc:	0f 18 88 c0 07 00 00 	prefetcht0 BYTE PTR [rax+0x7c0]
  4084d3:	c4 c2 7b 4b 34 0a    	tileloadd tmm6,[r10+rcx*1]
  4084d9:	c4 e2 43 5e ee       	tdpbssd tmm5,tmm6,tmm7
  4084de:	0f 18 88 00 08 00 00 	prefetcht0 BYTE PTR [rax+0x800]
  4084e5:	48 05 00 04 00 00    	add    rax,0x400
  4084eb:	48 83 c2 40          	add    rdx,0x40
  4084ef:	48 39 c3             	cmp    rbx,rax
  4084f2:	0f 85 e8 fe ff ff    	jne    4083e0 <_ZN12intel_mlperf24_tile_dot_product_16x256ILi7ELi16ENS_9io_policyILi16ELNS_8i_formatE0EEEE7computeEPvmS5_S5_Pff+0x80>
  4084f8:	48 8d 87 00 08 00 00 	lea    rax,[rdi+0x800]
  4084ff:	c4 e2 7a 4b 0c 30    	tilestored [rax+rsi*1],tmm1
  408505:	48 8d 87 00 0c 00 00 	lea    rax,[rdi+0xc00]
  40850c:	c4 e2 7a 4b 14 30    	tilestored [rax+rsi*1],tmm2
  408512:	48 8d 87 00 10 00 00 	lea    rax,[rdi+0x1000]
  408519:	c4 e2 7a 4b 1c 30    	tilestored [rax+rsi*1],tmm3
  40851f:	48 8d 87 00 14 00 00 	lea    rax,[rdi+0x1400]
  408526:	c4 e2 7a 4b 24 30    	tilestored [rax+rsi*1],tmm4
  40852c:	48 8d 87 00 18 00 00 	lea    rax,[rdi+0x1800]
  408533:	c4 e2 7a 4b 2c 30    	tilestored [rax+rsi*1],tmm5
  408539:	48 81 c7 00 1c 00 00 	add    rdi,0x1c00
  408540:	48 81 c3 00 40 00 00 	add    rbx,0x4000
  408547:	4c 39 ff             	cmp    rdi,r15
  40854a:	0f 85 52 fe ff ff    	jne    4083a2 <_ZN12intel_mlperf24_tile_dot_product_16x256ILi7ELi16ENS_9io_policyILi16ELNS_8i_formatE0EEEE7computeEPvmS5_S5_Pff+0x42>
  408550:	4c 89 de             	mov    rsi,r11
  408553:	62 51 7c 48 10 10    	vmovups zmm10,ZMMWORD PTR [r8]
  408559:	62 51 7c 48 10 48 01 	vmovups zmm9,ZMMWORD PTR [r8+0x40]
  408560:	62 51 7c 48 10 40 02 	vmovups zmm8,ZMMWORD PTR [r8+0x80]
  408567:	62 d1 7c 48 10 78 03 	vmovups zmm7,ZMMWORD PTR [r8+0xc0]
  40856e:	62 f2 7d 48 18 35 68 	vbroadcastss zmm6,DWORD PTR [rip+0x2c68]        # 40b1e0 <__dso_handle+0x1d8>
  408575:	2c 00 00 
  408578:	62 f2 7d 48 18 2d 62 	vbroadcastss zmm5,DWORD PTR [rip+0x2c62]        # 40b1e4 <__dso_handle+0x1dc>
  40857f:	2c 00 00 
  408582:	49 8d 8d 00 04 00 00 	lea    rcx,[r13+0x400]
  408589:	62 f2 7d 48 18 e0    	vbroadcastss zmm4,xmm0
  40858f:	48 c1 e6 04          	shl    rsi,0x4
  408593:	49 81 c5 00 20 00 00 	add    r13,0x2000
  40859a:	66 0f 1f 44 00 00    	nop    WORD PTR [rax+rax*1+0x0]
  4085a0:	48 8d 81 00 fc ff ff 	lea    rax,[rcx-0x400]
  4085a7:	4c 89 e2             	mov    rdx,r12
  4085aa:	66 0f 1f 44 00 00    	nop    WORD PTR [rax+rax*1+0x0]
  4085b0:	62 f1 7c 48 5b 18    	vcvtdq2ps zmm3,ZMMWORD PTR [rax]
  4085b6:	62 f1 7c 48 5b 50 70 	vcvtdq2ps zmm2,ZMMWORD PTR [rax+0x1c00]
  4085bd:	62 f1 7c 48 5b 88 00 	vcvtdq2ps zmm1,ZMMWORD PTR [rax+0x3800]
  4085c4:	38 00 00 
  4085c7:	62 f1 7c 48 5b 80 00 	vcvtdq2ps zmm0,ZMMWORD PTR [rax+0x5400]
  4085ce:	54 00 00 
  4085d1:	62 f1 2c 48 58 db    	vaddps zmm3,zmm10,zmm3
  4085d7:	62 f1 34 48 58 d2    	vaddps zmm2,zmm9,zmm2
  4085dd:	62 f1 3c 48 58 c9    	vaddps zmm1,zmm8,zmm1
  4085e3:	62 f1 44 48 58 c0    	vaddps zmm0,zmm7,zmm0
  4085e9:	62 f1 64 48 59 dc    	vmulps zmm3,zmm3,zmm4
  4085ef:	62 f1 6c 48 59 d4    	vmulps zmm2,zmm2,zmm4
  4085f5:	62 f1 74 48 59 cc    	vmulps zmm1,zmm1,zmm4
  4085fb:	62 f1 7c 48 59 c4    	vmulps zmm0,zmm0,zmm4
  408601:	48 83 c0 40          	add    rax,0x40
  408605:	62 f3 7d 48 08 db 00 	vrndscaleps zmm3,zmm3,0x0
  40860c:	62 f3 7d 48 08 d2 00 	vrndscaleps zmm2,zmm2,0x0
  408613:	62 f3 7d 48 08 c9 00 	vrndscaleps zmm1,zmm1,0x0
  40861a:	62 f3 7d 48 08 c0 00 	vrndscaleps zmm0,zmm0,0x0
  408621:	62 f1 64 48 5d de    	vminps zmm3,zmm3,zmm6
  408627:	62 f1 6c 48 5d d6    	vminps zmm2,zmm2,zmm6
  40862d:	62 f1 74 48 5d ce    	vminps zmm1,zmm1,zmm6
  408633:	62 f1 7c 48 5d c6    	vminps zmm0,zmm0,zmm6
  408639:	62 f1 64 48 5f dd    	vmaxps zmm3,zmm3,zmm5
  40863f:	62 f1 6c 48 5f d5    	vmaxps zmm2,zmm2,zmm5
  408645:	62 f1 74 48 5f cd    	vmaxps zmm1,zmm1,zmm5
  40864b:	62 f1 7c 48 5f c5    	vmaxps zmm0,zmm0,zmm5
  408651:	62 f1 7d 48 5b db    	vcvtps2dq zmm3,zmm3
  408657:	62 f1 7d 48 5b d2    	vcvtps2dq zmm2,zmm2
  40865d:	62 f2 7e 48 31 1a    	vpmovdb XMMWORD PTR [rdx],zmm3
  408663:	62 f2 7e 48 31 52 01 	vpmovdb XMMWORD PTR [rdx+0x10],zmm2
  40866a:	62 f1 7d 48 5b c9    	vcvtps2dq zmm1,zmm1
  408670:	62 f1 7d 48 5b c0    	vcvtps2dq zmm0,zmm0
  408676:	62 f2 7e 48 31 4a 02 	vpmovdb XMMWORD PTR [rdx+0x20],zmm1
  40867d:	62 f2 7e 48 31 42 03 	vpmovdb XMMWORD PTR [rdx+0x30],zmm0
  408684:	4c 01 da             	add    rdx,r11
  408687:	48 39 c1             	cmp    rcx,rax
  40868a:	0f 85 20 ff ff ff    	jne    4085b0 <_ZN12intel_mlperf24_tile_dot_product_16x256ILi7ELi16ENS_9io_policyILi16ELNS_8i_formatE0EEEE7computeEPvmS5_S5_Pff+0x250>
  408690:	48 81 c1 00 04 00 00 	add    rcx,0x400
  408697:	49 01 f4             	add    r12,rsi
  40869a:	49 39 cd             	cmp    r13,rcx
  40869d:	0f 85 fd fe ff ff    	jne    4085a0 <_ZN12intel_mlperf24_tile_dot_product_16x256ILi7ELi16ENS_9io_policyILi16ELNS_8i_formatE0EEEE7computeEPvmS5_S5_Pff+0x240>
  4086a3:	c5 f8 77             	vzeroupper 
  4086a6:	48 8d 65 d8          	lea    rsp,[rbp-0x28]
  4086aa:	5b                   	pop    rbx
  4086ab:	41 5c                	pop    r12
  4086ad:	41 5d                	pop    r13
  4086af:	41 5e                	pop    r14
  4086b1:	41 5f                	pop    r15
  4086b3:	5d                   	pop    rbp
  4086b4:	c3                   	ret    
  4086b5:	66 2e 0f 1f 84 00 00 	cs nop WORD PTR [rax+rax*1+0x0]
  4086bc:	00 00 00 
  4086bf:	90                   	nop

00000000004086c0 <_ZN12intel_mlperf8i_linear13compute_blockILi7ELi16EEEvPvmS2_S2_Pff>:
  4086c0:	48 89 f7             	mov    rdi,rsi
  4086c3:	48 89 d6             	mov    rsi,rdx
  4086c6:	48 89 ca             	mov    rdx,rcx
  4086c9:	4c 89 c1             	mov    rcx,r8
  4086cc:	4d 89 c8             	mov    r8,r9
  4086cf:	e9 8c fc ff ff       	jmp    408360 <_ZN12intel_mlperf24_tile_dot_product_16x256ILi7ELi16ENS_9io_policyILi16ELNS_8i_formatE0EEEE7computeEPvmS5_S5_Pff>
  4086d4:	66 2e 0f 1f 84 00 00 	cs nop WORD PTR [rax+rax*1+0x0]
  4086db:	00 00 00 
  4086de:	66 90                	xchg   ax,ax

00000000004086e0 <_ZN12intel_mlperf24_tile_dot_product_16x256ILi7ELi64ENS_9io_policyILi64ELNS_8i_formatE0EEEE7computeEPvmS5_S5_Pff>:
  4086e0:	55                   	push   rbp
  4086e1:	4c 8d 99 00 00 01 00 	lea    r11,[rcx+0x10000]
  4086e8:	c5 f8 28 e0          	vmovaps xmm4,xmm0
  4086ec:	48 89 e5             	mov    rbp,rsp
  4086ef:	41 57                	push   r15
  4086f1:	b9 00 10 00 00       	mov    ecx,0x1000
  4086f6:	49 89 ff             	mov    r15,rdi
  4086f9:	41 56                	push   r14
  4086fb:	41 55                	push   r13
  4086fd:	4d 89 c5             	mov    r13,r8
  408700:	41 54                	push   r12
  408702:	49 89 d4             	mov    r12,rdx
  408705:	53                   	push   rbx
  408706:	48 89 f3             	mov    rbx,rsi
  408709:	be 40 00 00 00       	mov    esi,0x40
  40870e:	48 83 e4 c0          	and    rsp,0xffffffffffffffc0
  408712:	48 81 ec 88 6f 00 00 	sub    rsp,0x6f88
  408719:	4c 8d 44 24 88       	lea    r8,[rsp-0x78]
  40871e:	4c 8d b4 24 88 6f 00 	lea    r14,[rsp+0x6f88]
  408725:	00 
  408726:	4c 89 c7             	mov    rdi,r8
  408729:	c4 e2 7b 49 c8       	tilezero tmm1
  40872e:	c4 e2 7b 49 d0       	tilezero tmm2
  408733:	c4 e2 7b 49 d8       	tilezero tmm3
  408738:	c4 e2 7b 49 e0       	tilezero tmm4
  40873d:	c4 e2 7b 49 e8       	tilezero tmm5
  408742:	c4 e2 7a 4b 0c 37    	tilestored [rdi+rsi*1],tmm1
  408748:	4c 8d 8f 00 04 00 00 	lea    r9,[rdi+0x400]
  40874f:	c4 c2 7a 4b 0c 31    	tilestored [r9+rsi*1],tmm1
  408755:	49 8d 83 00 00 ff ff 	lea    rax,[r11-0x10000]
  40875c:	4c 89 e2             	mov    rdx,r12
  40875f:	90                   	nop
  408760:	c4 e2 7b 4b 3c 30    	tileloadd tmm7,[rax+rsi*1]
  408766:	c4 e2 7b 4b 34 0a    	tileloadd tmm6,[rdx+rcx*1]
  40876c:	c4 e2 7b 4b 04 37    	tileloadd tmm0,[rdi+rsi*1]
  408772:	c4 e2 43 5e c6       	tdpbssd tmm0,tmm6,tmm7
  408777:	c4 e2 7a 4b 04 37    	tilestored [rdi+rsi*1],tmm0
  40877d:	4c 8d 92 00 00 01 00 	lea    r10,[rdx+0x10000]
  408784:	c4 c2 7b 4b 34 0a    	tileloadd tmm6,[r10+rcx*1]
  40878a:	c4 c2 7b 4b 04 31    	tileloadd tmm0,[r9+rsi*1]
  408790:	c4 e2 43 5e c6       	tdpbssd tmm0,tmm6,tmm7
  408795:	c4 c2 7a 4b 04 31    	tilestored [r9+rsi*1],tmm0
  40879b:	4c 8d 92 00 00 02 00 	lea    r10,[rdx+0x20000]
  4087a2:	0f 18 88 40 04 00 00 	prefetcht0 BYTE PTR [rax+0x440]
  4087a9:	0f 18 88 80 04 00 00 	prefetcht0 BYTE PTR [rax+0x480]
  4087b0:	0f 18 88 c0 04 00 00 	prefetcht0 BYTE PTR [rax+0x4c0]
  4087b7:	c4 c2 7b 4b 34 0a    	tileloadd tmm6,[r10+rcx*1]
  4087bd:	c4 e2 43 5e ce       	tdpbssd tmm1,tmm6,tmm7
  4087c2:	4c 8d 92 00 00 03 00 	lea    r10,[rdx+0x30000]
  4087c9:	0f 18 88 00 05 00 00 	prefetcht0 BYTE PTR [rax+0x500]
  4087d0:	0f 18 88 40 05 00 00 	prefetcht0 BYTE PTR [rax+0x540]
  4087d7:	0f 18 88 80 05 00 00 	prefetcht0 BYTE PTR [rax+0x580]
  4087de:	c4 c2 7b 4b 34 0a    	tileloadd tmm6,[r10+rcx*1]
  4087e4:	c4 e2 43 5e d6       	tdpbssd tmm2,tmm6,tmm7
  4087e9:	4c 8d 92 00 00 04 00 	lea    r10,[rdx+0x40000]
  4087f0:	0f 18 88 c0 05 00 00 	prefetcht0 BYTE PTR [rax+0x5c0]
  4087f7:	0f 18 88 00 06 00 00 	prefetcht0 BYTE PTR [rax+0x600]
  4087fe:	0f 18 88 40 06 00 00 	prefetcht0 BYTE PTR [rax+0x640]
  408805:	c4 c2 7b 4b 34 0a    	tileloadd tmm6,[r10+rcx*1]
  40880b:	c4 e2 43 5e de       	tdpbssd tmm3,tmm6,tmm7
  408810:	4c 8d 92 00 00 05 00 	lea    r10,[rdx+0x50000]
  408817:	0f 18 88 80 06 00 00 	prefetcht0 BYTE PTR [rax+0x680]
  40881e:	0f 18 88 c0 06 00 00 	prefetcht0 BYTE PTR [rax+0x6c0]
  408825:	0f 18 88 00 07 00 00 	prefetcht0 BYTE PTR [rax+0x700]
  40882c:	c4 c2 7b 4b 34 0a    	tileloadd tmm6,[r10+rcx*1]
  408832:	c4 e2 43 5e e6       	tdpbssd tmm4,tmm6,tmm7
  408837:	4c 8d 92 00 00 06 00 	lea    r10,[rdx+0x60000]
  40883e:	0f 18 88 40 07 00 00 	prefetcht0 BYTE PTR [rax+0x740]
  408845:	0f 18 88 80 07 00 00 	prefetcht0 BYTE PTR [rax+0x780]
  40884c:	0f 18 88 c0 07 00 00 	prefetcht0 BYTE PTR [rax+0x7c0]
  408853:	c4 c2 7b 4b 34 0a    	tileloadd tmm6,[r10+rcx*1]
  408859:	c4 e2 43 5e ee       	tdpbssd tmm5,tmm6,tmm7
  40885e:	0f 18 88 00 08 00 00 	prefetcht0 BYTE PTR [rax+0x800]
  408865:	48 05 00 04 00 00    	add    rax,0x400
  40886b:	48 83 c2 40          	add    rdx,0x40
  40886f:	49 39 c3             	cmp    r11,rax
  408872:	0f 85 e8 fe ff ff    	jne    408760 <_ZN12intel_mlperf24_tile_dot_product_16x256ILi7ELi64ENS_9io_policyILi64ELNS_8i_formatE0EEEE7computeEPvmS5_S5_Pff+0x80>
  408878:	48 8d 87 00 08 00 00 	lea    rax,[rdi+0x800]
  40887f:	c4 e2 7a 4b 0c 30    	tilestored [rax+rsi*1],tmm1
  408885:	48 8d 87 00 0c 00 00 	lea    rax,[rdi+0xc00]
  40888c:	c4 e2 7a 4b 14 30    	tilestored [rax+rsi*1],tmm2
  408892:	48 8d 87 00 10 00 00 	lea    rax,[rdi+0x1000]
  408899:	c4 e2 7a 4b 1c 30    	tilestored [rax+rsi*1],tmm3
  40889f:	48 8d 87 00 14 00 00 	lea    rax,[rdi+0x1400]
  4088a6:	c4 e2 7a 4b 24 30    	tilestored [rax+rsi*1],tmm4
  4088ac:	48 8d 87 00 18 00 00 	lea    rax,[rdi+0x1800]
  4088b3:	c4 e2 7a 4b 2c 30    	tilestored [rax+rsi*1],tmm5
  4088b9:	48 81 c7 00 1c 00 00 	add    rdi,0x1c00
  4088c0:	49 81 c3 00 00 01 00 	add    r11,0x10000
  4088c7:	4c 39 f7             	cmp    rdi,r14
  4088ca:	0f 85 59 fe ff ff    	jne    408729 <_ZN12intel_mlperf24_tile_dot_product_16x256ILi7ELi64ENS_9io_policyILi64ELNS_8i_formatE0EEEE7computeEPvmS5_S5_Pff+0x49>
  4088d0:	48 89 df             	mov    rdi,rbx
  4088d3:	62 51 7c 48 10 55 00 	vmovups zmm10,ZMMWORD PTR [r13+0x0]
  4088da:	62 51 7c 48 10 4d 01 	vmovups zmm9,ZMMWORD PTR [r13+0x40]
  4088e1:	62 51 7c 48 10 45 02 	vmovups zmm8,ZMMWORD PTR [r13+0x80]
  4088e8:	62 d1 7c 48 10 7d 03 	vmovups zmm7,ZMMWORD PTR [r13+0xc0]
  4088ef:	62 f2 7d 48 18 35 e7 	vbroadcastss zmm6,DWORD PTR [rip+0x28e7]        # 40b1e0 <__dso_handle+0x1d8>
  4088f6:	28 00 00 
  4088f9:	62 f2 7d 48 18 2d e1 	vbroadcastss zmm5,DWORD PTR [rip+0x28e1]        # 40b1e4 <__dso_handle+0x1dc>
  408900:	28 00 00 
  408903:	49 8d 88 00 04 00 00 	lea    rcx,[r8+0x400]
  40890a:	62 f2 7d 48 18 e4    	vbroadcastss zmm4,xmm4
  408910:	48 c1 e7 04          	shl    rdi,0x4
  408914:	4c 89 fe             	mov    rsi,r15
  408917:	49 81 c0 00 20 00 00 	add    r8,0x2000
  40891e:	48 8d 81 00 fc ff ff 	lea    rax,[rcx-0x400]
  408925:	48 89 f2             	mov    rdx,rsi
  408928:	0f 1f 84 00 00 00 00 	nop    DWORD PTR [rax+rax*1+0x0]
  40892f:	00 
  408930:	62 f1 7c 48 5b 18    	vcvtdq2ps zmm3,ZMMWORD PTR [rax]
  408936:	62 f1 7c 48 5b 50 70 	vcvtdq2ps zmm2,ZMMWORD PTR [rax+0x1c00]
  40893d:	62 f1 7c 48 5b 88 00 	vcvtdq2ps zmm1,ZMMWORD PTR [rax+0x3800]
  408944:	38 00 00 
  408947:	62 f1 7c 48 5b 80 00 	vcvtdq2ps zmm0,ZMMWORD PTR [rax+0x5400]
  40894e:	54 00 00 
  408951:	62 f1 2c 48 58 db    	vaddps zmm3,zmm10,zmm3
  408957:	62 f1 34 48 58 d2    	vaddps zmm2,zmm9,zmm2
  40895d:	62 f1 3c 48 58 c9    	vaddps zmm1,zmm8,zmm1
  408963:	62 f1 44 48 58 c0    	vaddps zmm0,zmm7,zmm0
  408969:	62 f1 64 48 59 dc    	vmulps zmm3,zmm3,zmm4
  40896f:	62 f1 6c 48 59 d4    	vmulps zmm2,zmm2,zmm4
  408975:	62 f1 74 48 59 cc    	vmulps zmm1,zmm1,zmm4
  40897b:	62 f1 7c 48 59 c4    	vmulps zmm0,zmm0,zmm4
  408981:	48 83 c0 40          	add    rax,0x40
  408985:	62 f3 7d 48 08 db 00 	vrndscaleps zmm3,zmm3,0x0
  40898c:	62 f3 7d 48 08 d2 00 	vrndscaleps zmm2,zmm2,0x0
  408993:	62 f3 7d 48 08 c9 00 	vrndscaleps zmm1,zmm1,0x0
  40899a:	62 f3 7d 48 08 c0 00 	vrndscaleps zmm0,zmm0,0x0
  4089a1:	62 f1 64 48 5d de    	vminps zmm3,zmm3,zmm6
  4089a7:	62 f1 6c 48 5d d6    	vminps zmm2,zmm2,zmm6
  4089ad:	62 f1 74 48 5d ce    	vminps zmm1,zmm1,zmm6
  4089b3:	62 f1 7c 48 5d c6    	vminps zmm0,zmm0,zmm6
  4089b9:	62 f1 64 48 5f dd    	vmaxps zmm3,zmm3,zmm5
  4089bf:	62 f1 6c 48 5f d5    	vmaxps zmm2,zmm2,zmm5
  4089c5:	62 f1 74 48 5f cd    	vmaxps zmm1,zmm1,zmm5
  4089cb:	62 f1 7c 48 5f c5    	vmaxps zmm0,zmm0,zmm5
  4089d1:	62 f1 7d 48 5b db    	vcvtps2dq zmm3,zmm3
  4089d7:	62 f1 7d 48 5b d2    	vcvtps2dq zmm2,zmm2
  4089dd:	62 f2 7e 48 31 1a    	vpmovdb XMMWORD PTR [rdx],zmm3
  4089e3:	62 f2 7e 48 31 52 01 	vpmovdb XMMWORD PTR [rdx+0x10],zmm2
  4089ea:	62 f1 7d 48 5b c9    	vcvtps2dq zmm1,zmm1
  4089f0:	62 f1 7d 48 5b c0    	vcvtps2dq zmm0,zmm0
  4089f6:	62 f2 7e 48 31 4a 02 	vpmovdb XMMWORD PTR [rdx+0x20],zmm1
  4089fd:	62 f2 7e 48 31 42 03 	vpmovdb XMMWORD PTR [rdx+0x30],zmm0
  408a04:	48 01 da             	add    rdx,rbx
  408a07:	48 39 c1             	cmp    rcx,rax
  408a0a:	0f 85 20 ff ff ff    	jne    408930 <_ZN12intel_mlperf24_tile_dot_product_16x256ILi7ELi64ENS_9io_policyILi64ELNS_8i_formatE0EEEE7computeEPvmS5_S5_Pff+0x250>
  408a10:	48 81 c1 00 04 00 00 	add    rcx,0x400
  408a17:	48 01 fe             	add    rsi,rdi
  408a1a:	49 39 c8             	cmp    r8,rcx
  408a1d:	0f 85 fb fe ff ff    	jne    40891e <_ZN12intel_mlperf24_tile_dot_product_16x256ILi7ELi64ENS_9io_policyILi64ELNS_8i_formatE0EEEE7computeEPvmS5_S5_Pff+0x23e>
  408a23:	c5 f8 77             	vzeroupper 
  408a26:	48 8d 65 d8          	lea    rsp,[rbp-0x28]
  408a2a:	5b                   	pop    rbx
  408a2b:	41 5c                	pop    r12
  408a2d:	41 5d                	pop    r13
  408a2f:	41 5e                	pop    r14
  408a31:	41 5f                	pop    r15
  408a33:	5d                   	pop    rbp
  408a34:	c3                   	ret    
  408a35:	66 2e 0f 1f 84 00 00 	cs nop WORD PTR [rax+rax*1+0x0]
  408a3c:	00 00 00 
  408a3f:	90                   	nop

0000000000408a40 <_ZN12intel_mlperf8i_linear13compute_blockILi7ELi64EEEvPvmS2_S2_Pff>:
  408a40:	48 89 f7             	mov    rdi,rsi
  408a43:	48 89 d6             	mov    rsi,rdx
  408a46:	48 89 ca             	mov    rdx,rcx
  408a49:	4c 89 c1             	mov    rcx,r8
  408a4c:	4d 89 c8             	mov    r8,r9
  408a4f:	e9 8c fc ff ff       	jmp    4086e0 <_ZN12intel_mlperf24_tile_dot_product_16x256ILi7ELi64ENS_9io_policyILi64ELNS_8i_formatE0EEEE7computeEPvmS5_S5_Pff>
  408a54:	66 2e 0f 1f 84 00 00 	cs nop WORD PTR [rax+rax*1+0x0]
  408a5b:	00 00 00 
  408a5e:	66 90                	xchg   ax,ax

0000000000408a60 <_ZN12intel_mlperf24_tile_dot_product_16x256ILi8ELi16ENS_9io_policyILi16ELNS_8i_formatE0EEEE7computeEPvmS5_S5_Pff>:
  408a60:	55                   	push   rbp
  408a61:	49 89 f3             	mov    r11,rsi
  408a64:	c5 f8 28 e0          	vmovaps xmm4,xmm0
  408a68:	48 89 e5             	mov    rbp,rsp
  408a6b:	41 57                	push   r15
  408a6d:	be 40 00 00 00       	mov    esi,0x40
  408a72:	41 56                	push   r14
  408a74:	4d 89 c6             	mov    r14,r8
  408a77:	4c 8d 81 00 40 00 00 	lea    r8,[rcx+0x4000]
  408a7e:	41 55                	push   r13
  408a80:	b9 00 04 00 00       	mov    ecx,0x400
  408a85:	49 89 d5             	mov    r13,rdx
  408a88:	41 54                	push   r12
  408a8a:	53                   	push   rbx
  408a8b:	48 83 e4 c0          	and    rsp,0xffffffffffffffc0
  408a8f:	48 81 ec c8 7f 00 00 	sub    rsp,0x7fc8
  408a96:	4c 8d 64 24 c8       	lea    r12,[rsp-0x38]
  408a9b:	4c 8d bc 24 c8 7f 00 	lea    r15,[rsp+0x7fc8]
  408aa2:	00 
  408aa3:	48 89 7c 24 c0       	mov    QWORD PTR [rsp-0x40],rdi
  408aa8:	4c 89 e7             	mov    rdi,r12
  408aab:	c4 e2 7b 49 c8       	tilezero tmm1
  408ab0:	c4 e2 7b 49 d0       	tilezero tmm2
  408ab5:	c4 e2 7b 49 d8       	tilezero tmm3
  408aba:	c4 e2 7b 49 e0       	tilezero tmm4
  408abf:	c4 e2 7b 49 e8       	tilezero tmm5
  408ac4:	c4 e2 7a 4b 0c 37    	tilestored [rdi+rsi*1],tmm1
  408aca:	4c 8d 97 00 04 00 00 	lea    r10,[rdi+0x400]
  408ad1:	c4 c2 7a 4b 0c 32    	tilestored [r10+rsi*1],tmm1
  408ad7:	4c 8d 8f 00 08 00 00 	lea    r9,[rdi+0x800]
  408ade:	c4 c2 7a 4b 0c 31    	tilestored [r9+rsi*1],tmm1
  408ae4:	49 8d 80 00 c0 ff ff 	lea    rax,[r8-0x4000]
  408aeb:	4c 89 ea             	mov    rdx,r13
  408aee:	66 90                	xchg   ax,ax
  408af0:	c4 e2 7b 4b 3c 30    	tileloadd tmm7,[rax+rsi*1]
  408af6:	c4 e2 7b 4b 34 0a    	tileloadd tmm6,[rdx+rcx*1]
  408afc:	c4 e2 7b 4b 04 37    	tileloadd tmm0,[rdi+rsi*1]
  408b02:	c4 e2 43 5e c6       	tdpbssd tmm0,tmm6,tmm7
  408b07:	c4 e2 7a 4b 04 37    	tilestored [rdi+rsi*1],tmm0
  408b0d:	48 8d 9a 00 40 00 00 	lea    rbx,[rdx+0x4000]
  408b14:	c4 e2 7b 4b 34 0b    	tileloadd tmm6,[rbx+rcx*1]
  408b1a:	c4 c2 7b 4b 04 32    	tileloadd tmm0,[r10+rsi*1]
  408b20:	c4 e2 43 5e c6       	tdpbssd tmm0,tmm6,tmm7
  408b25:	c4 c2 7a 4b 04 32    	tilestored [r10+rsi*1],tmm0
  408b2b:	48 8d 9a 00 80 00 00 	lea    rbx,[rdx+0x8000]
  408b32:	c4 e2 7b 4b 34 0b    	tileloadd tmm6,[rbx+rcx*1]
  408b38:	c4 c2 7b 4b 04 31    	tileloadd tmm0,[r9+rsi*1]
  408b3e:	c4 e2 43 5e c6       	tdpbssd tmm0,tmm6,tmm7
  408b43:	c4 c2 7a 4b 04 31    	tilestored [r9+rsi*1],tmm0
  408b49:	48 8d 9a 00 c0 00 00 	lea    rbx,[rdx+0xc000]
  408b50:	0f 18 88 40 04 00 00 	prefetcht0 BYTE PTR [rax+0x440]
  408b57:	0f 18 88 80 04 00 00 	prefetcht0 BYTE PTR [rax+0x480]
  408b5e:	0f 18 88 c0 04 00 00 	prefetcht0 BYTE PTR [rax+0x4c0]
  408b65:	c4 e2 7b 4b 34 0b    	tileloadd tmm6,[rbx+rcx*1]
  408b6b:	c4 e2 43 5e ce       	tdpbssd tmm1,tmm6,tmm7
  408b70:	48 8d 9a 00 00 01 00 	lea    rbx,[rdx+0x10000]
  408b77:	0f 18 88 00 05 00 00 	prefetcht0 BYTE PTR [rax+0x500]
  408b7e:	0f 18 88 40 05 00 00 	prefetcht0 BYTE PTR [rax+0x540]
  408b85:	0f 18 88 80 05 00 00 	prefetcht0 BYTE PTR [rax+0x580]
  408b8c:	c4 e2 7b 4b 34 0b    	tileloadd tmm6,[rbx+rcx*1]
  408b92:	c4 e2 43 5e d6       	tdpbssd tmm2,tmm6,tmm7
  408b97:	48 8d 9a 00 40 01 00 	lea    rbx,[rdx+0x14000]
  408b9e:	0f 18 88 c0 05 00 00 	prefetcht0 BYTE PTR [rax+0x5c0]
  408ba5:	0f 18 88 00 06 00 00 	prefetcht0 BYTE PTR [rax+0x600]
  408bac:	0f 18 88 40 06 00 00 	prefetcht0 BYTE PTR [rax+0x640]
  408bb3:	c4 e2 7b 4b 34 0b    	tileloadd tmm6,[rbx+rcx*1]
  408bb9:	c4 e2 43 5e de       	tdpbssd tmm3,tmm6,tmm7
  408bbe:	48 8d 9a 00 80 01 00 	lea    rbx,[rdx+0x18000]
  408bc5:	0f 18 88 80 06 00 00 	prefetcht0 BYTE PTR [rax+0x680]
  408bcc:	0f 18 88 c0 06 00 00 	prefetcht0 BYTE PTR [rax+0x6c0]
  408bd3:	0f 18 88 00 07 00 00 	prefetcht0 BYTE PTR [rax+0x700]
  408bda:	c4 e2 7b 4b 34 0b    	tileloadd tmm6,[rbx+rcx*1]
  408be0:	c4 e2 43 5e e6       	tdpbssd tmm4,tmm6,tmm7
  408be5:	48 8d 9a 00 c0 01 00 	lea    rbx,[rdx+0x1c000]
  408bec:	0f 18 88 40 07 00 00 	prefetcht0 BYTE PTR [rax+0x740]
  408bf3:	0f 18 88 80 07 00 00 	prefetcht0 BYTE PTR [rax+0x780]
  408bfa:	0f 18 88 c0 07 00 00 	prefetcht0 BYTE PTR [rax+0x7c0]
  408c01:	c4 e2 7b 4b 34 0b    	tileloadd tmm6,[rbx+rcx*1]
  408c07:	c4 e2 43 5e ee       	tdpbssd tmm5,tmm6,tmm7
  408c0c:	0f 18 88 00 08 00 00 	prefetcht0 BYTE PTR [rax+0x800]
  408c13:	48 05 00 04 00 00    	add    rax,0x400
  408c19:	48 83 c2 40          	add    rdx,0x40
  408c1d:	49 39 c0             	cmp    r8,rax
  408c20:	0f 85 ca fe ff ff    	jne    408af0 <_ZN12intel_mlperf24_tile_dot_product_16x256ILi8ELi16ENS_9io_policyILi16ELNS_8i_formatE0EEEE7computeEPvmS5_S5_Pff+0x90>
  408c26:	48 8d 87 00 0c 00 00 	lea    rax,[rdi+0xc00]
  408c2d:	c4 e2 7a 4b 0c 30    	tilestored [rax+rsi*1],tmm1
  408c33:	48 8d 87 00 10 00 00 	lea    rax,[rdi+0x1000]
  408c3a:	c4 e2 7a 4b 14 30    	tilestored [rax+rsi*1],tmm2
  408c40:	48 8d 87 00 14 00 00 	lea    rax,[rdi+0x1400]
  408c47:	c4 e2 7a 4b 1c 30    	tilestored [rax+rsi*1],tmm3
  408c4d:	48 8d 87 00 18 00 00 	lea    rax,[rdi+0x1800]
  408c54:	c4 e2 7a 4b 24 30    	tilestored [rax+rsi*1],tmm4
  408c5a:	48 8d 87 00 1c 00 00 	lea    rax,[rdi+0x1c00]
  408c61:	c4 e2 7a 4b 2c 30    	tilestored [rax+rsi*1],tmm5
  408c67:	48 81 c7 00 20 00 00 	add    rdi,0x2000
  408c6e:	49 81 c0 00 40 00 00 	add    r8,0x4000
  408c75:	4c 39 ff             	cmp    rdi,r15
  408c78:	0f 85 2d fe ff ff    	jne    408aab <_ZN12intel_mlperf24_tile_dot_product_16x256ILi8ELi16ENS_9io_policyILi16ELNS_8i_formatE0EEEE7computeEPvmS5_S5_Pff+0x4b>
  408c7e:	4c 89 de             	mov    rsi,r11
  408c81:	62 51 7c 48 10 16    	vmovups zmm10,ZMMWORD PTR [r14]
  408c87:	62 51 7c 48 10 4e 01 	vmovups zmm9,ZMMWORD PTR [r14+0x40]
  408c8e:	62 51 7c 48 10 46 02 	vmovups zmm8,ZMMWORD PTR [r14+0x80]
  408c95:	62 d1 7c 48 10 7e 03 	vmovups zmm7,ZMMWORD PTR [r14+0xc0]
  408c9c:	48 8b 5c 24 c0       	mov    rbx,QWORD PTR [rsp-0x40]
  408ca1:	62 f2 7d 48 18 35 35 	vbroadcastss zmm6,DWORD PTR [rip+0x2535]        # 40b1e0 <__dso_handle+0x1d8>
  408ca8:	25 00 00 
  408cab:	62 f2 7d 48 18 2d 2f 	vbroadcastss zmm5,DWORD PTR [rip+0x252f]        # 40b1e4 <__dso_handle+0x1dc>
  408cb2:	25 00 00 
  408cb5:	49 8d 8c 24 00 04 00 	lea    rcx,[r12+0x400]
  408cbc:	00 
  408cbd:	62 f2 7d 48 18 e4    	vbroadcastss zmm4,xmm4
  408cc3:	48 c1 e6 04          	shl    rsi,0x4
  408cc7:	49 81 c4 00 24 00 00 	add    r12,0x2400
  408cce:	66 90                	xchg   ax,ax
  408cd0:	48 8d 81 00 fc ff ff 	lea    rax,[rcx-0x400]
  408cd7:	48 89 da             	mov    rdx,rbx
  408cda:	66 0f 1f 44 00 00    	nop    WORD PTR [rax+rax*1+0x0]
  408ce0:	62 f1 7c 48 5b 18    	vcvtdq2ps zmm3,ZMMWORD PTR [rax]
  408ce6:	62 f1 7c 48 5b 90 00 	vcvtdq2ps zmm2,ZMMWORD PTR [rax+0x2000]
  408ced:	20 00 00 
  408cf0:	62 f1 7c 48 5b 88 00 	vcvtdq2ps zmm1,ZMMWORD PTR [rax+0x4000]
  408cf7:	40 00 00 
  408cfa:	62 f1 7c 48 5b 80 00 	vcvtdq2ps zmm0,ZMMWORD PTR [rax+0x6000]
  408d01:	60 00 00 
  408d04:	62 f1 2c 48 58 db    	vaddps zmm3,zmm10,zmm3
  408d0a:	62 f1 34 48 58 d2    	vaddps zmm2,zmm9,zmm2
  408d10:	62 f1 3c 48 58 c9    	vaddps zmm1,zmm8,zmm1
  408d16:	62 f1 44 48 58 c0    	vaddps zmm0,zmm7,zmm0
  408d1c:	62 f1 64 48 59 dc    	vmulps zmm3,zmm3,zmm4
  408d22:	62 f1 6c 48 59 d4    	vmulps zmm2,zmm2,zmm4
  408d28:	62 f1 74 48 59 cc    	vmulps zmm1,zmm1,zmm4
  408d2e:	62 f1 7c 48 59 c4    	vmulps zmm0,zmm0,zmm4
  408d34:	48 83 c0 40          	add    rax,0x40
  408d38:	62 f3 7d 48 08 db 00 	vrndscaleps zmm3,zmm3,0x0
  408d3f:	62 f3 7d 48 08 d2 00 	vrndscaleps zmm2,zmm2,0x0
  408d46:	62 f3 7d 48 08 c9 00 	vrndscaleps zmm1,zmm1,0x0
  408d4d:	62 f3 7d 48 08 c0 00 	vrndscaleps zmm0,zmm0,0x0
  408d54:	62 f1 64 48 5d de    	vminps zmm3,zmm3,zmm6
  408d5a:	62 f1 6c 48 5d d6    	vminps zmm2,zmm2,zmm6
  408d60:	62 f1 74 48 5d ce    	vminps zmm1,zmm1,zmm6
  408d66:	62 f1 7c 48 5d c6    	vminps zmm0,zmm0,zmm6
  408d6c:	62 f1 64 48 5f dd    	vmaxps zmm3,zmm3,zmm5
  408d72:	62 f1 6c 48 5f d5    	vmaxps zmm2,zmm2,zmm5
  408d78:	62 f1 74 48 5f cd    	vmaxps zmm1,zmm1,zmm5
  408d7e:	62 f1 7c 48 5f c5    	vmaxps zmm0,zmm0,zmm5
  408d84:	62 f1 7d 48 5b db    	vcvtps2dq zmm3,zmm3
  408d8a:	62 f1 7d 48 5b d2    	vcvtps2dq zmm2,zmm2
  408d90:	62 f2 7e 48 31 1a    	vpmovdb XMMWORD PTR [rdx],zmm3
  408d96:	62 f2 7e 48 31 52 01 	vpmovdb XMMWORD PTR [rdx+0x10],zmm2
  408d9d:	62 f1 7d 48 5b c9    	vcvtps2dq zmm1,zmm1
  408da3:	62 f1 7d 48 5b c0    	vcvtps2dq zmm0,zmm0
  408da9:	62 f2 7e 48 31 4a 02 	vpmovdb XMMWORD PTR [rdx+0x20],zmm1
  408db0:	62 f2 7e 48 31 42 03 	vpmovdb XMMWORD PTR [rdx+0x30],zmm0
  408db7:	4c 01 da             	add    rdx,r11
  408dba:	48 39 c1             	cmp    rcx,rax
  408dbd:	0f 85 1d ff ff ff    	jne    408ce0 <_ZN12intel_mlperf24_tile_dot_product_16x256ILi8ELi16ENS_9io_policyILi16ELNS_8i_formatE0EEEE7computeEPvmS5_S5_Pff+0x280>
  408dc3:	48 81 c1 00 04 00 00 	add    rcx,0x400
  408dca:	48 01 f3             	add    rbx,rsi
  408dcd:	49 39 cc             	cmp    r12,rcx
  408dd0:	0f 85 fa fe ff ff    	jne    408cd0 <_ZN12intel_mlperf24_tile_dot_product_16x256ILi8ELi16ENS_9io_policyILi16ELNS_8i_formatE0EEEE7computeEPvmS5_S5_Pff+0x270>
  408dd6:	c5 f8 77             	vzeroupper 
  408dd9:	48 8d 65 d8          	lea    rsp,[rbp-0x28]
  408ddd:	5b                   	pop    rbx
  408dde:	41 5c                	pop    r12
  408de0:	41 5d                	pop    r13
  408de2:	41 5e                	pop    r14
  408de4:	41 5f                	pop    r15
  408de6:	5d                   	pop    rbp
  408de7:	c3                   	ret    
  408de8:	0f 1f 84 00 00 00 00 	nop    DWORD PTR [rax+rax*1+0x0]
  408def:	00 

0000000000408df0 <_ZN12intel_mlperf8i_linear13compute_blockILi8ELi16EEEvPvmS2_S2_Pff>:
  408df0:	48 89 f7             	mov    rdi,rsi
  408df3:	48 89 d6             	mov    rsi,rdx
  408df6:	48 89 ca             	mov    rdx,rcx
  408df9:	4c 89 c1             	mov    rcx,r8
  408dfc:	4d 89 c8             	mov    r8,r9
  408dff:	e9 5c fc ff ff       	jmp    408a60 <_ZN12intel_mlperf24_tile_dot_product_16x256ILi8ELi16ENS_9io_policyILi16ELNS_8i_formatE0EEEE7computeEPvmS5_S5_Pff>
  408e04:	66 2e 0f 1f 84 00 00 	cs nop WORD PTR [rax+rax*1+0x0]
  408e0b:	00 00 00 
  408e0e:	66 90                	xchg   ax,ax

0000000000408e10 <_ZN12intel_mlperf24_tile_dot_product_16x256ILi8ELi64ENS_9io_policyILi64ELNS_8i_formatE0EEEE7computeEPvmS5_S5_Pff>:
  408e10:	55                   	push   rbp
  408e11:	4c 8d 99 00 00 01 00 	lea    r11,[rcx+0x10000]
  408e18:	c5 f8 28 e0          	vmovaps xmm4,xmm0
  408e1c:	48 89 e5             	mov    rbp,rsp
  408e1f:	41 57                	push   r15
  408e21:	b9 00 10 00 00       	mov    ecx,0x1000
  408e26:	41 56                	push   r14
  408e28:	41 55                	push   r13
  408e2a:	4d 89 c5             	mov    r13,r8
  408e2d:	41 54                	push   r12
  408e2f:	49 89 d4             	mov    r12,rdx
  408e32:	53                   	push   rbx
  408e33:	48 89 f3             	mov    rbx,rsi
  408e36:	be 40 00 00 00       	mov    esi,0x40
  408e3b:	48 83 e4 c0          	and    rsp,0xffffffffffffffc0
  408e3f:	48 81 ec c8 7f 00 00 	sub    rsp,0x7fc8
  408e46:	4c 8d 44 24 c8       	lea    r8,[rsp-0x38]
  408e4b:	4c 8d b4 24 c8 7f 00 	lea    r14,[rsp+0x7fc8]
  408e52:	00 
  408e53:	48 89 7c 24 c0       	mov    QWORD PTR [rsp-0x40],rdi
  408e58:	4c 89 c7             	mov    rdi,r8
  408e5b:	c4 e2 7b 49 c8       	tilezero tmm1
  408e60:	c4 e2 7b 49 d0       	tilezero tmm2
  408e65:	c4 e2 7b 49 d8       	tilezero tmm3
  408e6a:	c4 e2 7b 49 e0       	tilezero tmm4
  408e6f:	c4 e2 7b 49 e8       	tilezero tmm5
  408e74:	c4 e2 7a 4b 0c 37    	tilestored [rdi+rsi*1],tmm1
  408e7a:	4c 8d 97 00 04 00 00 	lea    r10,[rdi+0x400]
  408e81:	c4 c2 7a 4b 0c 32    	tilestored [r10+rsi*1],tmm1
  408e87:	4c 8d 8f 00 08 00 00 	lea    r9,[rdi+0x800]
  408e8e:	c4 c2 7a 4b 0c 31    	tilestored [r9+rsi*1],tmm1
  408e94:	49 8d 83 00 00 ff ff 	lea    rax,[r11-0x10000]
  408e9b:	4c 89 e2             	mov    rdx,r12
  408e9e:	66 90                	xchg   ax,ax
  408ea0:	c4 e2 7b 4b 3c 30    	tileloadd tmm7,[rax+rsi*1]
  408ea6:	c4 e2 7b 4b 34 0a    	tileloadd tmm6,[rdx+rcx*1]
  408eac:	c4 e2 7b 4b 04 37    	tileloadd tmm0,[rdi+rsi*1]
  408eb2:	c4 e2 43 5e c6       	tdpbssd tmm0,tmm6,tmm7
  408eb7:	c4 e2 7a 4b 04 37    	tilestored [rdi+rsi*1],tmm0
  408ebd:	4c 8d ba 00 00 01 00 	lea    r15,[rdx+0x10000]
  408ec4:	c4 c2 7b 4b 34 0f    	tileloadd tmm6,[r15+rcx*1]
  408eca:	c4 c2 7b 4b 04 32    	tileloadd tmm0,[r10+rsi*1]
  408ed0:	c4 e2 43 5e c6       	tdpbssd tmm0,tmm6,tmm7
  408ed5:	c4 c2 7a 4b 04 32    	tilestored [r10+rsi*1],tmm0
  408edb:	4c 8d ba 00 00 02 00 	lea    r15,[rdx+0x20000]
  408ee2:	c4 c2 7b 4b 34 0f    	tileloadd tmm6,[r15+rcx*1]
  408ee8:	c4 c2 7b 4b 04 31    	tileloadd tmm0,[r9+rsi*1]
  408eee:	c4 e2 43 5e c6       	tdpbssd tmm0,tmm6,tmm7
  408ef3:	c4 c2 7a 4b 04 31    	tilestored [r9+rsi*1],tmm0
  408ef9:	4c 8d ba 00 00 03 00 	lea    r15,[rdx+0x30000]
  408f00:	0f 18 88 40 04 00 00 	prefetcht0 BYTE PTR [rax+0x440]
  408f07:	0f 18 88 80 04 00 00 	prefetcht0 BYTE PTR [rax+0x480]
  408f0e:	0f 18 88 c0 04 00 00 	prefetcht0 BYTE PTR [rax+0x4c0]
  408f15:	c4 c2 7b 4b 34 0f    	tileloadd tmm6,[r15+rcx*1]
  408f1b:	c4 e2 43 5e ce       	tdpbssd tmm1,tmm6,tmm7
  408f20:	4c 8d ba 00 00 04 00 	lea    r15,[rdx+0x40000]
  408f27:	0f 18 88 00 05 00 00 	prefetcht0 BYTE PTR [rax+0x500]
  408f2e:	0f 18 88 40 05 00 00 	prefetcht0 BYTE PTR [rax+0x540]
  408f35:	0f 18 88 80 05 00 00 	prefetcht0 BYTE PTR [rax+0x580]
  408f3c:	c4 c2 7b 4b 34 0f    	tileloadd tmm6,[r15+rcx*1]
  408f42:	c4 e2 43 5e d6       	tdpbssd tmm2,tmm6,tmm7
  408f47:	4c 8d ba 00 00 05 00 	lea    r15,[rdx+0x50000]
  408f4e:	0f 18 88 c0 05 00 00 	prefetcht0 BYTE PTR [rax+0x5c0]
  408f55:	0f 18 88 00 06 00 00 	prefetcht0 BYTE PTR [rax+0x600]
  408f5c:	0f 18 88 40 06 00 00 	prefetcht0 BYTE PTR [rax+0x640]
  408f63:	c4 c2 7b 4b 34 0f    	tileloadd tmm6,[r15+rcx*1]
  408f69:	c4 e2 43 5e de       	tdpbssd tmm3,tmm6,tmm7
  408f6e:	4c 8d ba 00 00 06 00 	lea    r15,[rdx+0x60000]
  408f75:	0f 18 88 80 06 00 00 	prefetcht0 BYTE PTR [rax+0x680]
  408f7c:	0f 18 88 c0 06 00 00 	prefetcht0 BYTE PTR [rax+0x6c0]
  408f83:	0f 18 88 00 07 00 00 	prefetcht0 BYTE PTR [rax+0x700]
  408f8a:	c4 c2 7b 4b 34 0f    	tileloadd tmm6,[r15+rcx*1]
  408f90:	c4 e2 43 5e e6       	tdpbssd tmm4,tmm6,tmm7
  408f95:	4c 8d ba 00 00 07 00 	lea    r15,[rdx+0x70000]
  408f9c:	0f 18 88 40 07 00 00 	prefetcht0 BYTE PTR [rax+0x740]
  408fa3:	0f 18 88 80 07 00 00 	prefetcht0 BYTE PTR [rax+0x780]
  408faa:	0f 18 88 c0 07 00 00 	prefetcht0 BYTE PTR [rax+0x7c0]
  408fb1:	c4 c2 7b 4b 34 0f    	tileloadd tmm6,[r15+rcx*1]
  408fb7:	c4 e2 43 5e ee       	tdpbssd tmm5,tmm6,tmm7
  408fbc:	0f 18 88 00 08 00 00 	prefetcht0 BYTE PTR [rax+0x800]
  408fc3:	48 05 00 04 00 00    	add    rax,0x400
  408fc9:	48 83 c2 40          	add    rdx,0x40
  408fcd:	49 39 c3             	cmp    r11,rax
  408fd0:	0f 85 ca fe ff ff    	jne    408ea0 <_ZN12intel_mlperf24_tile_dot_product_16x256ILi8ELi64ENS_9io_policyILi64ELNS_8i_formatE0EEEE7computeEPvmS5_S5_Pff+0x90>
  408fd6:	48 8d 87 00 0c 00 00 	lea    rax,[rdi+0xc00]
  408fdd:	c4 e2 7a 4b 0c 30    	tilestored [rax+rsi*1],tmm1
  408fe3:	48 8d 87 00 10 00 00 	lea    rax,[rdi+0x1000]
  408fea:	c4 e2 7a 4b 14 30    	tilestored [rax+rsi*1],tmm2
  408ff0:	48 8d 87 00 14 00 00 	lea    rax,[rdi+0x1400]
  408ff7:	c4 e2 7a 4b 1c 30    	tilestored [rax+rsi*1],tmm3
  408ffd:	48 8d 87 00 18 00 00 	lea    rax,[rdi+0x1800]
  409004:	c4 e2 7a 4b 24 30    	tilestored [rax+rsi*1],tmm4
  40900a:	48 8d 87 00 1c 00 00 	lea    rax,[rdi+0x1c00]
  409011:	c4 e2 7a 4b 2c 30    	tilestored [rax+rsi*1],tmm5
  409017:	48 81 c7 00 20 00 00 	add    rdi,0x2000
  40901e:	49 81 c3 00 00 01 00 	add    r11,0x10000
  409025:	4c 39 f7             	cmp    rdi,r14
  409028:	0f 85 2d fe ff ff    	jne    408e5b <_ZN12intel_mlperf24_tile_dot_product_16x256ILi8ELi64ENS_9io_policyILi64ELNS_8i_formatE0EEEE7computeEPvmS5_S5_Pff+0x4b>
  40902e:	48 89 df             	mov    rdi,rbx
  409031:	62 51 7c 48 10 55 00 	vmovups zmm10,ZMMWORD PTR [r13+0x0]
  409038:	62 51 7c 48 10 4d 01 	vmovups zmm9,ZMMWORD PTR [r13+0x40]
  40903f:	62 51 7c 48 10 45 02 	vmovups zmm8,ZMMWORD PTR [r13+0x80]
  409046:	62 d1 7c 48 10 7d 03 	vmovups zmm7,ZMMWORD PTR [r13+0xc0]
  40904d:	48 8b 74 24 c0       	mov    rsi,QWORD PTR [rsp-0x40]
  409052:	62 f2 7d 48 18 35 84 	vbroadcastss zmm6,DWORD PTR [rip+0x2184]        # 40b1e0 <__dso_handle+0x1d8>
  409059:	21 00 00 
  40905c:	62 f2 7d 48 18 2d 7e 	vbroadcastss zmm5,DWORD PTR [rip+0x217e]        # 40b1e4 <__dso_handle+0x1dc>
  409063:	21 00 00 
  409066:	49 8d 88 00 04 00 00 	lea    rcx,[r8+0x400]
  40906d:	62 f2 7d 48 18 e4    	vbroadcastss zmm4,xmm4
  409073:	48 c1 e7 04          	shl    rdi,0x4
  409077:	49 81 c0 00 24 00 00 	add    r8,0x2400
  40907e:	48 8d 81 00 fc ff ff 	lea    rax,[rcx-0x400]
  409085:	48 89 f2             	mov    rdx,rsi
  409088:	0f 1f 84 00 00 00 00 	nop    DWORD PTR [rax+rax*1+0x0]
  40908f:	00 
  409090:	62 f1 7c 48 5b 18    	vcvtdq2ps zmm3,ZMMWORD PTR [rax]
  409096:	62 f1 7c 48 5b 90 00 	vcvtdq2ps zmm2,ZMMWORD PTR [rax+0x2000]
  40909d:	20 00 00 
  4090a0:	62 f1 7c 48 5b 88 00 	vcvtdq2ps zmm1,ZMMWORD PTR [rax+0x4000]
  4090a7:	40 00 00 
  4090aa:	62 f1 7c 48 5b 80 00 	vcvtdq2ps zmm0,ZMMWORD PTR [rax+0x6000]
  4090b1:	60 00 00 
  4090b4:	62 f1 2c 48 58 db    	vaddps zmm3,zmm10,zmm3
  4090ba:	62 f1 34 48 58 d2    	vaddps zmm2,zmm9,zmm2
  4090c0:	62 f1 3c 48 58 c9    	vaddps zmm1,zmm8,zmm1
  4090c6:	62 f1 44 48 58 c0    	vaddps zmm0,zmm7,zmm0
  4090cc:	62 f1 64 48 59 dc    	vmulps zmm3,zmm3,zmm4
  4090d2:	62 f1 6c 48 59 d4    	vmulps zmm2,zmm2,zmm4
  4090d8:	62 f1 74 48 59 cc    	vmulps zmm1,zmm1,zmm4
  4090de:	62 f1 7c 48 59 c4    	vmulps zmm0,zmm0,zmm4
  4090e4:	48 83 c0 40          	add    rax,0x40
  4090e8:	62 f3 7d 48 08 db 00 	vrndscaleps zmm3,zmm3,0x0
  4090ef:	62 f3 7d 48 08 d2 00 	vrndscaleps zmm2,zmm2,0x0
  4090f6:	62 f3 7d 48 08 c9 00 	vrndscaleps zmm1,zmm1,0x0
  4090fd:	62 f3 7d 48 08 c0 00 	vrndscaleps zmm0,zmm0,0x0
  409104:	62 f1 64 48 5d de    	vminps zmm3,zmm3,zmm6
  40910a:	62 f1 6c 48 5d d6    	vminps zmm2,zmm2,zmm6
  409110:	62 f1 74 48 5d ce    	vminps zmm1,zmm1,zmm6
  409116:	62 f1 7c 48 5d c6    	vminps zmm0,zmm0,zmm6
  40911c:	62 f1 64 48 5f dd    	vmaxps zmm3,zmm3,zmm5
  409122:	62 f1 6c 48 5f d5    	vmaxps zmm2,zmm2,zmm5
  409128:	62 f1 74 48 5f cd    	vmaxps zmm1,zmm1,zmm5
  40912e:	62 f1 7c 48 5f c5    	vmaxps zmm0,zmm0,zmm5
  409134:	62 f1 7d 48 5b db    	vcvtps2dq zmm3,zmm3
  40913a:	62 f1 7d 48 5b d2    	vcvtps2dq zmm2,zmm2
  409140:	62 f2 7e 48 31 1a    	vpmovdb XMMWORD PTR [rdx],zmm3
  409146:	62 f2 7e 48 31 52 01 	vpmovdb XMMWORD PTR [rdx+0x10],zmm2
  40914d:	62 f1 7d 48 5b c9    	vcvtps2dq zmm1,zmm1
  409153:	62 f1 7d 48 5b c0    	vcvtps2dq zmm0,zmm0
  409159:	62 f2 7e 48 31 4a 02 	vpmovdb XMMWORD PTR [rdx+0x20],zmm1
  409160:	62 f2 7e 48 31 42 03 	vpmovdb XMMWORD PTR [rdx+0x30],zmm0
  409167:	48 01 da             	add    rdx,rbx
  40916a:	48 39 c1             	cmp    rcx,rax
  40916d:	0f 85 1d ff ff ff    	jne    409090 <_ZN12intel_mlperf24_tile_dot_product_16x256ILi8ELi64ENS_9io_policyILi64ELNS_8i_formatE0EEEE7computeEPvmS5_S5_Pff+0x280>
  409173:	48 81 c1 00 04 00 00 	add    rcx,0x400
  40917a:	48 01 fe             	add    rsi,rdi
  40917d:	49 39 c8             	cmp    r8,rcx
  409180:	0f 85 f8 fe ff ff    	jne    40907e <_ZN12intel_mlperf24_tile_dot_product_16x256ILi8ELi64ENS_9io_policyILi64ELNS_8i_formatE0EEEE7computeEPvmS5_S5_Pff+0x26e>
  409186:	c5 f8 77             	vzeroupper 
  409189:	48 8d 65 d8          	lea    rsp,[rbp-0x28]
  40918d:	5b                   	pop    rbx
  40918e:	41 5c                	pop    r12
  409190:	41 5d                	pop    r13
  409192:	41 5e                	pop    r14
  409194:	41 5f                	pop    r15
  409196:	5d                   	pop    rbp
  409197:	c3                   	ret    
  409198:	0f 1f 84 00 00 00 00 	nop    DWORD PTR [rax+rax*1+0x0]
  40919f:	00 

00000000004091a0 <_ZN12intel_mlperf8i_linear13compute_blockILi8ELi64EEEvPvmS2_S2_Pff>:
  4091a0:	48 89 f7             	mov    rdi,rsi
  4091a3:	48 89 d6             	mov    rsi,rdx
  4091a6:	48 89 ca             	mov    rdx,rcx
  4091a9:	4c 89 c1             	mov    rcx,r8
  4091ac:	4d 89 c8             	mov    r8,r9
  4091af:	e9 5c fc ff ff       	jmp    408e10 <_ZN12intel_mlperf24_tile_dot_product_16x256ILi8ELi64ENS_9io_policyILi64ELNS_8i_formatE0EEEE7computeEPvmS5_S5_Pff>
  4091b4:	66 2e 0f 1f 84 00 00 	cs nop WORD PTR [rax+rax*1+0x0]
  4091bb:	00 00 00 
  4091be:	66 90                	xchg   ax,ax

00000000004091c0 <_ZN12intel_mlperf24_tile_dot_product_16x256ILi9ELi16ENS_9io_policyILi16ELNS_8i_formatE0EEEE7computeEPvmS5_S5_Pff>:
  4091c0:	55                   	push   rbp
  4091c1:	49 89 f1             	mov    r9,rsi
  4091c4:	c5 f8 28 e0          	vmovaps xmm4,xmm0
  4091c8:	48 89 e5             	mov    rbp,rsp
  4091cb:	41 57                	push   r15
  4091cd:	be 00 04 00 00       	mov    esi,0x400
  4091d2:	41 56                	push   r14
  4091d4:	4d 89 c6             	mov    r14,r8
  4091d7:	41 55                	push   r13
  4091d9:	49 89 d5             	mov    r13,rdx
  4091dc:	41 54                	push   r12
  4091de:	53                   	push   rbx
  4091df:	48 8d 99 00 40 00 00 	lea    rbx,[rcx+0x4000]
  4091e6:	b9 40 00 00 00       	mov    ecx,0x40
  4091eb:	48 83 e4 c0          	and    rsp,0xffffffffffffffc0
  4091ef:	48 81 ec c8 8f 00 00 	sub    rsp,0x8fc8
  4091f6:	48 89 7c 24 b8       	mov    QWORD PTR [rsp-0x48],rdi
  4091fb:	48 8d 7c 24 c8       	lea    rdi,[rsp-0x38]
  409200:	48 89 7c 24 c0       	mov    QWORD PTR [rsp-0x40],rdi
  409205:	4c 8d bc 24 c8 8f 00 	lea    r15,[rsp+0x8fc8]
  40920c:	00 
  40920d:	c4 e2 7b 49 c8       	tilezero tmm1
  409212:	c4 e2 7b 49 d0       	tilezero tmm2
  409217:	c4 e2 7b 49 d8       	tilezero tmm3
  40921c:	c4 e2 7b 49 e0       	tilezero tmm4
  409221:	c4 e2 7b 49 e8       	tilezero tmm5
  409226:	c4 e2 7a 4b 0c 0f    	tilestored [rdi+rcx*1],tmm1
  40922c:	4c 8d 9f 00 04 00 00 	lea    r11,[rdi+0x400]
  409233:	c4 c2 7a 4b 0c 0b    	tilestored [r11+rcx*1],tmm1
  409239:	4c 8d 97 00 08 00 00 	lea    r10,[rdi+0x800]
  409240:	c4 c2 7a 4b 0c 0a    	tilestored [r10+rcx*1],tmm1
  409246:	4c 8d 87 00 0c 00 00 	lea    r8,[rdi+0xc00]
  40924d:	c4 c2 7a 4b 0c 08    	tilestored [r8+rcx*1],tmm1
  409253:	48 8d 83 00 c0 ff ff 	lea    rax,[rbx-0x4000]
  40925a:	4c 89 ea             	mov    rdx,r13
  40925d:	0f 1f 00             	nop    DWORD PTR [rax]
  409260:	c4 e2 7b 4b 3c 08    	tileloadd tmm7,[rax+rcx*1]
  409266:	c4 e2 7b 4b 34 32    	tileloadd tmm6,[rdx+rsi*1]
  40926c:	c4 e2 7b 4b 04 0f    	tileloadd tmm0,[rdi+rcx*1]
  409272:	c4 e2 43 5e c6       	tdpbssd tmm0,tmm6,tmm7
  409277:	c4 e2 7a 4b 04 0f    	tilestored [rdi+rcx*1],tmm0
  40927d:	4c 8d a2 00 40 00 00 	lea    r12,[rdx+0x4000]
  409284:	c4 c2 7b 4b 34 34    	tileloadd tmm6,[r12+rsi*1]
  40928a:	c4 c2 7b 4b 04 0b    	tileloadd tmm0,[r11+rcx*1]
  409290:	c4 e2 43 5e c6       	tdpbssd tmm0,tmm6,tmm7
  409295:	c4 c2 7a 4b 04 0b    	tilestored [r11+rcx*1],tmm0
  40929b:	4c 8d a2 00 80 00 00 	lea    r12,[rdx+0x8000]
  4092a2:	c4 c2 7b 4b 34 34    	tileloadd tmm6,[r12+rsi*1]
  4092a8:	c4 c2 7b 4b 04 0a    	tileloadd tmm0,[r10+rcx*1]
  4092ae:	c4 e2 43 5e c6       	tdpbssd tmm0,tmm6,tmm7
  4092b3:	c4 c2 7a 4b 04 0a    	tilestored [r10+rcx*1],tmm0
  4092b9:	4c 8d a2 00 c0 00 00 	lea    r12,[rdx+0xc000]
  4092c0:	c4 c2 7b 4b 34 34    	tileloadd tmm6,[r12+rsi*1]
  4092c6:	c4 c2 7b 4b 04 08    	tileloadd tmm0,[r8+rcx*1]
  4092cc:	c4 e2 43 5e c6       	tdpbssd tmm0,tmm6,tmm7
  4092d1:	c4 c2 7a 4b 04 08    	tilestored [r8+rcx*1],tmm0
  4092d7:	4c 8d a2 00 00 01 00 	lea    r12,[rdx+0x10000]
  4092de:	0f 18 88 40 04 00 00 	prefetcht0 BYTE PTR [rax+0x440]
  4092e5:	0f 18 88 80 04 00 00 	prefetcht0 BYTE PTR [rax+0x480]
  4092ec:	0f 18 88 c0 04 00 00 	prefetcht0 BYTE PTR [rax+0x4c0]
  4092f3:	c4 c2 7b 4b 34 34    	tileloadd tmm6,[r12+rsi*1]
  4092f9:	c4 e2 43 5e ce       	tdpbssd tmm1,tmm6,tmm7
  4092fe:	4c 8d a2 00 40 01 00 	lea    r12,[rdx+0x14000]
  409305:	0f 18 88 00 05 00 00 	prefetcht0 BYTE PTR [rax+0x500]
  40930c:	0f 18 88 40 05 00 00 	prefetcht0 BYTE PTR [rax+0x540]
  409313:	0f 18 88 80 05 00 00 	prefetcht0 BYTE PTR [rax+0x580]
  40931a:	c4 c2 7b 4b 34 34    	tileloadd tmm6,[r12+rsi*1]
  409320:	c4 e2 43 5e d6       	tdpbssd tmm2,tmm6,tmm7
  409325:	4c 8d a2 00 80 01 00 	lea    r12,[rdx+0x18000]
  40932c:	0f 18 88 c0 05 00 00 	prefetcht0 BYTE PTR [rax+0x5c0]
  409333:	0f 18 88 00 06 00 00 	prefetcht0 BYTE PTR [rax+0x600]
  40933a:	0f 18 88 40 06 00 00 	prefetcht0 BYTE PTR [rax+0x640]
  409341:	c4 c2 7b 4b 34 34    	tileloadd tmm6,[r12+rsi*1]
  409347:	c4 e2 43 5e de       	tdpbssd tmm3,tmm6,tmm7
  40934c:	4c 8d a2 00 c0 01 00 	lea    r12,[rdx+0x1c000]
  409353:	0f 18 88 80 06 00 00 	prefetcht0 BYTE PTR [rax+0x680]
  40935a:	0f 18 88 c0 06 00 00 	prefetcht0 BYTE PTR [rax+0x6c0]
  409361:	0f 18 88 00 07 00 00 	prefetcht0 BYTE PTR [rax+0x700]
  409368:	c4 c2 7b 4b 34 34    	tileloadd tmm6,[r12+rsi*1]
  40936e:	c4 e2 43 5e e6       	tdpbssd tmm4,tmm6,tmm7
  409373:	4c 8d a2 00 00 02 00 	lea    r12,[rdx+0x20000]
  40937a:	0f 18 88 40 07 00 00 	prefetcht0 BYTE PTR [rax+0x740]
  409381:	0f 18 88 80 07 00 00 	prefetcht0 BYTE PTR [rax+0x780]
  409388:	0f 18 88 c0 07 00 00 	prefetcht0 BYTE PTR [rax+0x7c0]
  40938f:	c4 c2 7b 4b 34 34    	tileloadd tmm6,[r12+rsi*1]
  409395:	c4 e2 43 5e ee       	tdpbssd tmm5,tmm6,tmm7
  40939a:	0f 18 88 00 08 00 00 	prefetcht0 BYTE PTR [rax+0x800]
  4093a1:	48 05 00 04 00 00    	add    rax,0x400
  4093a7:	48 83 c2 40          	add    rdx,0x40
  4093ab:	48 39 c3             	cmp    rbx,rax
  4093ae:	0f 85 ac fe ff ff    	jne    409260 <_ZN12intel_mlperf24_tile_dot_product_16x256ILi9ELi16ENS_9io_policyILi16ELNS_8i_formatE0EEEE7computeEPvmS5_S5_Pff+0xa0>
  4093b4:	48 8d 87 00 10 00 00 	lea    rax,[rdi+0x1000]
  4093bb:	c4 e2 7a 4b 0c 08    	tilestored [rax+rcx*1],tmm1
  4093c1:	48 8d 87 00 14 00 00 	lea    rax,[rdi+0x1400]
  4093c8:	c4 e2 7a 4b 14 08    	tilestored [rax+rcx*1],tmm2
  4093ce:	48 8d 87 00 18 00 00 	lea    rax,[rdi+0x1800]
  4093d5:	c4 e2 7a 4b 1c 08    	tilestored [rax+rcx*1],tmm3
  4093db:	48 8d 87 00 1c 00 00 	lea    rax,[rdi+0x1c00]
  4093e2:	c4 e2 7a 4b 24 08    	tilestored [rax+rcx*1],tmm4
  4093e8:	48 8d 87 00 20 00 00 	lea    rax,[rdi+0x2000]
  4093ef:	c4 e2 7a 4b 2c 08    	tilestored [rax+rcx*1],tmm5
  4093f5:	48 81 c7 00 24 00 00 	add    rdi,0x2400
  4093fc:	48 81 c3 00 40 00 00 	add    rbx,0x4000
  409403:	4c 39 ff             	cmp    rdi,r15
  409406:	0f 85 01 fe ff ff    	jne    40920d <_ZN12intel_mlperf24_tile_dot_product_16x256ILi9ELi16ENS_9io_policyILi16ELNS_8i_formatE0EEEE7computeEPvmS5_S5_Pff+0x4d>
  40940c:	48 8b 44 24 c0       	mov    rax,QWORD PTR [rsp-0x40]
  409411:	4c 89 cf             	mov    rdi,r9
  409414:	62 51 7c 48 10 16    	vmovups zmm10,ZMMWORD PTR [r14]
  40941a:	62 51 7c 48 10 4e 01 	vmovups zmm9,ZMMWORD PTR [r14+0x40]
  409421:	62 51 7c 48 10 46 02 	vmovups zmm8,ZMMWORD PTR [r14+0x80]
  409428:	62 d1 7c 48 10 7e 03 	vmovups zmm7,ZMMWORD PTR [r14+0xc0]
  40942f:	48 8b 74 24 b8       	mov    rsi,QWORD PTR [rsp-0x48]
  409434:	62 f2 7d 48 18 35 a2 	vbroadcastss zmm6,DWORD PTR [rip+0x1da2]        # 40b1e0 <__dso_handle+0x1d8>
  40943b:	1d 00 00 
  40943e:	62 f2 7d 48 18 2d 9c 	vbroadcastss zmm5,DWORD PTR [rip+0x1d9c]        # 40b1e4 <__dso_handle+0x1dc>
  409445:	1d 00 00 
  409448:	62 f2 7d 48 18 e4    	vbroadcastss zmm4,xmm4
  40944e:	48 c1 e7 04          	shl    rdi,0x4
  409452:	48 8d 88 00 04 00 00 	lea    rcx,[rax+0x400]
  409459:	4c 8d a0 00 28 00 00 	lea    r12,[rax+0x2800]
  409460:	48 8d 81 00 fc ff ff 	lea    rax,[rcx-0x400]
  409467:	48 89 f2             	mov    rdx,rsi
  40946a:	66 0f 1f 44 00 00    	nop    WORD PTR [rax+rax*1+0x0]
  409470:	62 f1 7c 48 5b 18    	vcvtdq2ps zmm3,ZMMWORD PTR [rax]
  409476:	62 f1 7c 48 5b 90 00 	vcvtdq2ps zmm2,ZMMWORD PTR [rax+0x2400]
  40947d:	24 00 00 
  409480:	62 f1 7c 48 5b 88 00 	vcvtdq2ps zmm1,ZMMWORD PTR [rax+0x4800]
  409487:	48 00 00 
  40948a:	62 f1 7c 48 5b 80 00 	vcvtdq2ps zmm0,ZMMWORD PTR [rax+0x6c00]
  409491:	6c 00 00 
  409494:	62 f1 2c 48 58 db    	vaddps zmm3,zmm10,zmm3
  40949a:	62 f1 34 48 58 d2    	vaddps zmm2,zmm9,zmm2
  4094a0:	62 f1 3c 48 58 c9    	vaddps zmm1,zmm8,zmm1
  4094a6:	62 f1 44 48 58 c0    	vaddps zmm0,zmm7,zmm0
  4094ac:	62 f1 64 48 59 dc    	vmulps zmm3,zmm3,zmm4
  4094b2:	62 f1 6c 48 59 d4    	vmulps zmm2,zmm2,zmm4
  4094b8:	62 f1 74 48 59 cc    	vmulps zmm1,zmm1,zmm4
  4094be:	62 f1 7c 48 59 c4    	vmulps zmm0,zmm0,zmm4
  4094c4:	48 83 c0 40          	add    rax,0x40
  4094c8:	62 f3 7d 48 08 db 00 	vrndscaleps zmm3,zmm3,0x0
  4094cf:	62 f3 7d 48 08 d2 00 	vrndscaleps zmm2,zmm2,0x0
  4094d6:	62 f3 7d 48 08 c9 00 	vrndscaleps zmm1,zmm1,0x0
  4094dd:	62 f3 7d 48 08 c0 00 	vrndscaleps zmm0,zmm0,0x0
  4094e4:	62 f1 64 48 5d de    	vminps zmm3,zmm3,zmm6
  4094ea:	62 f1 6c 48 5d d6    	vminps zmm2,zmm2,zmm6
  4094f0:	62 f1 74 48 5d ce    	vminps zmm1,zmm1,zmm6
  4094f6:	62 f1 7c 48 5d c6    	vminps zmm0,zmm0,zmm6
  4094fc:	62 f1 64 48 5f dd    	vmaxps zmm3,zmm3,zmm5
  409502:	62 f1 6c 48 5f d5    	vmaxps zmm2,zmm2,zmm5
  409508:	62 f1 74 48 5f cd    	vmaxps zmm1,zmm1,zmm5
  40950e:	62 f1 7c 48 5f c5    	vmaxps zmm0,zmm0,zmm5
  409514:	62 f1 7d 48 5b db    	vcvtps2dq zmm3,zmm3
  40951a:	62 f1 7d 48 5b d2    	vcvtps2dq zmm2,zmm2
  409520:	62 f2 7e 48 31 1a    	vpmovdb XMMWORD PTR [rdx],zmm3
  409526:	62 f2 7e 48 31 52 01 	vpmovdb XMMWORD PTR [rdx+0x10],zmm2
  40952d:	62 f1 7d 48 5b c9    	vcvtps2dq zmm1,zmm1
  409533:	62 f1 7d 48 5b c0    	vcvtps2dq zmm0,zmm0
  409539:	62 f2 7e 48 31 4a 02 	vpmovdb XMMWORD PTR [rdx+0x20],zmm1
  409540:	62 f2 7e 48 31 42 03 	vpmovdb XMMWORD PTR [rdx+0x30],zmm0
  409547:	4c 01 ca             	add    rdx,r9
  40954a:	48 39 c1             	cmp    rcx,rax
  40954d:	0f 85 1d ff ff ff    	jne    409470 <_ZN12intel_mlperf24_tile_dot_product_16x256ILi9ELi16ENS_9io_policyILi16ELNS_8i_formatE0EEEE7computeEPvmS5_S5_Pff+0x2b0>
  409553:	48 81 c1 00 04 00 00 	add    rcx,0x400
  40955a:	48 01 fe             	add    rsi,rdi
  40955d:	49 39 cc             	cmp    r12,rcx
  409560:	0f 85 fa fe ff ff    	jne    409460 <_ZN12intel_mlperf24_tile_dot_product_16x256ILi9ELi16ENS_9io_policyILi16ELNS_8i_formatE0EEEE7computeEPvmS5_S5_Pff+0x2a0>
  409566:	c5 f8 77             	vzeroupper 
  409569:	48 8d 65 d8          	lea    rsp,[rbp-0x28]
  40956d:	5b                   	pop    rbx
  40956e:	41 5c                	pop    r12
  409570:	41 5d                	pop    r13
  409572:	41 5e                	pop    r14
  409574:	41 5f                	pop    r15
  409576:	5d                   	pop    rbp
  409577:	c3                   	ret    
  409578:	0f 1f 84 00 00 00 00 	nop    DWORD PTR [rax+rax*1+0x0]
  40957f:	00 

0000000000409580 <_ZN12intel_mlperf8i_linear13compute_blockILi9ELi16EEEvPvmS2_S2_Pff>:
  409580:	48 89 f7             	mov    rdi,rsi
  409583:	48 89 d6             	mov    rsi,rdx
  409586:	48 89 ca             	mov    rdx,rcx
  409589:	4c 89 c1             	mov    rcx,r8
  40958c:	4d 89 c8             	mov    r8,r9
  40958f:	e9 2c fc ff ff       	jmp    4091c0 <_ZN12intel_mlperf24_tile_dot_product_16x256ILi9ELi16ENS_9io_policyILi16ELNS_8i_formatE0EEEE7computeEPvmS5_S5_Pff>
  409594:	66 2e 0f 1f 84 00 00 	cs nop WORD PTR [rax+rax*1+0x0]
  40959b:	00 00 00 
  40959e:	66 90                	xchg   ax,ax

00000000004095a0 <_ZN12intel_mlperf24_tile_dot_product_16x256ILi9ELi64ENS_9io_policyILi64ELNS_8i_formatE0EEEE7computeEPvmS5_S5_Pff>:
  4095a0:	55                   	push   rbp
  4095a1:	c5 f8 28 e0          	vmovaps xmm4,xmm0
  4095a5:	48 89 e5             	mov    rbp,rsp
  4095a8:	41 57                	push   r15
  4095aa:	41 56                	push   r14
  4095ac:	4d 89 c6             	mov    r14,r8
  4095af:	4c 8d 81 00 00 01 00 	lea    r8,[rcx+0x10000]
  4095b6:	41 55                	push   r13
  4095b8:	b9 40 00 00 00       	mov    ecx,0x40
  4095bd:	41 54                	push   r12
  4095bf:	53                   	push   rbx
  4095c0:	48 89 f3             	mov    rbx,rsi
  4095c3:	be 00 10 00 00       	mov    esi,0x1000
  4095c8:	48 83 e4 c0          	and    rsp,0xffffffffffffffc0
  4095cc:	48 81 ec c8 8f 00 00 	sub    rsp,0x8fc8
  4095d3:	48 89 54 24 c0       	mov    QWORD PTR [rsp-0x40],rdx
  4095d8:	4c 8d 64 24 c8       	lea    r12,[rsp-0x38]
  4095dd:	48 89 7c 24 b8       	mov    QWORD PTR [rsp-0x48],rdi
  4095e2:	4c 8d bc 24 c8 8f 00 	lea    r15,[rsp+0x8fc8]
  4095e9:	00 
  4095ea:	4c 89 e7             	mov    rdi,r12
  4095ed:	c4 e2 7b 49 c8       	tilezero tmm1
  4095f2:	c4 e2 7b 49 d0       	tilezero tmm2
  4095f7:	c4 e2 7b 49 d8       	tilezero tmm3
  4095fc:	c4 e2 7b 49 e0       	tilezero tmm4
  409601:	c4 e2 7b 49 e8       	tilezero tmm5
  409606:	c4 e2 7a 4b 0c 0f    	tilestored [rdi+rcx*1],tmm1
  40960c:	4c 8d 9f 00 04 00 00 	lea    r11,[rdi+0x400]
  409613:	c4 c2 7a 4b 0c 0b    	tilestored [r11+rcx*1],tmm1
  409619:	4c 8d 97 00 08 00 00 	lea    r10,[rdi+0x800]
  409620:	c4 c2 7a 4b 0c 0a    	tilestored [r10+rcx*1],tmm1
  409626:	4c 8d 8f 00 0c 00 00 	lea    r9,[rdi+0xc00]
  40962d:	c4 c2 7a 4b 0c 09    	tilestored [r9+rcx*1],tmm1
  409633:	48 8b 54 24 c0       	mov    rdx,QWORD PTR [rsp-0x40]
  409638:	49 8d 80 00 00 ff ff 	lea    rax,[r8-0x10000]
  40963f:	90                   	nop
  409640:	c4 e2 7b 4b 3c 08    	tileloadd tmm7,[rax+rcx*1]
  409646:	c4 e2 7b 4b 34 32    	tileloadd tmm6,[rdx+rsi*1]
  40964c:	c4 e2 7b 4b 04 0f    	tileloadd tmm0,[rdi+rcx*1]
  409652:	c4 e2 43 5e c6       	tdpbssd tmm0,tmm6,tmm7
  409657:	c4 e2 7a 4b 04 0f    	tilestored [rdi+rcx*1],tmm0
  40965d:	4c 8d aa 00 00 01 00 	lea    r13,[rdx+0x10000]
  409664:	c4 c2 7b 4b 74 35 00 	tileloadd tmm6,[r13+rsi*1+0x0]
  40966b:	c4 c2 7b 4b 04 0b    	tileloadd tmm0,[r11+rcx*1]
  409671:	c4 e2 43 5e c6       	tdpbssd tmm0,tmm6,tmm7
  409676:	c4 c2 7a 4b 04 0b    	tilestored [r11+rcx*1],tmm0
  40967c:	4c 8d aa 00 00 02 00 	lea    r13,[rdx+0x20000]
  409683:	c4 c2 7b 4b 74 35 00 	tileloadd tmm6,[r13+rsi*1+0x0]
  40968a:	c4 c2 7b 4b 04 0a    	tileloadd tmm0,[r10+rcx*1]
  409690:	c4 e2 43 5e c6       	tdpbssd tmm0,tmm6,tmm7
  409695:	c4 c2 7a 4b 04 0a    	tilestored [r10+rcx*1],tmm0
  40969b:	4c 8d aa 00 00 03 00 	lea    r13,[rdx+0x30000]
  4096a2:	c4 c2 7b 4b 74 35 00 	tileloadd tmm6,[r13+rsi*1+0x0]
  4096a9:	c4 c2 7b 4b 04 09    	tileloadd tmm0,[r9+rcx*1]
  4096af:	c4 e2 43 5e c6       	tdpbssd tmm0,tmm6,tmm7
  4096b4:	c4 c2 7a 4b 04 09    	tilestored [r9+rcx*1],tmm0
  4096ba:	4c 8d aa 00 00 04 00 	lea    r13,[rdx+0x40000]
  4096c1:	0f 18 88 40 04 00 00 	prefetcht0 BYTE PTR [rax+0x440]
  4096c8:	0f 18 88 80 04 00 00 	prefetcht0 BYTE PTR [rax+0x480]
  4096cf:	0f 18 88 c0 04 00 00 	prefetcht0 BYTE PTR [rax+0x4c0]
  4096d6:	c4 c2 7b 4b 74 35 00 	tileloadd tmm6,[r13+rsi*1+0x0]
  4096dd:	c4 e2 43 5e ce       	tdpbssd tmm1,tmm6,tmm7
  4096e2:	4c 8d aa 00 00 05 00 	lea    r13,[rdx+0x50000]
  4096e9:	0f 18 88 00 05 00 00 	prefetcht0 BYTE PTR [rax+0x500]
  4096f0:	0f 18 88 40 05 00 00 	prefetcht0 BYTE PTR [rax+0x540]
  4096f7:	0f 18 88 80 05 00 00 	prefetcht0 BYTE PTR [rax+0x580]
  4096fe:	c4 c2 7b 4b 74 35 00 	tileloadd tmm6,[r13+rsi*1+0x0]
  409705:	c4 e2 43 5e d6       	tdpbssd tmm2,tmm6,tmm7
  40970a:	4c 8d aa 00 00 06 00 	lea    r13,[rdx+0x60000]
  409711:	0f 18 88 c0 05 00 00 	prefetcht0 BYTE PTR [rax+0x5c0]
  409718:	0f 18 88 00 06 00 00 	prefetcht0 BYTE PTR [rax+0x600]
  40971f:	0f 18 88 40 06 00 00 	prefetcht0 BYTE PTR [rax+0x640]
  409726:	c4 c2 7b 4b 74 35 00 	tileloadd tmm6,[r13+rsi*1+0x0]
  40972d:	c4 e2 43 5e de       	tdpbssd tmm3,tmm6,tmm7
  409732:	4c 8d aa 00 00 07 00 	lea    r13,[rdx+0x70000]
  409739:	0f 18 88 80 06 00 00 	prefetcht0 BYTE PTR [rax+0x680]
  409740:	0f 18 88 c0 06 00 00 	prefetcht0 BYTE PTR [rax+0x6c0]
  409747:	0f 18 88 00 07 00 00 	prefetcht0 BYTE PTR [rax+0x700]
  40974e:	c4 c2 7b 4b 74 35 00 	tileloadd tmm6,[r13+rsi*1+0x0]
  409755:	c4 e2 43 5e e6       	tdpbssd tmm4,tmm6,tmm7
  40975a:	4c 8d aa 00 00 08 00 	lea    r13,[rdx+0x80000]
  409761:	0f 18 88 40 07 00 00 	prefetcht0 BYTE PTR [rax+0x740]
  409768:	0f 18 88 80 07 00 00 	prefetcht0 BYTE PTR [rax+0x780]
  40976f:	0f 18 88 c0 07 00 00 	prefetcht0 BYTE PTR [rax+0x7c0]
  409776:	c4 c2 7b 4b 74 35 00 	tileloadd tmm6,[r13+rsi*1+0x0]
  40977d:	c4 e2 43 5e ee       	tdpbssd tmm5,tmm6,tmm7
  409782:	0f 18 88 00 08 00 00 	prefetcht0 BYTE PTR [rax+0x800]
  409789:	48 05 00 04 00 00    	add    rax,0x400
  40978f:	48 83 c2 40          	add    rdx,0x40
  409793:	49 39 c0             	cmp    r8,rax
  409796:	0f 85 a4 fe ff ff    	jne    409640 <_ZN12intel_mlperf24_tile_dot_product_16x256ILi9ELi64ENS_9io_policyILi64ELNS_8i_formatE0EEEE7computeEPvmS5_S5_Pff+0xa0>
  40979c:	48 8d 87 00 10 00 00 	lea    rax,[rdi+0x1000]
  4097a3:	c4 e2 7a 4b 0c 08    	tilestored [rax+rcx*1],tmm1
  4097a9:	48 8d 87 00 14 00 00 	lea    rax,[rdi+0x1400]
  4097b0:	c4 e2 7a 4b 14 08    	tilestored [rax+rcx*1],tmm2
  4097b6:	48 8d 87 00 18 00 00 	lea    rax,[rdi+0x1800]
  4097bd:	c4 e2 7a 4b 1c 08    	tilestored [rax+rcx*1],tmm3
  4097c3:	48 8d 87 00 1c 00 00 	lea    rax,[rdi+0x1c00]
  4097ca:	c4 e2 7a 4b 24 08    	tilestored [rax+rcx*1],tmm4
  4097d0:	48 8d 87 00 20 00 00 	lea    rax,[rdi+0x2000]
  4097d7:	c4 e2 7a 4b 2c 08    	tilestored [rax+rcx*1],tmm5
  4097dd:	48 81 c7 00 24 00 00 	add    rdi,0x2400
  4097e4:	49 81 c0 00 00 01 00 	add    r8,0x10000
  4097eb:	4c 39 ff             	cmp    rdi,r15
  4097ee:	0f 85 f9 fd ff ff    	jne    4095ed <_ZN12intel_mlperf24_tile_dot_product_16x256ILi9ELi64ENS_9io_policyILi64ELNS_8i_formatE0EEEE7computeEPvmS5_S5_Pff+0x4d>
  4097f4:	48 89 df             	mov    rdi,rbx
  4097f7:	62 51 7c 48 10 16    	vmovups zmm10,ZMMWORD PTR [r14]
  4097fd:	62 51 7c 48 10 4e 01 	vmovups zmm9,ZMMWORD PTR [r14+0x40]
  409804:	62 51 7c 48 10 46 02 	vmovups zmm8,ZMMWORD PTR [r14+0x80]
  40980b:	62 d1 7c 48 10 7e 03 	vmovups zmm7,ZMMWORD PTR [r14+0xc0]
  409812:	48 8b 74 24 b8       	mov    rsi,QWORD PTR [rsp-0x48]
  409817:	62 f2 7d 48 18 35 bf 	vbroadcastss zmm6,DWORD PTR [rip+0x19bf]        # 40b1e0 <__dso_handle+0x1d8>
  40981e:	19 00 00 
  409821:	62 f2 7d 48 18 2d b9 	vbroadcastss zmm5,DWORD PTR [rip+0x19b9]        # 40b1e4 <__dso_handle+0x1dc>
  409828:	19 00 00 
  40982b:	49 8d 8c 24 00 04 00 	lea    rcx,[r12+0x400]
  409832:	00 
  409833:	62 f2 7d 48 18 e4    	vbroadcastss zmm4,xmm4
  409839:	48 c1 e7 04          	shl    rdi,0x4
  40983d:	49 81 c4 00 28 00 00 	add    r12,0x2800
  409844:	48 8d 81 00 fc ff ff 	lea    rax,[rcx-0x400]
  40984b:	48 89 f2             	mov    rdx,rsi
  40984e:	66 90                	xchg   ax,ax
  409850:	62 f1 7c 48 5b 18    	vcvtdq2ps zmm3,ZMMWORD PTR [rax]
  409856:	62 f1 7c 48 5b 90 00 	vcvtdq2ps zmm2,ZMMWORD PTR [rax+0x2400]
  40985d:	24 00 00 
  409860:	62 f1 7c 48 5b 88 00 	vcvtdq2ps zmm1,ZMMWORD PTR [rax+0x4800]
  409867:	48 00 00 
  40986a:	62 f1 7c 48 5b 80 00 	vcvtdq2ps zmm0,ZMMWORD PTR [rax+0x6c00]
  409871:	6c 00 00 
  409874:	62 f1 2c 48 58 db    	vaddps zmm3,zmm10,zmm3
  40987a:	62 f1 34 48 58 d2    	vaddps zmm2,zmm9,zmm2
  409880:	62 f1 3c 48 58 c9    	vaddps zmm1,zmm8,zmm1
  409886:	62 f1 44 48 58 c0    	vaddps zmm0,zmm7,zmm0
  40988c:	62 f1 64 48 59 dc    	vmulps zmm3,zmm3,zmm4
  409892:	62 f1 6c 48 59 d4    	vmulps zmm2,zmm2,zmm4
  409898:	62 f1 74 48 59 cc    	vmulps zmm1,zmm1,zmm4
  40989e:	62 f1 7c 48 59 c4    	vmulps zmm0,zmm0,zmm4
  4098a4:	48 83 c0 40          	add    rax,0x40
  4098a8:	62 f3 7d 48 08 db 00 	vrndscaleps zmm3,zmm3,0x0
  4098af:	62 f3 7d 48 08 d2 00 	vrndscaleps zmm2,zmm2,0x0
  4098b6:	62 f3 7d 48 08 c9 00 	vrndscaleps zmm1,zmm1,0x0
  4098bd:	62 f3 7d 48 08 c0 00 	vrndscaleps zmm0,zmm0,0x0
  4098c4:	62 f1 64 48 5d de    	vminps zmm3,zmm3,zmm6
  4098ca:	62 f1 6c 48 5d d6    	vminps zmm2,zmm2,zmm6
  4098d0:	62 f1 74 48 5d ce    	vminps zmm1,zmm1,zmm6
  4098d6:	62 f1 7c 48 5d c6    	vminps zmm0,zmm0,zmm6
  4098dc:	62 f1 64 48 5f dd    	vmaxps zmm3,zmm3,zmm5
  4098e2:	62 f1 6c 48 5f d5    	vmaxps zmm2,zmm2,zmm5
  4098e8:	62 f1 74 48 5f cd    	vmaxps zmm1,zmm1,zmm5
  4098ee:	62 f1 7c 48 5f c5    	vmaxps zmm0,zmm0,zmm5
  4098f4:	62 f1 7d 48 5b db    	vcvtps2dq zmm3,zmm3
  4098fa:	62 f1 7d 48 5b d2    	vcvtps2dq zmm2,zmm2
  409900:	62 f2 7e 48 31 1a    	vpmovdb XMMWORD PTR [rdx],zmm3
  409906:	62 f2 7e 48 31 52 01 	vpmovdb XMMWORD PTR [rdx+0x10],zmm2
  40990d:	62 f1 7d 48 5b c9    	vcvtps2dq zmm1,zmm1
  409913:	62 f1 7d 48 5b c0    	vcvtps2dq zmm0,zmm0
  409919:	62 f2 7e 48 31 4a 02 	vpmovdb XMMWORD PTR [rdx+0x20],zmm1
  409920:	62 f2 7e 48 31 42 03 	vpmovdb XMMWORD PTR [rdx+0x30],zmm0
  409927:	48 01 da             	add    rdx,rbx
  40992a:	48 39 c1             	cmp    rcx,rax
  40992d:	0f 85 1d ff ff ff    	jne    409850 <_ZN12intel_mlperf24_tile_dot_product_16x256ILi9ELi64ENS_9io_policyILi64ELNS_8i_formatE0EEEE7computeEPvmS5_S5_Pff+0x2b0>
  409933:	48 81 c1 00 04 00 00 	add    rcx,0x400
  40993a:	48 01 fe             	add    rsi,rdi
  40993d:	49 39 cc             	cmp    r12,rcx
  409940:	0f 85 fe fe ff ff    	jne    409844 <_ZN12intel_mlperf24_tile_dot_product_16x256ILi9ELi64ENS_9io_policyILi64ELNS_8i_formatE0EEEE7computeEPvmS5_S5_Pff+0x2a4>
  409946:	c5 f8 77             	vzeroupper 
  409949:	48 8d 65 d8          	lea    rsp,[rbp-0x28]
  40994d:	5b                   	pop    rbx
  40994e:	41 5c                	pop    r12
  409950:	41 5d                	pop    r13
  409952:	41 5e                	pop    r14
  409954:	41 5f                	pop    r15
  409956:	5d                   	pop    rbp
  409957:	c3                   	ret    
  409958:	0f 1f 84 00 00 00 00 	nop    DWORD PTR [rax+rax*1+0x0]
  40995f:	00 

0000000000409960 <_ZN12intel_mlperf8i_linear13compute_blockILi9ELi64EEEvPvmS2_S2_Pff>:
  409960:	48 89 f7             	mov    rdi,rsi
  409963:	48 89 d6             	mov    rsi,rdx
  409966:	48 89 ca             	mov    rdx,rcx
  409969:	4c 89 c1             	mov    rcx,r8
  40996c:	4d 89 c8             	mov    r8,r9
  40996f:	e9 2c fc ff ff       	jmp    4095a0 <_ZN12intel_mlperf24_tile_dot_product_16x256ILi9ELi64ENS_9io_policyILi64ELNS_8i_formatE0EEEE7computeEPvmS5_S5_Pff>
  409974:	66 2e 0f 1f 84 00 00 	cs nop WORD PTR [rax+rax*1+0x0]
  40997b:	00 00 00 
  40997e:	66 90                	xchg   ax,ax

0000000000409980 <_ZN12intel_mlperf24_tile_dot_product_16x256ILi10ELi16ENS_9io_policyILi16ELNS_8i_formatE0EEEE7computeEPvmS5_S5_Pff>:
  409980:	55                   	push   rbp
  409981:	49 89 f1             	mov    r9,rsi
  409984:	c5 f8 28 e0          	vmovaps xmm4,xmm0
  409988:	48 89 e5             	mov    rbp,rsp
  40998b:	41 57                	push   r15
  40998d:	be 00 04 00 00       	mov    esi,0x400
  409992:	41 56                	push   r14
  409994:	4d 89 c6             	mov    r14,r8
  409997:	41 55                	push   r13
  409999:	41 54                	push   r12
  40999b:	4c 8d a1 00 40 00 00 	lea    r12,[rcx+0x4000]
  4099a2:	b9 40 00 00 00       	mov    ecx,0x40
  4099a7:	53                   	push   rbx
  4099a8:	48 83 e4 c0          	and    rsp,0xffffffffffffffc0
  4099ac:	48 81 ec c8 9f 00 00 	sub    rsp,0x9fc8
  4099b3:	48 89 7c 24 b0       	mov    QWORD PTR [rsp-0x50],rdi
  4099b8:	48 8d 7c 24 c8       	lea    rdi,[rsp-0x38]
  4099bd:	48 89 54 24 c0       	mov    QWORD PTR [rsp-0x40],rdx
  4099c2:	48 89 7c 24 b8       	mov    QWORD PTR [rsp-0x48],rdi
  4099c7:	4c 8d bc 24 c8 9f 00 	lea    r15,[rsp+0x9fc8]
  4099ce:	00 
  4099cf:	c4 e2 7b 49 c8       	tilezero tmm1
  4099d4:	c4 e2 7b 49 d0       	tilezero tmm2
  4099d9:	c4 e2 7b 49 d8       	tilezero tmm3
  4099de:	c4 e2 7b 49 e0       	tilezero tmm4
  4099e3:	c4 e2 7b 49 e8       	tilezero tmm5
  4099e8:	c4 e2 7a 4b 0c 0f    	tilestored [rdi+rcx*1],tmm1
  4099ee:	48 8d 9f 00 04 00 00 	lea    rbx,[rdi+0x400]
  4099f5:	c4 e2 7a 4b 0c 0b    	tilestored [rbx+rcx*1],tmm1
  4099fb:	4c 8d 9f 00 08 00 00 	lea    r11,[rdi+0x800]
  409a02:	c4 c2 7a 4b 0c 0b    	tilestored [r11+rcx*1],tmm1
  409a08:	4c 8d 97 00 0c 00 00 	lea    r10,[rdi+0xc00]
  409a0f:	c4 c2 7a 4b 0c 0a    	tilestored [r10+rcx*1],tmm1
  409a15:	4c 8d 87 00 10 00 00 	lea    r8,[rdi+0x1000]
  409a1c:	c4 c2 7a 4b 0c 08    	tilestored [r8+rcx*1],tmm1
  409a22:	48 8b 54 24 c0       	mov    rdx,QWORD PTR [rsp-0x40]
  409a27:	49 8d 84 24 00 c0 ff 	lea    rax,[r12-0x4000]
  409a2e:	ff 
  409a2f:	90                   	nop
  409a30:	c4 e2 7b 4b 3c 08    	tileloadd tmm7,[rax+rcx*1]
  409a36:	c4 e2 7b 4b 34 32    	tileloadd tmm6,[rdx+rsi*1]
  409a3c:	c4 e2 7b 4b 04 0f    	tileloadd tmm0,[rdi+rcx*1]
  409a42:	c4 e2 43 5e c6       	tdpbssd tmm0,tmm6,tmm7
  409a47:	c4 e2 7a 4b 04 0f    	tilestored [rdi+rcx*1],tmm0
  409a4d:	4c 8d aa 00 40 00 00 	lea    r13,[rdx+0x4000]
  409a54:	c4 c2 7b 4b 74 35 00 	tileloadd tmm6,[r13+rsi*1+0x0]
  409a5b:	c4 e2 7b 4b 04 0b    	tileloadd tmm0,[rbx+rcx*1]
  409a61:	c4 e2 43 5e c6       	tdpbssd tmm0,tmm6,tmm7
  409a66:	c4 e2 7a 4b 04 0b    	tilestored [rbx+rcx*1],tmm0
  409a6c:	4c 8d aa 00 80 00 00 	lea    r13,[rdx+0x8000]
  409a73:	c4 c2 7b 4b 74 35 00 	tileloadd tmm6,[r13+rsi*1+0x0]
  409a7a:	c4 c2 7b 4b 04 0b    	tileloadd tmm0,[r11+rcx*1]
  409a80:	c4 e2 43 5e c6       	tdpbssd tmm0,tmm6,tmm7
  409a85:	c4 c2 7a 4b 04 0b    	tilestored [r11+rcx*1],tmm0
  409a8b:	4c 8d aa 00 c0 00 00 	lea    r13,[rdx+0xc000]
  409a92:	c4 c2 7b 4b 74 35 00 	tileloadd tmm6,[r13+rsi*1+0x0]
  409a99:	c4 c2 7b 4b 04 0a    	tileloadd tmm0,[r10+rcx*1]
  409a9f:	c4 e2 43 5e c6       	tdpbssd tmm0,tmm6,tmm7
  409aa4:	c4 c2 7a 4b 04 0a    	tilestored [r10+rcx*1],tmm0
  409aaa:	4c 8d aa 00 00 01 00 	lea    r13,[rdx+0x10000]
  409ab1:	c4 c2 7b 4b 74 35 00 	tileloadd tmm6,[r13+rsi*1+0x0]
  409ab8:	c4 c2 7b 4b 04 08    	tileloadd tmm0,[r8+rcx*1]
  409abe:	c4 e2 43 5e c6       	tdpbssd tmm0,tmm6,tmm7
  409ac3:	c4 c2 7a 4b 04 08    	tilestored [r8+rcx*1],tmm0
  409ac9:	4c 8d aa 00 40 01 00 	lea    r13,[rdx+0x14000]
  409ad0:	0f 18 88 40 04 00 00 	prefetcht0 BYTE PTR [rax+0x440]
  409ad7:	0f 18 88 80 04 00 00 	prefetcht0 BYTE PTR [rax+0x480]
  409ade:	0f 18 88 c0 04 00 00 	prefetcht0 BYTE PTR [rax+0x4c0]
  409ae5:	c4 c2 7b 4b 74 35 00 	tileloadd tmm6,[r13+rsi*1+0x0]
  409aec:	c4 e2 43 5e ce       	tdpbssd tmm1,tmm6,tmm7
  409af1:	4c 8d aa 00 80 01 00 	lea    r13,[rdx+0x18000]
  409af8:	0f 18 88 00 05 00 00 	prefetcht0 BYTE PTR [rax+0x500]
  409aff:	0f 18 88 40 05 00 00 	prefetcht0 BYTE PTR [rax+0x540]
  409b06:	0f 18 88 80 05 00 00 	prefetcht0 BYTE PTR [rax+0x580]
  409b0d:	c4 c2 7b 4b 74 35 00 	tileloadd tmm6,[r13+rsi*1+0x0]
  409b14:	c4 e2 43 5e d6       	tdpbssd tmm2,tmm6,tmm7
  409b19:	4c 8d aa 00 c0 01 00 	lea    r13,[rdx+0x1c000]
  409b20:	0f 18 88 c0 05 00 00 	prefetcht0 BYTE PTR [rax+0x5c0]
  409b27:	0f 18 88 00 06 00 00 	prefetcht0 BYTE PTR [rax+0x600]
  409b2e:	0f 18 88 40 06 00 00 	prefetcht0 BYTE PTR [rax+0x640]
  409b35:	c4 c2 7b 4b 74 35 00 	tileloadd tmm6,[r13+rsi*1+0x0]
  409b3c:	c4 e2 43 5e de       	tdpbssd tmm3,tmm6,tmm7
  409b41:	4c 8d aa 00 00 02 00 	lea    r13,[rdx+0x20000]
  409b48:	0f 18 88 80 06 00 00 	prefetcht0 BYTE PTR [rax+0x680]
  409b4f:	0f 18 88 c0 06 00 00 	prefetcht0 BYTE PTR [rax+0x6c0]
  409b56:	0f 18 88 00 07 00 00 	prefetcht0 BYTE PTR [rax+0x700]
  409b5d:	c4 c2 7b 4b 74 35 00 	tileloadd tmm6,[r13+rsi*1+0x0]
  409b64:	c4 e2 43 5e e6       	tdpbssd tmm4,tmm6,tmm7
  409b69:	4c 8d aa 00 40 02 00 	lea    r13,[rdx+0x24000]
  409b70:	0f 18 88 40 07 00 00 	prefetcht0 BYTE PTR [rax+0x740]
  409b77:	0f 18 88 80 07 00 00 	prefetcht0 BYTE PTR [rax+0x780]
  409b7e:	0f 18 88 c0 07 00 00 	prefetcht0 BYTE PTR [rax+0x7c0]
  409b85:	c4 c2 7b 4b 74 35 00 	tileloadd tmm6,[r13+rsi*1+0x0]
  409b8c:	c4 e2 43 5e ee       	tdpbssd tmm5,tmm6,tmm7
  409b91:	0f 18 88 00 08 00 00 	prefetcht0 BYTE PTR [rax+0x800]
  409b98:	48 05 00 04 00 00    	add    rax,0x400
  409b9e:	48 83 c2 40          	add    rdx,0x40
  409ba2:	49 39 c4             	cmp    r12,rax
  409ba5:	0f 85 85 fe ff ff    	jne    409a30 <_ZN12intel_mlperf24_tile_dot_product_16x256ILi10ELi16ENS_9io_policyILi16ELNS_8i_formatE0EEEE7computeEPvmS5_S5_Pff+0xb0>
  409bab:	48 8d 87 00 14 00 00 	lea    rax,[rdi+0x1400]
  409bb2:	c4 e2 7a 4b 0c 08    	tilestored [rax+rcx*1],tmm1
  409bb8:	48 8d 87 00 18 00 00 	lea    rax,[rdi+0x1800]
  409bbf:	c4 e2 7a 4b 14 08    	tilestored [rax+rcx*1],tmm2
  409bc5:	48 8d 87 00 1c 00 00 	lea    rax,[rdi+0x1c00]
  409bcc:	c4 e2 7a 4b 1c 08    	tilestored [rax+rcx*1],tmm3
  409bd2:	48 8d 87 00 20 00 00 	lea    rax,[rdi+0x2000]
  409bd9:	c4 e2 7a 4b 24 08    	tilestored [rax+rcx*1],tmm4
  409bdf:	48 8d 87 00 24 00 00 	lea    rax,[rdi+0x2400]
  409be6:	c4 e2 7a 4b 2c 08    	tilestored [rax+rcx*1],tmm5
  409bec:	48 81 c7 00 28 00 00 	add    rdi,0x2800
  409bf3:	49 81 c4 00 40 00 00 	add    r12,0x4000
  409bfa:	4c 39 ff             	cmp    rdi,r15
  409bfd:	0f 85 cc fd ff ff    	jne    4099cf <_ZN12intel_mlperf24_tile_dot_product_16x256ILi10ELi16ENS_9io_policyILi16ELNS_8i_formatE0EEEE7computeEPvmS5_S5_Pff+0x4f>
  409c03:	48 8b 44 24 b8       	mov    rax,QWORD PTR [rsp-0x48]
  409c08:	4d 89 c8             	mov    r8,r9
  409c0b:	62 51 7c 48 10 16    	vmovups zmm10,ZMMWORD PTR [r14]
  409c11:	62 51 7c 48 10 4e 01 	vmovups zmm9,ZMMWORD PTR [r14+0x40]
  409c18:	62 51 7c 48 10 46 02 	vmovups zmm8,ZMMWORD PTR [r14+0x80]
  409c1f:	62 d1 7c 48 10 7e 03 	vmovups zmm7,ZMMWORD PTR [r14+0xc0]
  409c26:	48 8b 74 24 b0       	mov    rsi,QWORD PTR [rsp-0x50]
  409c2b:	62 f2 7d 48 18 35 ab 	vbroadcastss zmm6,DWORD PTR [rip+0x15ab]        # 40b1e0 <__dso_handle+0x1d8>
  409c32:	15 00 00 
  409c35:	62 f2 7d 48 18 2d a5 	vbroadcastss zmm5,DWORD PTR [rip+0x15a5]        # 40b1e4 <__dso_handle+0x1dc>
  409c3c:	15 00 00 
  409c3f:	62 f2 7d 48 18 e4    	vbroadcastss zmm4,xmm4
  409c45:	49 c1 e0 04          	shl    r8,0x4
  409c49:	48 8d 88 00 04 00 00 	lea    rcx,[rax+0x400]
  409c50:	48 8d b8 00 2c 00 00 	lea    rdi,[rax+0x2c00]
  409c57:	66 0f 1f 84 00 00 00 	nop    WORD PTR [rax+rax*1+0x0]
  409c5e:	00 00 
  409c60:	48 8d 81 00 fc ff ff 	lea    rax,[rcx-0x400]
  409c67:	48 89 f2             	mov    rdx,rsi
  409c6a:	66 0f 1f 44 00 00    	nop    WORD PTR [rax+rax*1+0x0]
  409c70:	62 f1 7c 48 5b 18    	vcvtdq2ps zmm3,ZMMWORD PTR [rax]
  409c76:	62 f1 7c 48 5b 90 00 	vcvtdq2ps zmm2,ZMMWORD PTR [rax+0x2800]
  409c7d:	28 00 00 
  409c80:	62 f1 7c 48 5b 88 00 	vcvtdq2ps zmm1,ZMMWORD PTR [rax+0x5000]
  409c87:	50 00 00 
  409c8a:	62 f1 7c 48 5b 80 00 	vcvtdq2ps zmm0,ZMMWORD PTR [rax+0x7800]
  409c91:	78 00 00 
  409c94:	62 f1 2c 48 58 db    	vaddps zmm3,zmm10,zmm3
  409c9a:	62 f1 34 48 58 d2    	vaddps zmm2,zmm9,zmm2
  409ca0:	62 f1 3c 48 58 c9    	vaddps zmm1,zmm8,zmm1
  409ca6:	62 f1 44 48 58 c0    	vaddps zmm0,zmm7,zmm0
  409cac:	62 f1 64 48 59 dc    	vmulps zmm3,zmm3,zmm4
  409cb2:	62 f1 6c 48 59 d4    	vmulps zmm2,zmm2,zmm4
  409cb8:	62 f1 74 48 59 cc    	vmulps zmm1,zmm1,zmm4
  409cbe:	62 f1 7c 48 59 c4    	vmulps zmm0,zmm0,zmm4
  409cc4:	48 83 c0 40          	add    rax,0x40
  409cc8:	62 f3 7d 48 08 db 00 	vrndscaleps zmm3,zmm3,0x0
  409ccf:	62 f3 7d 48 08 d2 00 	vrndscaleps zmm2,zmm2,0x0
  409cd6:	62 f3 7d 48 08 c9 00 	vrndscaleps zmm1,zmm1,0x0
  409cdd:	62 f3 7d 48 08 c0 00 	vrndscaleps zmm0,zmm0,0x0
  409ce4:	62 f1 64 48 5d de    	vminps zmm3,zmm3,zmm6
  409cea:	62 f1 6c 48 5d d6    	vminps zmm2,zmm2,zmm6
  409cf0:	62 f1 74 48 5d ce    	vminps zmm1,zmm1,zmm6
  409cf6:	62 f1 7c 48 5d c6    	vminps zmm0,zmm0,zmm6
  409cfc:	62 f1 64 48 5f dd    	vmaxps zmm3,zmm3,zmm5
  409d02:	62 f1 6c 48 5f d5    	vmaxps zmm2,zmm2,zmm5
  409d08:	62 f1 74 48 5f cd    	vmaxps zmm1,zmm1,zmm5
  409d0e:	62 f1 7c 48 5f c5    	vmaxps zmm0,zmm0,zmm5
  409d14:	62 f1 7d 48 5b db    	vcvtps2dq zmm3,zmm3
  409d1a:	62 f1 7d 48 5b d2    	vcvtps2dq zmm2,zmm2
  409d20:	62 f2 7e 48 31 1a    	vpmovdb XMMWORD PTR [rdx],zmm3
  409d26:	62 f2 7e 48 31 52 01 	vpmovdb XMMWORD PTR [rdx+0x10],zmm2
  409d2d:	62 f1 7d 48 5b c9    	vcvtps2dq zmm1,zmm1
  409d33:	62 f1 7d 48 5b c0    	vcvtps2dq zmm0,zmm0
  409d39:	62 f2 7e 48 31 4a 02 	vpmovdb XMMWORD PTR [rdx+0x20],zmm1
  409d40:	62 f2 7e 48 31 42 03 	vpmovdb XMMWORD PTR [rdx+0x30],zmm0
  409d47:	4c 01 ca             	add    rdx,r9
  409d4a:	48 39 c1             	cmp    rcx,rax
  409d4d:	0f 85 1d ff ff ff    	jne    409c70 <_ZN12intel_mlperf24_tile_dot_product_16x256ILi10ELi16ENS_9io_policyILi16ELNS_8i_formatE0EEEE7computeEPvmS5_S5_Pff+0x2f0>
  409d53:	48 81 c1 00 04 00 00 	add    rcx,0x400
  409d5a:	4c 01 c6             	add    rsi,r8
  409d5d:	48 39 cf             	cmp    rdi,rcx
  409d60:	0f 85 fa fe ff ff    	jne    409c60 <_ZN12intel_mlperf24_tile_dot_product_16x256ILi10ELi16ENS_9io_policyILi16ELNS_8i_formatE0EEEE7computeEPvmS5_S5_Pff+0x2e0>
  409d66:	c5 f8 77             	vzeroupper 
  409d69:	48 8d 65 d8          	lea    rsp,[rbp-0x28]
  409d6d:	5b                   	pop    rbx
  409d6e:	41 5c                	pop    r12
  409d70:	41 5d                	pop    r13
  409d72:	41 5e                	pop    r14
  409d74:	41 5f                	pop    r15
  409d76:	5d                   	pop    rbp
  409d77:	c3                   	ret    
  409d78:	0f 1f 84 00 00 00 00 	nop    DWORD PTR [rax+rax*1+0x0]
  409d7f:	00 

0000000000409d80 <_ZN12intel_mlperf8i_linear13compute_blockILi10ELi16EEEvPvmS2_S2_Pff>:
  409d80:	48 89 f7             	mov    rdi,rsi
  409d83:	48 89 d6             	mov    rsi,rdx
  409d86:	48 89 ca             	mov    rdx,rcx
  409d89:	4c 89 c1             	mov    rcx,r8
  409d8c:	4d 89 c8             	mov    r8,r9
  409d8f:	e9 ec fb ff ff       	jmp    409980 <_ZN12intel_mlperf24_tile_dot_product_16x256ILi10ELi16ENS_9io_policyILi16ELNS_8i_formatE0EEEE7computeEPvmS5_S5_Pff>
  409d94:	66 2e 0f 1f 84 00 00 	cs nop WORD PTR [rax+rax*1+0x0]
  409d9b:	00 00 00 
  409d9e:	66 90                	xchg   ax,ax

0000000000409da0 <_ZN12intel_mlperf24_tile_dot_product_16x256ILi10ELi64ENS_9io_policyILi64ELNS_8i_formatE0EEEE7computeEPvmS5_S5_Pff>:
  409da0:	55                   	push   rbp
  409da1:	c5 f8 28 e0          	vmovaps xmm4,xmm0
  409da5:	48 89 e5             	mov    rbp,rsp
  409da8:	41 57                	push   r15
  409daa:	41 56                	push   r14
  409dac:	4d 89 c6             	mov    r14,r8
  409daf:	41 55                	push   r13
  409db1:	41 54                	push   r12
  409db3:	49 89 f4             	mov    r12,rsi
  409db6:	be 00 10 00 00       	mov    esi,0x1000
  409dbb:	53                   	push   rbx
  409dbc:	48 8d 99 00 00 01 00 	lea    rbx,[rcx+0x10000]
  409dc3:	b9 40 00 00 00       	mov    ecx,0x40
  409dc8:	48 83 e4 c0          	and    rsp,0xffffffffffffffc0
  409dcc:	48 81 ec c8 9f 00 00 	sub    rsp,0x9fc8
  409dd3:	48 8d 84 24 c8 9f 00 	lea    rax,[rsp+0x9fc8]
  409dda:	00 
  409ddb:	48 89 54 24 b8       	mov    QWORD PTR [rsp-0x48],rdx
  409de0:	48 89 44 24 c0       	mov    QWORD PTR [rsp-0x40],rax
  409de5:	4c 8d 6c 24 c8       	lea    r13,[rsp-0x38]
  409dea:	48 89 7c 24 b0       	mov    QWORD PTR [rsp-0x50],rdi
  409def:	4c 89 ef             	mov    rdi,r13
  409df2:	c4 e2 7b 49 c8       	tilezero tmm1
  409df7:	c4 e2 7b 49 d0       	tilezero tmm2
  409dfc:	c4 e2 7b 49 d8       	tilezero tmm3
  409e01:	c4 e2 7b 49 e0       	tilezero tmm4
  409e06:	c4 e2 7b 49 e8       	tilezero tmm5
  409e0b:	c4 e2 7a 4b 0c 0f    	tilestored [rdi+rcx*1],tmm1
  409e11:	4c 8d 9f 00 04 00 00 	lea    r11,[rdi+0x400]
  409e18:	c4 c2 7a 4b 0c 0b    	tilestored [r11+rcx*1],tmm1
  409e1e:	4c 8d 97 00 08 00 00 	lea    r10,[rdi+0x800]
  409e25:	c4 c2 7a 4b 0c 0a    	tilestored [r10+rcx*1],tmm1
  409e2b:	4c 8d 8f 00 0c 00 00 	lea    r9,[rdi+0xc00]
  409e32:	c4 c2 7a 4b 0c 09    	tilestored [r9+rcx*1],tmm1
  409e38:	4c 8d 87 00 10 00 00 	lea    r8,[rdi+0x1000]
  409e3f:	c4 c2 7a 4b 0c 08    	tilestored [r8+rcx*1],tmm1
  409e45:	48 8b 54 24 b8       	mov    rdx,QWORD PTR [rsp-0x48]
  409e4a:	48 8d 83 00 00 ff ff 	lea    rax,[rbx-0x10000]
  409e51:	0f 1f 80 00 00 00 00 	nop    DWORD PTR [rax+0x0]
  409e58:	c4 e2 7b 4b 3c 08    	tileloadd tmm7,[rax+rcx*1]
  409e5e:	c4 e2 7b 4b 34 32    	tileloadd tmm6,[rdx+rsi*1]
  409e64:	c4 e2 7b 4b 04 0f    	tileloadd tmm0,[rdi+rcx*1]
  409e6a:	c4 e2 43 5e c6       	tdpbssd tmm0,tmm6,tmm7
  409e6f:	c4 e2 7a 4b 04 0f    	tilestored [rdi+rcx*1],tmm0
  409e75:	4c 8d ba 00 00 01 00 	lea    r15,[rdx+0x10000]
  409e7c:	c4 c2 7b 4b 34 37    	tileloadd tmm6,[r15+rsi*1]
  409e82:	c4 c2 7b 4b 04 0b    	tileloadd tmm0,[r11+rcx*1]
  409e88:	c4 e2 43 5e c6       	tdpbssd tmm0,tmm6,tmm7
  409e8d:	c4 c2 7a 4b 04 0b    	tilestored [r11+rcx*1],tmm0
  409e93:	4c 8d ba 00 00 02 00 	lea    r15,[rdx+0x20000]
  409e9a:	c4 c2 7b 4b 34 37    	tileloadd tmm6,[r15+rsi*1]
  409ea0:	c4 c2 7b 4b 04 0a    	tileloadd tmm0,[r10+rcx*1]
  409ea6:	c4 e2 43 5e c6       	tdpbssd tmm0,tmm6,tmm7
  409eab:	c4 c2 7a 4b 04 0a    	tilestored [r10+rcx*1],tmm0
  409eb1:	4c 8d ba 00 00 03 00 	lea    r15,[rdx+0x30000]
  409eb8:	c4 c2 7b 4b 34 37    	tileloadd tmm6,[r15+rsi*1]
  409ebe:	c4 c2 7b 4b 04 09    	tileloadd tmm0,[r9+rcx*1]
  409ec4:	c4 e2 43 5e c6       	tdpbssd tmm0,tmm6,tmm7
  409ec9:	c4 c2 7a 4b 04 09    	tilestored [r9+rcx*1],tmm0
  409ecf:	4c 8d ba 00 00 04 00 	lea    r15,[rdx+0x40000]
  409ed6:	c4 c2 7b 4b 34 37    	tileloadd tmm6,[r15+rsi*1]
  409edc:	c4 c2 7b 4b 04 08    	tileloadd tmm0,[r8+rcx*1]
  409ee2:	c4 e2 43 5e c6       	tdpbssd tmm0,tmm6,tmm7
  409ee7:	c4 c2 7a 4b 04 08    	tilestored [r8+rcx*1],tmm0
  409eed:	4c 8d ba 00 00 05 00 	lea    r15,[rdx+0x50000]
  409ef4:	0f 18 88 40 04 00 00 	prefetcht0 BYTE PTR [rax+0x440]
  409efb:	0f 18 88 80 04 00 00 	prefetcht0 BYTE PTR [rax+0x480]
  409f02:	0f 18 88 c0 04 00 00 	prefetcht0 BYTE PTR [rax+0x4c0]
  409f09:	c4 c2 7b 4b 34 37    	tileloadd tmm6,[r15+rsi*1]
  409f0f:	c4 e2 43 5e ce       	tdpbssd tmm1,tmm6,tmm7
  409f14:	4c 8d ba 00 00 06 00 	lea    r15,[rdx+0x60000]
  409f1b:	0f 18 88 00 05 00 00 	prefetcht0 BYTE PTR [rax+0x500]
  409f22:	0f 18 88 40 05 00 00 	prefetcht0 BYTE PTR [rax+0x540]
  409f29:	0f 18 88 80 05 00 00 	prefetcht0 BYTE PTR [rax+0x580]
  409f30:	c4 c2 7b 4b 34 37    	tileloadd tmm6,[r15+rsi*1]
  409f36:	c4 e2 43 5e d6       	tdpbssd tmm2,tmm6,tmm7
  409f3b:	4c 8d ba 00 00 07 00 	lea    r15,[rdx+0x70000]
  409f42:	0f 18 88 c0 05 00 00 	prefetcht0 BYTE PTR [rax+0x5c0]
  409f49:	0f 18 88 00 06 00 00 	prefetcht0 BYTE PTR [rax+0x600]
  409f50:	0f 18 88 40 06 00 00 	prefetcht0 BYTE PTR [rax+0x640]
  409f57:	c4 c2 7b 4b 34 37    	tileloadd tmm6,[r15+rsi*1]
  409f5d:	c4 e2 43 5e de       	tdpbssd tmm3,tmm6,tmm7
  409f62:	4c 8d ba 00 00 08 00 	lea    r15,[rdx+0x80000]
  409f69:	0f 18 88 80 06 00 00 	prefetcht0 BYTE PTR [rax+0x680]
  409f70:	0f 18 88 c0 06 00 00 	prefetcht0 BYTE PTR [rax+0x6c0]
  409f77:	0f 18 88 00 07 00 00 	prefetcht0 BYTE PTR [rax+0x700]
  409f7e:	c4 c2 7b 4b 34 37    	tileloadd tmm6,[r15+rsi*1]
  409f84:	c4 e2 43 5e e6       	tdpbssd tmm4,tmm6,tmm7
  409f89:	4c 8d ba 00 00 09 00 	lea    r15,[rdx+0x90000]
  409f90:	0f 18 88 40 07 00 00 	prefetcht0 BYTE PTR [rax+0x740]
  409f97:	0f 18 88 80 07 00 00 	prefetcht0 BYTE PTR [rax+0x780]
  409f9e:	0f 18 88 c0 07 00 00 	prefetcht0 BYTE PTR [rax+0x7c0]
  409fa5:	c4 c2 7b 4b 34 37    	tileloadd tmm6,[r15+rsi*1]
  409fab:	c4 e2 43 5e ee       	tdpbssd tmm5,tmm6,tmm7
  409fb0:	0f 18 88 00 08 00 00 	prefetcht0 BYTE PTR [rax+0x800]
  409fb7:	48 05 00 04 00 00    	add    rax,0x400
  409fbd:	48 83 c2 40          	add    rdx,0x40
  409fc1:	48 39 c3             	cmp    rbx,rax
  409fc4:	0f 85 8e fe ff ff    	jne    409e58 <_ZN12intel_mlperf24_tile_dot_product_16x256ILi10ELi64ENS_9io_policyILi64ELNS_8i_formatE0EEEE7computeEPvmS5_S5_Pff+0xb8>
  409fca:	48 8d 87 00 14 00 00 	lea    rax,[rdi+0x1400]
  409fd1:	c4 e2 7a 4b 0c 08    	tilestored [rax+rcx*1],tmm1
  409fd7:	48 8d 87 00 18 00 00 	lea    rax,[rdi+0x1800]
  409fde:	c4 e2 7a 4b 14 08    	tilestored [rax+rcx*1],tmm2
  409fe4:	48 8d 87 00 1c 00 00 	lea    rax,[rdi+0x1c00]
  409feb:	c4 e2 7a 4b 1c 08    	tilestored [rax+rcx*1],tmm3
  409ff1:	48 8d 87 00 20 00 00 	lea    rax,[rdi+0x2000]
  409ff8:	c4 e2 7a 4b 24 08    	tilestored [rax+rcx*1],tmm4
  409ffe:	48 8d 87 00 24 00 00 	lea    rax,[rdi+0x2400]
  40a005:	c4 e2 7a 4b 2c 08    	tilestored [rax+rcx*1],tmm5
  40a00b:	48 81 c7 00 28 00 00 	add    rdi,0x2800
  40a012:	48 81 c3 00 00 01 00 	add    rbx,0x10000
  40a019:	48 3b 7c 24 c0       	cmp    rdi,QWORD PTR [rsp-0x40]
  40a01e:	0f 85 ce fd ff ff    	jne    409df2 <_ZN12intel_mlperf24_tile_dot_product_16x256ILi10ELi64ENS_9io_policyILi64ELNS_8i_formatE0EEEE7computeEPvmS5_S5_Pff+0x52>
  40a024:	4c 89 e7             	mov    rdi,r12
  40a027:	62 51 7c 48 10 16    	vmovups zmm10,ZMMWORD PTR [r14]
  40a02d:	62 51 7c 48 10 4e 01 	vmovups zmm9,ZMMWORD PTR [r14+0x40]
  40a034:	62 51 7c 48 10 46 02 	vmovups zmm8,ZMMWORD PTR [r14+0x80]
  40a03b:	62 d1 7c 48 10 7e 03 	vmovups zmm7,ZMMWORD PTR [r14+0xc0]
  40a042:	48 8b 74 24 b0       	mov    rsi,QWORD PTR [rsp-0x50]
  40a047:	62 f2 7d 48 18 35 8f 	vbroadcastss zmm6,DWORD PTR [rip+0x118f]        # 40b1e0 <__dso_handle+0x1d8>
  40a04e:	11 00 00 
  40a051:	62 f2 7d 48 18 2d 89 	vbroadcastss zmm5,DWORD PTR [rip+0x1189]        # 40b1e4 <__dso_handle+0x1dc>
  40a058:	11 00 00 
  40a05b:	49 8d 8d 00 04 00 00 	lea    rcx,[r13+0x400]
  40a062:	62 f2 7d 48 18 e4    	vbroadcastss zmm4,xmm4
  40a068:	48 c1 e7 04          	shl    rdi,0x4
  40a06c:	49 81 c5 00 2c 00 00 	add    r13,0x2c00
  40a073:	48 8d 81 00 fc ff ff 	lea    rax,[rcx-0x400]
  40a07a:	48 89 f2             	mov    rdx,rsi
  40a07d:	0f 1f 00             	nop    DWORD PTR [rax]
  40a080:	62 f1 7c 48 5b 18    	vcvtdq2ps zmm3,ZMMWORD PTR [rax]
  40a086:	62 f1 7c 48 5b 90 00 	vcvtdq2ps zmm2,ZMMWORD PTR [rax+0x2800]
  40a08d:	28 00 00 
  40a090:	62 f1 7c 48 5b 88 00 	vcvtdq2ps zmm1,ZMMWORD PTR [rax+0x5000]
  40a097:	50 00 00 
  40a09a:	62 f1 7c 48 5b 80 00 	vcvtdq2ps zmm0,ZMMWORD PTR [rax+0x7800]
  40a0a1:	78 00 00 
  40a0a4:	62 f1 2c 48 58 db    	vaddps zmm3,zmm10,zmm3
  40a0aa:	62 f1 34 48 58 d2    	vaddps zmm2,zmm9,zmm2
  40a0b0:	62 f1 3c 48 58 c9    	vaddps zmm1,zmm8,zmm1
  40a0b6:	62 f1 44 48 58 c0    	vaddps zmm0,zmm7,zmm0
  40a0bc:	62 f1 64 48 59 dc    	vmulps zmm3,zmm3,zmm4
  40a0c2:	62 f1 6c 48 59 d4    	vmulps zmm2,zmm2,zmm4
  40a0c8:	62 f1 74 48 59 cc    	vmulps zmm1,zmm1,zmm4
  40a0ce:	62 f1 7c 48 59 c4    	vmulps zmm0,zmm0,zmm4
  40a0d4:	48 83 c0 40          	add    rax,0x40
  40a0d8:	62 f3 7d 48 08 db 00 	vrndscaleps zmm3,zmm3,0x0
  40a0df:	62 f3 7d 48 08 d2 00 	vrndscaleps zmm2,zmm2,0x0
  40a0e6:	62 f3 7d 48 08 c9 00 	vrndscaleps zmm1,zmm1,0x0
  40a0ed:	62 f3 7d 48 08 c0 00 	vrndscaleps zmm0,zmm0,0x0
  40a0f4:	62 f1 64 48 5d de    	vminps zmm3,zmm3,zmm6
  40a0fa:	62 f1 6c 48 5d d6    	vminps zmm2,zmm2,zmm6
  40a100:	62 f1 74 48 5d ce    	vminps zmm1,zmm1,zmm6
  40a106:	62 f1 7c 48 5d c6    	vminps zmm0,zmm0,zmm6
  40a10c:	62 f1 64 48 5f dd    	vmaxps zmm3,zmm3,zmm5
  40a112:	62 f1 6c 48 5f d5    	vmaxps zmm2,zmm2,zmm5
  40a118:	62 f1 74 48 5f cd    	vmaxps zmm1,zmm1,zmm5
  40a11e:	62 f1 7c 48 5f c5    	vmaxps zmm0,zmm0,zmm5
  40a124:	62 f1 7d 48 5b db    	vcvtps2dq zmm3,zmm3
  40a12a:	62 f1 7d 48 5b d2    	vcvtps2dq zmm2,zmm2
  40a130:	62 f2 7e 48 31 1a    	vpmovdb XMMWORD PTR [rdx],zmm3
  40a136:	62 f2 7e 48 31 52 01 	vpmovdb XMMWORD PTR [rdx+0x10],zmm2
  40a13d:	62 f1 7d 48 5b c9    	vcvtps2dq zmm1,zmm1
  40a143:	62 f1 7d 48 5b c0    	vcvtps2dq zmm0,zmm0
  40a149:	62 f2 7e 48 31 4a 02 	vpmovdb XMMWORD PTR [rdx+0x20],zmm1
  40a150:	62 f2 7e 48 31 42 03 	vpmovdb XMMWORD PTR [rdx+0x30],zmm0
  40a157:	4c 01 e2             	add    rdx,r12
  40a15a:	48 39 c1             	cmp    rcx,rax
  40a15d:	0f 85 1d ff ff ff    	jne    40a080 <_ZN12intel_mlperf24_tile_dot_product_16x256ILi10ELi64ENS_9io_policyILi64ELNS_8i_formatE0EEEE7computeEPvmS5_S5_Pff+0x2e0>
  40a163:	48 81 c1 00 04 00 00 	add    rcx,0x400
  40a16a:	48 01 fe             	add    rsi,rdi
  40a16d:	49 39 cd             	cmp    r13,rcx
  40a170:	0f 85 fd fe ff ff    	jne    40a073 <_ZN12intel_mlperf24_tile_dot_product_16x256ILi10ELi64ENS_9io_policyILi64ELNS_8i_formatE0EEEE7computeEPvmS5_S5_Pff+0x2d3>
  40a176:	c5 f8 77             	vzeroupper 
  40a179:	48 8d 65 d8          	lea    rsp,[rbp-0x28]
  40a17d:	5b                   	pop    rbx
  40a17e:	41 5c                	pop    r12
  40a180:	41 5d                	pop    r13
  40a182:	41 5e                	pop    r14
  40a184:	41 5f                	pop    r15
  40a186:	5d                   	pop    rbp
  40a187:	c3                   	ret    
  40a188:	0f 1f 84 00 00 00 00 	nop    DWORD PTR [rax+rax*1+0x0]
  40a18f:	00 

000000000040a190 <_ZN12intel_mlperf8i_linear13compute_blockILi10ELi64EEEvPvmS2_S2_Pff>:
  40a190:	48 89 f7             	mov    rdi,rsi
  40a193:	48 89 d6             	mov    rsi,rdx
  40a196:	48 89 ca             	mov    rdx,rcx
  40a199:	4c 89 c1             	mov    rcx,r8
  40a19c:	4d 89 c8             	mov    r8,r9
  40a19f:	e9 fc fb ff ff       	jmp    409da0 <_ZN12intel_mlperf24_tile_dot_product_16x256ILi10ELi64ENS_9io_policyILi64ELNS_8i_formatE0EEEE7computeEPvmS5_S5_Pff>
  40a1a4:	66 2e 0f 1f 84 00 00 	cs nop WORD PTR [rax+rax*1+0x0]
  40a1ab:	00 00 00 
  40a1ae:	66 90                	xchg   ax,ax

000000000040a1b0 <_ZN12intel_mlperf24_tile_dot_product_16x256ILi11ELi16ENS_9io_policyILi16ELNS_8i_formatE0EEEE7computeEPvmS5_S5_Pff>:
  40a1b0:	55                   	push   rbp
  40a1b1:	c5 f8 28 e0          	vmovaps xmm4,xmm0
  40a1b5:	48 89 e5             	mov    rbp,rsp
  40a1b8:	41 57                	push   r15
  40a1ba:	41 56                	push   r14
  40a1bc:	41 55                	push   r13
  40a1be:	4c 8d a9 00 40 00 00 	lea    r13,[rcx+0x4000]
  40a1c5:	41 54                	push   r12
  40a1c7:	53                   	push   rbx
  40a1c8:	48 83 e4 c0          	and    rsp,0xffffffffffffffc0
  40a1cc:	48 81 ec c8 af 00 00 	sub    rsp,0xafc8
  40a1d3:	4c 8d 4c 24 c8       	lea    r9,[rsp-0x38]
  40a1d8:	4c 89 44 24 a8       	mov    QWORD PTR [rsp-0x58],r8
  40a1dd:	4c 89 4c 24 b8       	mov    QWORD PTR [rsp-0x48],r9
  40a1e2:	48 89 7c 24 b0       	mov    QWORD PTR [rsp-0x50],rdi
  40a1e7:	48 89 54 24 c0       	mov    QWORD PTR [rsp-0x40],rdx
  40a1ec:	48 89 f7             	mov    rdi,rsi
  40a1ef:	4c 8d bc 24 c8 af 00 	lea    r15,[rsp+0xafc8]
  40a1f6:	00 
  40a1f7:	ba 40 00 00 00       	mov    edx,0x40
  40a1fc:	be 00 04 00 00       	mov    esi,0x400
  40a201:	c4 e2 7b 49 c8       	tilezero tmm1
  40a206:	c4 e2 7b 49 d0       	tilezero tmm2
  40a20b:	c4 e2 7b 49 d8       	tilezero tmm3
  40a210:	c4 e2 7b 49 e0       	tilezero tmm4
  40a215:	c4 e2 7b 49 e8       	tilezero tmm5
  40a21a:	c4 c2 7a 4b 0c 11    	tilestored [r9+rdx*1],tmm1
  40a220:	4d 8d a1 00 04 00 00 	lea    r12,[r9+0x400]
  40a227:	c4 c2 7a 4b 0c 14    	tilestored [r12+rdx*1],tmm1
  40a22d:	49 8d 99 00 08 00 00 	lea    rbx,[r9+0x800]
  40a234:	c4 e2 7a 4b 0c 13    	tilestored [rbx+rdx*1],tmm1
  40a23a:	4d 8d 99 00 0c 00 00 	lea    r11,[r9+0xc00]
  40a241:	c4 c2 7a 4b 0c 13    	tilestored [r11+rdx*1],tmm1
  40a247:	4d 8d 91 00 10 00 00 	lea    r10,[r9+0x1000]
  40a24e:	c4 c2 7a 4b 0c 12    	tilestored [r10+rdx*1],tmm1
  40a254:	4d 8d 81 00 14 00 00 	lea    r8,[r9+0x1400]
  40a25b:	c4 c2 7a 4b 0c 10    	tilestored [r8+rdx*1],tmm1
  40a261:	48 8b 4c 24 c0       	mov    rcx,QWORD PTR [rsp-0x40]
  40a266:	49 8d 85 00 c0 ff ff 	lea    rax,[r13-0x4000]
  40a26d:	0f 1f 00             	nop    DWORD PTR [rax]
  40a270:	c4 e2 7b 4b 3c 10    	tileloadd tmm7,[rax+rdx*1]
  40a276:	c4 e2 7b 4b 34 31    	tileloadd tmm6,[rcx+rsi*1]
  40a27c:	c4 c2 7b 4b 04 11    	tileloadd tmm0,[r9+rdx*1]
  40a282:	c4 e2 43 5e c6       	tdpbssd tmm0,tmm6,tmm7
  40a287:	c4 c2 7a 4b 04 11    	tilestored [r9+rdx*1],tmm0
  40a28d:	4c 8d b1 00 40 00 00 	lea    r14,[rcx+0x4000]
  40a294:	c4 c2 7b 4b 34 36    	tileloadd tmm6,[r14+rsi*1]
  40a29a:	c4 c2 7b 4b 04 14    	tileloadd tmm0,[r12+rdx*1]
  40a2a0:	c4 e2 43 5e c6       	tdpbssd tmm0,tmm6,tmm7
  40a2a5:	c4 c2 7a 4b 04 14    	tilestored [r12+rdx*1],tmm0
  40a2ab:	4c 8d b1 00 80 00 00 	lea    r14,[rcx+0x8000]
  40a2b2:	c4 c2 7b 4b 34 36    	tileloadd tmm6,[r14+rsi*1]
  40a2b8:	c4 e2 7b 4b 04 13    	tileloadd tmm0,[rbx+rdx*1]
  40a2be:	c4 e2 43 5e c6       	tdpbssd tmm0,tmm6,tmm7
  40a2c3:	c4 e2 7a 4b 04 13    	tilestored [rbx+rdx*1],tmm0
  40a2c9:	4c 8d b1 00 c0 00 00 	lea    r14,[rcx+0xc000]
  40a2d0:	c4 c2 7b 4b 34 36    	tileloadd tmm6,[r14+rsi*1]
  40a2d6:	c4 c2 7b 4b 04 13    	tileloadd tmm0,[r11+rdx*1]
  40a2dc:	c4 e2 43 5e c6       	tdpbssd tmm0,tmm6,tmm7
  40a2e1:	c4 c2 7a 4b 04 13    	tilestored [r11+rdx*1],tmm0
  40a2e7:	4c 8d b1 00 00 01 00 	lea    r14,[rcx+0x10000]
  40a2ee:	c4 c2 7b 4b 34 36    	tileloadd tmm6,[r14+rsi*1]
  40a2f4:	c4 c2 7b 4b 04 12    	tileloadd tmm0,[r10+rdx*1]
  40a2fa:	c4 e2 43 5e c6       	tdpbssd tmm0,tmm6,tmm7
  40a2ff:	c4 c2 7a 4b 04 12    	tilestored [r10+rdx*1],tmm0
  40a305:	4c 8d b1 00 40 01 00 	lea    r14,[rcx+0x14000]
  40a30c:	c4 c2 7b 4b 34 36    	tileloadd tmm6,[r14+rsi*1]
  40a312:	c4 c2 7b 4b 04 10    	tileloadd tmm0,[r8+rdx*1]
  40a318:	c4 e2 43 5e c6       	tdpbssd tmm0,tmm6,tmm7
  40a31d:	c4 c2 7a 4b 04 10    	tilestored [r8+rdx*1],tmm0
  40a323:	4c 8d b1 00 80 01 00 	lea    r14,[rcx+0x18000]
  40a32a:	0f 18 88 40 04 00 00 	prefetcht0 BYTE PTR [rax+0x440]
  40a331:	0f 18 88 80 04 00 00 	prefetcht0 BYTE PTR [rax+0x480]
  40a338:	0f 18 88 c0 04 00 00 	prefetcht0 BYTE PTR [rax+0x4c0]
  40a33f:	c4 c2 7b 4b 34 36    	tileloadd tmm6,[r14+rsi*1]
  40a345:	c4 e2 43 5e ce       	tdpbssd tmm1,tmm6,tmm7
  40a34a:	4c 8d b1 00 c0 01 00 	lea    r14,[rcx+0x1c000]
  40a351:	0f 18 88 00 05 00 00 	prefetcht0 BYTE PTR [rax+0x500]
  40a358:	0f 18 88 40 05 00 00 	prefetcht0 BYTE PTR [rax+0x540]
  40a35f:	0f 18 88 80 05 00 00 	prefetcht0 BYTE PTR [rax+0x580]
  40a366:	c4 c2 7b 4b 34 36    	tileloadd tmm6,[r14+rsi*1]
  40a36c:	c4 e2 43 5e d6       	tdpbssd tmm2,tmm6,tmm7
  40a371:	4c 8d b1 00 00 02 00 	lea    r14,[rcx+0x20000]
  40a378:	0f 18 88 c0 05 00 00 	prefetcht0 BYTE PTR [rax+0x5c0]
  40a37f:	0f 18 88 00 06 00 00 	prefetcht0 BYTE PTR [rax+0x600]
  40a386:	0f 18 88 40 06 00 00 	prefetcht0 BYTE PTR [rax+0x640]
  40a38d:	c4 c2 7b 4b 34 36    	tileloadd tmm6,[r14+rsi*1]
  40a393:	c4 e2 43 5e de       	tdpbssd tmm3,tmm6,tmm7
  40a398:	4c 8d b1 00 40 02 00 	lea    r14,[rcx+0x24000]
  40a39f:	0f 18 88 80 06 00 00 	prefetcht0 BYTE PTR [rax+0x680]
  40a3a6:	0f 18 88 c0 06 00 00 	prefetcht0 BYTE PTR [rax+0x6c0]
  40a3ad:	0f 18 88 00 07 00 00 	prefetcht0 BYTE PTR [rax+0x700]
  40a3b4:	c4 c2 7b 4b 34 36    	tileloadd tmm6,[r14+rsi*1]
  40a3ba:	c4 e2 43 5e e6       	tdpbssd tmm4,tmm6,tmm7
  40a3bf:	4c 8d b1 00 80 02 00 	lea    r14,[rcx+0x28000]
  40a3c6:	0f 18 88 40 07 00 00 	prefetcht0 BYTE PTR [rax+0x740]
  40a3cd:	0f 18 88 80 07 00 00 	prefetcht0 BYTE PTR [rax+0x780]
  40a3d4:	0f 18 88 c0 07 00 00 	prefetcht0 BYTE PTR [rax+0x7c0]
  40a3db:	c4 c2 7b 4b 34 36    	tileloadd tmm6,[r14+rsi*1]
  40a3e1:	c4 e2 43 5e ee       	tdpbssd tmm5,tmm6,tmm7
  40a3e6:	0f 18 88 00 08 00 00 	prefetcht0 BYTE PTR [rax+0x800]
  40a3ed:	48 05 00 04 00 00    	add    rax,0x400
  40a3f3:	48 83 c1 40          	add    rcx,0x40
  40a3f7:	49 39 c5             	cmp    r13,rax
  40a3fa:	0f 85 70 fe ff ff    	jne    40a270 <_ZN12intel_mlperf24_tile_dot_product_16x256ILi11ELi16ENS_9io_policyILi16ELNS_8i_formatE0EEEE7computeEPvmS5_S5_Pff+0xc0>
  40a400:	49 8d 81 00 18 00 00 	lea    rax,[r9+0x1800]
  40a407:	c4 e2 7a 4b 0c 10    	tilestored [rax+rdx*1],tmm1
  40a40d:	49 8d 81 00 1c 00 00 	lea    rax,[r9+0x1c00]
  40a414:	c4 e2 7a 4b 14 10    	tilestored [rax+rdx*1],tmm2
  40a41a:	49 8d 81 00 20 00 00 	lea    rax,[r9+0x2000]
  40a421:	c4 e2 7a 4b 1c 10    	tilestored [rax+rdx*1],tmm3
  40a427:	49 8d 81 00 24 00 00 	lea    rax,[r9+0x2400]
  40a42e:	c4 e2 7a 4b 24 10    	tilestored [rax+rdx*1],tmm4
  40a434:	49 8d 81 00 28 00 00 	lea    rax,[r9+0x2800]
  40a43b:	c4 e2 7a 4b 2c 10    	tilestored [rax+rdx*1],tmm5
  40a441:	49 81 c1 00 2c 00 00 	add    r9,0x2c00
  40a448:	49 81 c5 00 40 00 00 	add    r13,0x4000
  40a44f:	4d 39 f9             	cmp    r9,r15
  40a452:	0f 85 a9 fd ff ff    	jne    40a201 <_ZN12intel_mlperf24_tile_dot_product_16x256ILi11ELi16ENS_9io_policyILi16ELNS_8i_formatE0EEEE7computeEPvmS5_S5_Pff+0x51>
  40a458:	48 8b 44 24 a8       	mov    rax,QWORD PTR [rsp-0x58]
  40a45d:	49 89 f9             	mov    r9,rdi
  40a460:	62 71 7c 48 10 10    	vmovups zmm10,ZMMWORD PTR [rax]
  40a466:	62 71 7c 48 10 48 01 	vmovups zmm9,ZMMWORD PTR [rax+0x40]
  40a46d:	62 71 7c 48 10 40 02 	vmovups zmm8,ZMMWORD PTR [rax+0x80]
  40a474:	62 f1 7c 48 10 78 03 	vmovups zmm7,ZMMWORD PTR [rax+0xc0]
  40a47b:	48 8b 44 24 b8       	mov    rax,QWORD PTR [rsp-0x48]
  40a480:	48 8b 74 24 b0       	mov    rsi,QWORD PTR [rsp-0x50]
  40a485:	62 f2 7d 48 18 35 51 	vbroadcastss zmm6,DWORD PTR [rip+0xd51]        # 40b1e0 <__dso_handle+0x1d8>
  40a48c:	0d 00 00 
  40a48f:	62 f2 7d 48 18 2d 4b 	vbroadcastss zmm5,DWORD PTR [rip+0xd4b]        # 40b1e4 <__dso_handle+0x1dc>
  40a496:	0d 00 00 
  40a499:	62 f2 7d 48 18 e4    	vbroadcastss zmm4,xmm4
  40a49f:	49 c1 e1 04          	shl    r9,0x4
  40a4a3:	48 8d 88 00 04 00 00 	lea    rcx,[rax+0x400]
  40a4aa:	4c 8d 80 00 30 00 00 	lea    r8,[rax+0x3000]
  40a4b1:	0f 1f 80 00 00 00 00 	nop    DWORD PTR [rax+0x0]
  40a4b8:	48 8d 81 00 fc ff ff 	lea    rax,[rcx-0x400]
  40a4bf:	48 89 f2             	mov    rdx,rsi
  40a4c2:	66 0f 1f 44 00 00    	nop    WORD PTR [rax+rax*1+0x0]
  40a4c8:	62 f1 7c 48 5b 18    	vcvtdq2ps zmm3,ZMMWORD PTR [rax]
  40a4ce:	62 f1 7c 48 5b 90 00 	vcvtdq2ps zmm2,ZMMWORD PTR [rax+0x2c00]
  40a4d5:	2c 00 00 
  40a4d8:	62 f1 7c 48 5b 88 00 	vcvtdq2ps zmm1,ZMMWORD PTR [rax+0x5800]
  40a4df:	58 00 00 
  40a4e2:	62 f1 7c 48 5b 80 00 	vcvtdq2ps zmm0,ZMMWORD PTR [rax+0x8400]
  40a4e9:	84 00 00 
  40a4ec:	62 f1 2c 48 58 db    	vaddps zmm3,zmm10,zmm3
  40a4f2:	62 f1 34 48 58 d2    	vaddps zmm2,zmm9,zmm2
  40a4f8:	62 f1 3c 48 58 c9    	vaddps zmm1,zmm8,zmm1
  40a4fe:	62 f1 44 48 58 c0    	vaddps zmm0,zmm7,zmm0
  40a504:	62 f1 64 48 59 dc    	vmulps zmm3,zmm3,zmm4
  40a50a:	62 f1 6c 48 59 d4    	vmulps zmm2,zmm2,zmm4
  40a510:	62 f1 74 48 59 cc    	vmulps zmm1,zmm1,zmm4
  40a516:	62 f1 7c 48 59 c4    	vmulps zmm0,zmm0,zmm4
  40a51c:	48 83 c0 40          	add    rax,0x40
  40a520:	62 f3 7d 48 08 db 00 	vrndscaleps zmm3,zmm3,0x0
  40a527:	62 f3 7d 48 08 d2 00 	vrndscaleps zmm2,zmm2,0x0
  40a52e:	62 f3 7d 48 08 c9 00 	vrndscaleps zmm1,zmm1,0x0
  40a535:	62 f3 7d 48 08 c0 00 	vrndscaleps zmm0,zmm0,0x0
  40a53c:	62 f1 64 48 5d de    	vminps zmm3,zmm3,zmm6
  40a542:	62 f1 6c 48 5d d6    	vminps zmm2,zmm2,zmm6
  40a548:	62 f1 74 48 5d ce    	vminps zmm1,zmm1,zmm6
  40a54e:	62 f1 7c 48 5d c6    	vminps zmm0,zmm0,zmm6
  40a554:	62 f1 64 48 5f dd    	vmaxps zmm3,zmm3,zmm5
  40a55a:	62 f1 6c 48 5f d5    	vmaxps zmm2,zmm2,zmm5
  40a560:	62 f1 74 48 5f cd    	vmaxps zmm1,zmm1,zmm5
  40a566:	62 f1 7c 48 5f c5    	vmaxps zmm0,zmm0,zmm5
  40a56c:	62 f1 7d 48 5b db    	vcvtps2dq zmm3,zmm3
  40a572:	62 f1 7d 48 5b d2    	vcvtps2dq zmm2,zmm2
  40a578:	62 f2 7e 48 31 1a    	vpmovdb XMMWORD PTR [rdx],zmm3
  40a57e:	62 f2 7e 48 31 52 01 	vpmovdb XMMWORD PTR [rdx+0x10],zmm2
  40a585:	62 f1 7d 48 5b c9    	vcvtps2dq zmm1,zmm1
  40a58b:	62 f1 7d 48 5b c0    	vcvtps2dq zmm0,zmm0
  40a591:	62 f2 7e 48 31 4a 02 	vpmovdb XMMWORD PTR [rdx+0x20],zmm1
  40a598:	62 f2 7e 48 31 42 03 	vpmovdb XMMWORD PTR [rdx+0x30],zmm0
  40a59f:	48 01 fa             	add    rdx,rdi
  40a5a2:	48 39 c1             	cmp    rcx,rax
  40a5a5:	0f 85 1d ff ff ff    	jne    40a4c8 <_ZN12intel_mlperf24_tile_dot_product_16x256ILi11ELi16ENS_9io_policyILi16ELNS_8i_formatE0EEEE7computeEPvmS5_S5_Pff+0x318>
  40a5ab:	48 81 c1 00 04 00 00 	add    rcx,0x400
  40a5b2:	4c 01 ce             	add    rsi,r9
  40a5b5:	49 39 c8             	cmp    r8,rcx
  40a5b8:	0f 85 fa fe ff ff    	jne    40a4b8 <_ZN12intel_mlperf24_tile_dot_product_16x256ILi11ELi16ENS_9io_policyILi16ELNS_8i_formatE0EEEE7computeEPvmS5_S5_Pff+0x308>
  40a5be:	c5 f8 77             	vzeroupper 
  40a5c1:	48 8d 65 d8          	lea    rsp,[rbp-0x28]
  40a5c5:	5b                   	pop    rbx
  40a5c6:	41 5c                	pop    r12
  40a5c8:	41 5d                	pop    r13
  40a5ca:	41 5e                	pop    r14
  40a5cc:	41 5f                	pop    r15
  40a5ce:	5d                   	pop    rbp
  40a5cf:	c3                   	ret    

000000000040a5d0 <_ZN12intel_mlperf8i_linear13compute_blockILi11ELi16EEEvPvmS2_S2_Pff>:
  40a5d0:	48 89 f7             	mov    rdi,rsi
  40a5d3:	48 89 d6             	mov    rsi,rdx
  40a5d6:	48 89 ca             	mov    rdx,rcx
  40a5d9:	4c 89 c1             	mov    rcx,r8
  40a5dc:	4d 89 c8             	mov    r8,r9
  40a5df:	e9 cc fb ff ff       	jmp    40a1b0 <_ZN12intel_mlperf24_tile_dot_product_16x256ILi11ELi16ENS_9io_policyILi16ELNS_8i_formatE0EEEE7computeEPvmS5_S5_Pff>
  40a5e4:	66 2e 0f 1f 84 00 00 	cs nop WORD PTR [rax+rax*1+0x0]
  40a5eb:	00 00 00 
  40a5ee:	66 90                	xchg   ax,ax

000000000040a5f0 <_ZN12intel_mlperf24_tile_dot_product_16x256ILi11ELi64ENS_9io_policyILi64ELNS_8i_formatE0EEEE7computeEPvmS5_S5_Pff>:
  40a5f0:	55                   	push   rbp
  40a5f1:	c5 f8 28 e0          	vmovaps xmm4,xmm0
  40a5f5:	48 89 e5             	mov    rbp,rsp
  40a5f8:	41 57                	push   r15
  40a5fa:	41 56                	push   r14
  40a5fc:	4d 89 c6             	mov    r14,r8
  40a5ff:	41 55                	push   r13
  40a601:	4c 8d a9 00 00 01 00 	lea    r13,[rcx+0x10000]
  40a608:	41 54                	push   r12
  40a60a:	49 89 f4             	mov    r12,rsi
  40a60d:	be 00 10 00 00       	mov    esi,0x1000
  40a612:	53                   	push   rbx
  40a613:	48 83 e4 c0          	and    rsp,0xffffffffffffffc0
  40a617:	48 81 ec c8 af 00 00 	sub    rsp,0xafc8
  40a61e:	48 8d 84 24 c8 af 00 	lea    rax,[rsp+0xafc8]
  40a625:	00 
  40a626:	48 89 7c 24 a8       	mov    QWORD PTR [rsp-0x58],rdi
  40a62b:	48 8d 7c 24 c8       	lea    rdi,[rsp-0x38]
  40a630:	48 89 7c 24 b0       	mov    QWORD PTR [rsp-0x50],rdi
  40a635:	48 89 44 24 c0       	mov    QWORD PTR [rsp-0x40],rax
  40a63a:	48 89 54 24 b8       	mov    QWORD PTR [rsp-0x48],rdx
  40a63f:	ba 40 00 00 00       	mov    edx,0x40
  40a644:	c4 e2 7b 49 c8       	tilezero tmm1
  40a649:	c4 e2 7b 49 d0       	tilezero tmm2
  40a64e:	c4 e2 7b 49 d8       	tilezero tmm3
  40a653:	c4 e2 7b 49 e0       	tilezero tmm4
  40a658:	c4 e2 7b 49 e8       	tilezero tmm5
  40a65d:	c4 e2 7a 4b 0c 17    	tilestored [rdi+rdx*1],tmm1
  40a663:	48 8d 9f 00 04 00 00 	lea    rbx,[rdi+0x400]
  40a66a:	c4 e2 7a 4b 0c 13    	tilestored [rbx+rdx*1],tmm1
  40a670:	4c 8d 9f 00 08 00 00 	lea    r11,[rdi+0x800]
  40a677:	c4 c2 7a 4b 0c 13    	tilestored [r11+rdx*1],tmm1
  40a67d:	4c 8d 97 00 0c 00 00 	lea    r10,[rdi+0xc00]
  40a684:	c4 c2 7a 4b 0c 12    	tilestored [r10+rdx*1],tmm1
  40a68a:	4c 8d 8f 00 10 00 00 	lea    r9,[rdi+0x1000]
  40a691:	c4 c2 7a 4b 0c 11    	tilestored [r9+rdx*1],tmm1
  40a697:	4c 8d 87 00 14 00 00 	lea    r8,[rdi+0x1400]
  40a69e:	c4 c2 7a 4b 0c 10    	tilestored [r8+rdx*1],tmm1
  40a6a4:	48 8b 4c 24 b8       	mov    rcx,QWORD PTR [rsp-0x48]
  40a6a9:	49 8d 85 00 00 ff ff 	lea    rax,[r13-0x10000]
  40a6b0:	c4 e2 7b 4b 3c 10    	tileloadd tmm7,[rax+rdx*1]
  40a6b6:	c4 e2 7b 4b 34 31    	tileloadd tmm6,[rcx+rsi*1]
  40a6bc:	c4 e2 7b 4b 04 17    	tileloadd tmm0,[rdi+rdx*1]
  40a6c2:	c4 e2 43 5e c6       	tdpbssd tmm0,tmm6,tmm7
  40a6c7:	c4 e2 7a 4b 04 17    	tilestored [rdi+rdx*1],tmm0
  40a6cd:	4c 8d b9 00 00 01 00 	lea    r15,[rcx+0x10000]
  40a6d4:	c4 c2 7b 4b 34 37    	tileloadd tmm6,[r15+rsi*1]
  40a6da:	c4 e2 7b 4b 04 13    	tileloadd tmm0,[rbx+rdx*1]
  40a6e0:	c4 e2 43 5e c6       	tdpbssd tmm0,tmm6,tmm7
  40a6e5:	c4 e2 7a 4b 04 13    	tilestored [rbx+rdx*1],tmm0
  40a6eb:	4c 8d b9 00 00 02 00 	lea    r15,[rcx+0x20000]
  40a6f2:	c4 c2 7b 4b 34 37    	tileloadd tmm6,[r15+rsi*1]
  40a6f8:	c4 c2 7b 4b 04 13    	tileloadd tmm0,[r11+rdx*1]
  40a6fe:	c4 e2 43 5e c6       	tdpbssd tmm0,tmm6,tmm7
  40a703:	c4 c2 7a 4b 04 13    	tilestored [r11+rdx*1],tmm0
  40a709:	4c 8d b9 00 00 03 00 	lea    r15,[rcx+0x30000]
  40a710:	c4 c2 7b 4b 34 37    	tileloadd tmm6,[r15+rsi*1]
  40a716:	c4 c2 7b 4b 04 12    	tileloadd tmm0,[r10+rdx*1]
  40a71c:	c4 e2 43 5e c6       	tdpbssd tmm0,tmm6,tmm7
  40a721:	c4 c2 7a 4b 04 12    	tilestored [r10+rdx*1],tmm0
  40a727:	4c 8d b9 00 00 04 00 	lea    r15,[rcx+0x40000]
  40a72e:	c4 c2 7b 4b 34 37    	tileloadd tmm6,[r15+rsi*1]
  40a734:	c4 c2 7b 4b 04 11    	tileloadd tmm0,[r9+rdx*1]
  40a73a:	c4 e2 43 5e c6       	tdpbssd tmm0,tmm6,tmm7
  40a73f:	c4 c2 7a 4b 04 11    	tilestored [r9+rdx*1],tmm0
  40a745:	4c 8d b9 00 00 05 00 	lea    r15,[rcx+0x50000]
  40a74c:	c4 c2 7b 4b 34 37    	tileloadd tmm6,[r15+rsi*1]
  40a752:	c4 c2 7b 4b 04 10    	tileloadd tmm0,[r8+rdx*1]
  40a758:	c4 e2 43 5e c6       	tdpbssd tmm0,tmm6,tmm7
  40a75d:	c4 c2 7a 4b 04 10    	tilestored [r8+rdx*1],tmm0
  40a763:	4c 8d b9 00 00 06 00 	lea    r15,[rcx+0x60000]
  40a76a:	0f 18 88 40 04 00 00 	prefetcht0 BYTE PTR [rax+0x440]
  40a771:	0f 18 88 80 04 00 00 	prefetcht0 BYTE PTR [rax+0x480]
  40a778:	0f 18 88 c0 04 00 00 	prefetcht0 BYTE PTR [rax+0x4c0]
  40a77f:	c4 c2 7b 4b 34 37    	tileloadd tmm6,[r15+rsi*1]
  40a785:	c4 e2 43 5e ce       	tdpbssd tmm1,tmm6,tmm7
  40a78a:	4c 8d b9 00 00 07 00 	lea    r15,[rcx+0x70000]
  40a791:	0f 18 88 00 05 00 00 	prefetcht0 BYTE PTR [rax+0x500]
  40a798:	0f 18 88 40 05 00 00 	prefetcht0 BYTE PTR [rax+0x540]
  40a79f:	0f 18 88 80 05 00 00 	prefetcht0 BYTE PTR [rax+0x580]
  40a7a6:	c4 c2 7b 4b 34 37    	tileloadd tmm6,[r15+rsi*1]
  40a7ac:	c4 e2 43 5e d6       	tdpbssd tmm2,tmm6,tmm7
  40a7b1:	4c 8d b9 00 00 08 00 	lea    r15,[rcx+0x80000]
  40a7b8:	0f 18 88 c0 05 00 00 	prefetcht0 BYTE PTR [rax+0x5c0]
  40a7bf:	0f 18 88 00 06 00 00 	prefetcht0 BYTE PTR [rax+0x600]
  40a7c6:	0f 18 88 40 06 00 00 	prefetcht0 BYTE PTR [rax+0x640]
  40a7cd:	c4 c2 7b 4b 34 37    	tileloadd tmm6,[r15+rsi*1]
  40a7d3:	c4 e2 43 5e de       	tdpbssd tmm3,tmm6,tmm7
  40a7d8:	4c 8d b9 00 00 09 00 	lea    r15,[rcx+0x90000]
  40a7df:	0f 18 88 80 06 00 00 	prefetcht0 BYTE PTR [rax+0x680]
  40a7e6:	0f 18 88 c0 06 00 00 	prefetcht0 BYTE PTR [rax+0x6c0]
  40a7ed:	0f 18 88 00 07 00 00 	prefetcht0 BYTE PTR [rax+0x700]
  40a7f4:	c4 c2 7b 4b 34 37    	tileloadd tmm6,[r15+rsi*1]
  40a7fa:	c4 e2 43 5e e6       	tdpbssd tmm4,tmm6,tmm7
  40a7ff:	4c 8d b9 00 00 0a 00 	lea    r15,[rcx+0xa0000]
  40a806:	0f 18 88 40 07 00 00 	prefetcht0 BYTE PTR [rax+0x740]
  40a80d:	0f 18 88 80 07 00 00 	prefetcht0 BYTE PTR [rax+0x780]
  40a814:	0f 18 88 c0 07 00 00 	prefetcht0 BYTE PTR [rax+0x7c0]
  40a81b:	c4 c2 7b 4b 34 37    	tileloadd tmm6,[r15+rsi*1]
  40a821:	c4 e2 43 5e ee       	tdpbssd tmm5,tmm6,tmm7
  40a826:	0f 18 88 00 08 00 00 	prefetcht0 BYTE PTR [rax+0x800]
  40a82d:	48 05 00 04 00 00    	add    rax,0x400
  40a833:	48 83 c1 40          	add    rcx,0x40
  40a837:	49 39 c5             	cmp    r13,rax
  40a83a:	0f 85 70 fe ff ff    	jne    40a6b0 <_ZN12intel_mlperf24_tile_dot_product_16x256ILi11ELi64ENS_9io_policyILi64ELNS_8i_formatE0EEEE7computeEPvmS5_S5_Pff+0xc0>
  40a840:	48 8d 87 00 18 00 00 	lea    rax,[rdi+0x1800]
  40a847:	c4 e2 7a 4b 0c 10    	tilestored [rax+rdx*1],tmm1
  40a84d:	48 8d 87 00 1c 00 00 	lea    rax,[rdi+0x1c00]
  40a854:	c4 e2 7a 4b 14 10    	tilestored [rax+rdx*1],tmm2
  40a85a:	48 8d 87 00 20 00 00 	lea    rax,[rdi+0x2000]
  40a861:	c4 e2 7a 4b 1c 10    	tilestored [rax+rdx*1],tmm3
  40a867:	48 8d 87 00 24 00 00 	lea    rax,[rdi+0x2400]
  40a86e:	c4 e2 7a 4b 24 10    	tilestored [rax+rdx*1],tmm4
  40a874:	48 8d 87 00 28 00 00 	lea    rax,[rdi+0x2800]
  40a87b:	c4 e2 7a 4b 2c 10    	tilestored [rax+rdx*1],tmm5
  40a881:	48 81 c7 00 2c 00 00 	add    rdi,0x2c00
  40a888:	49 81 c5 00 00 01 00 	add    r13,0x10000
  40a88f:	48 3b 7c 24 c0       	cmp    rdi,QWORD PTR [rsp-0x40]
  40a894:	0f 85 aa fd ff ff    	jne    40a644 <_ZN12intel_mlperf24_tile_dot_product_16x256ILi11ELi64ENS_9io_policyILi64ELNS_8i_formatE0EEEE7computeEPvmS5_S5_Pff+0x54>
  40a89a:	48 8b 44 24 b0       	mov    rax,QWORD PTR [rsp-0x50]
  40a89f:	4d 89 e0             	mov    r8,r12
  40a8a2:	62 51 7c 48 10 16    	vmovups zmm10,ZMMWORD PTR [r14]
  40a8a8:	62 51 7c 48 10 4e 01 	vmovups zmm9,ZMMWORD PTR [r14+0x40]
  40a8af:	62 51 7c 48 10 46 02 	vmovups zmm8,ZMMWORD PTR [r14+0x80]
  40a8b6:	62 d1 7c 48 10 7e 03 	vmovups zmm7,ZMMWORD PTR [r14+0xc0]
  40a8bd:	48 8b 74 24 a8       	mov    rsi,QWORD PTR [rsp-0x58]
  40a8c2:	62 f2 7d 48 18 35 14 	vbroadcastss zmm6,DWORD PTR [rip+0x914]        # 40b1e0 <__dso_handle+0x1d8>
  40a8c9:	09 00 00 
  40a8cc:	62 f2 7d 48 18 2d 0e 	vbroadcastss zmm5,DWORD PTR [rip+0x90e]        # 40b1e4 <__dso_handle+0x1dc>
  40a8d3:	09 00 00 
  40a8d6:	62 f2 7d 48 18 e4    	vbroadcastss zmm4,xmm4
  40a8dc:	49 c1 e0 04          	shl    r8,0x4
  40a8e0:	48 8d 88 00 04 00 00 	lea    rcx,[rax+0x400]
  40a8e7:	48 8d b8 00 30 00 00 	lea    rdi,[rax+0x3000]
  40a8ee:	48 8d 81 00 fc ff ff 	lea    rax,[rcx-0x400]
  40a8f5:	48 89 f2             	mov    rdx,rsi
  40a8f8:	0f 1f 84 00 00 00 00 	nop    DWORD PTR [rax+rax*1+0x0]
  40a8ff:	00 
  40a900:	62 f1 7c 48 5b 18    	vcvtdq2ps zmm3,ZMMWORD PTR [rax]
  40a906:	62 f1 7c 48 5b 90 00 	vcvtdq2ps zmm2,ZMMWORD PTR [rax+0x2c00]
  40a90d:	2c 00 00 
  40a910:	62 f1 7c 48 5b 88 00 	vcvtdq2ps zmm1,ZMMWORD PTR [rax+0x5800]
  40a917:	58 00 00 
  40a91a:	62 f1 7c 48 5b 80 00 	vcvtdq2ps zmm0,ZMMWORD PTR [rax+0x8400]
  40a921:	84 00 00 
  40a924:	62 f1 2c 48 58 db    	vaddps zmm3,zmm10,zmm3
  40a92a:	62 f1 34 48 58 d2    	vaddps zmm2,zmm9,zmm2
  40a930:	62 f1 3c 48 58 c9    	vaddps zmm1,zmm8,zmm1
  40a936:	62 f1 44 48 58 c0    	vaddps zmm0,zmm7,zmm0
  40a93c:	62 f1 64 48 59 dc    	vmulps zmm3,zmm3,zmm4
  40a942:	62 f1 6c 48 59 d4    	vmulps zmm2,zmm2,zmm4
  40a948:	62 f1 74 48 59 cc    	vmulps zmm1,zmm1,zmm4
  40a94e:	62 f1 7c 48 59 c4    	vmulps zmm0,zmm0,zmm4
  40a954:	48 83 c0 40          	add    rax,0x40
  40a958:	62 f3 7d 48 08 db 00 	vrndscaleps zmm3,zmm3,0x0
  40a95f:	62 f3 7d 48 08 d2 00 	vrndscaleps zmm2,zmm2,0x0
  40a966:	62 f3 7d 48 08 c9 00 	vrndscaleps zmm1,zmm1,0x0
  40a96d:	62 f3 7d 48 08 c0 00 	vrndscaleps zmm0,zmm0,0x0
  40a974:	62 f1 64 48 5d de    	vminps zmm3,zmm3,zmm6
  40a97a:	62 f1 6c 48 5d d6    	vminps zmm2,zmm2,zmm6
  40a980:	62 f1 74 48 5d ce    	vminps zmm1,zmm1,zmm6
  40a986:	62 f1 7c 48 5d c6    	vminps zmm0,zmm0,zmm6
  40a98c:	62 f1 64 48 5f dd    	vmaxps zmm3,zmm3,zmm5
  40a992:	62 f1 6c 48 5f d5    	vmaxps zmm2,zmm2,zmm5
  40a998:	62 f1 74 48 5f cd    	vmaxps zmm1,zmm1,zmm5
  40a99e:	62 f1 7c 48 5f c5    	vmaxps zmm0,zmm0,zmm5
  40a9a4:	62 f1 7d 48 5b db    	vcvtps2dq zmm3,zmm3
  40a9aa:	62 f1 7d 48 5b d2    	vcvtps2dq zmm2,zmm2
  40a9b0:	62 f2 7e 48 31 1a    	vpmovdb XMMWORD PTR [rdx],zmm3
  40a9b6:	62 f2 7e 48 31 52 01 	vpmovdb XMMWORD PTR [rdx+0x10],zmm2
  40a9bd:	62 f1 7d 48 5b c9    	vcvtps2dq zmm1,zmm1
  40a9c3:	62 f1 7d 48 5b c0    	vcvtps2dq zmm0,zmm0
  40a9c9:	62 f2 7e 48 31 4a 02 	vpmovdb XMMWORD PTR [rdx+0x20],zmm1
  40a9d0:	62 f2 7e 48 31 42 03 	vpmovdb XMMWORD PTR [rdx+0x30],zmm0
  40a9d7:	4c 01 e2             	add    rdx,r12
  40a9da:	48 39 c1             	cmp    rcx,rax
  40a9dd:	0f 85 1d ff ff ff    	jne    40a900 <_ZN12intel_mlperf24_tile_dot_product_16x256ILi11ELi64ENS_9io_policyILi64ELNS_8i_formatE0EEEE7computeEPvmS5_S5_Pff+0x310>
  40a9e3:	48 81 c1 00 04 00 00 	add    rcx,0x400
  40a9ea:	4c 01 c6             	add    rsi,r8
  40a9ed:	48 39 cf             	cmp    rdi,rcx
  40a9f0:	0f 85 f8 fe ff ff    	jne    40a8ee <_ZN12intel_mlperf24_tile_dot_product_16x256ILi11ELi64ENS_9io_policyILi64ELNS_8i_formatE0EEEE7computeEPvmS5_S5_Pff+0x2fe>
  40a9f6:	c5 f8 77             	vzeroupper 
  40a9f9:	48 8d 65 d8          	lea    rsp,[rbp-0x28]
  40a9fd:	5b                   	pop    rbx
  40a9fe:	41 5c                	pop    r12
  40aa00:	41 5d                	pop    r13
  40aa02:	41 5e                	pop    r14
  40aa04:	41 5f                	pop    r15
  40aa06:	5d                   	pop    rbp
  40aa07:	c3                   	ret    
  40aa08:	0f 1f 84 00 00 00 00 	nop    DWORD PTR [rax+rax*1+0x0]
  40aa0f:	00 

000000000040aa10 <_ZN12intel_mlperf8i_linear13compute_blockILi11ELi64EEEvPvmS2_S2_Pff>:
  40aa10:	48 89 f7             	mov    rdi,rsi
  40aa13:	48 89 d6             	mov    rsi,rdx
  40aa16:	48 89 ca             	mov    rdx,rcx
  40aa19:	4c 89 c1             	mov    rcx,r8
  40aa1c:	4d 89 c8             	mov    r8,r9
  40aa1f:	e9 cc fb ff ff       	jmp    40a5f0 <_ZN12intel_mlperf24_tile_dot_product_16x256ILi11ELi64ENS_9io_policyILi64ELNS_8i_formatE0EEEE7computeEPvmS5_S5_Pff>
  40aa24:	66 2e 0f 1f 84 00 00 	cs nop WORD PTR [rax+rax*1+0x0]
  40aa2b:	00 00 00 
  40aa2e:	66 2e 0f 1f 84 00 00 	cs nop WORD PTR [rax+rax*1+0x0]
  40aa35:	00 00 00 
  40aa38:	0f 1f 84 00 00 00 00 	nop    DWORD PTR [rax+rax*1+0x0]
  40aa3f:	00 

000000000040aa40 <__libc_csu_init>:
  40aa40:	f3 0f 1e fa          	endbr64 
  40aa44:	41 57                	push   r15
  40aa46:	49 89 d7             	mov    r15,rdx
  40aa49:	41 56                	push   r14
  40aa4b:	49 89 f6             	mov    r14,rsi
  40aa4e:	41 55                	push   r13
  40aa50:	41 89 fd             	mov    r13d,edi
  40aa53:	41 54                	push   r12
  40aa55:	4c 8d 25 9c 31 00 00 	lea    r12,[rip+0x319c]        # 40dbf8 <__frame_dummy_init_array_entry>
  40aa5c:	55                   	push   rbp
  40aa5d:	48 8d 2d b4 31 00 00 	lea    rbp,[rip+0x31b4]        # 40dc18 <__do_global_dtors_aux_fini_array_entry>
  40aa64:	4c 29 e5             	sub    rbp,r12
  40aa67:	53                   	push   rbx
  40aa68:	48 83 ec 08          	sub    rsp,0x8
  40aa6c:	e8 8f 75 ff ff       	call   402000 <_init>
  40aa71:	48 c1 fd 03          	sar    rbp,0x3
  40aa75:	74 1e                	je     40aa95 <__libc_csu_init+0x55>
  40aa77:	31 db                	xor    ebx,ebx
  40aa79:	0f 1f 80 00 00 00 00 	nop    DWORD PTR [rax+0x0]
  40aa80:	4c 89 fa             	mov    rdx,r15
  40aa83:	4c 89 f6             	mov    rsi,r14
  40aa86:	44 89 ef             	mov    edi,r13d
  40aa89:	41 ff 14 dc          	call   QWORD PTR [r12+rbx*8]
  40aa8d:	48 ff c3             	inc    rbx
  40aa90:	48 39 dd             	cmp    rbp,rbx
  40aa93:	75 eb                	jne    40aa80 <__libc_csu_init+0x40>
  40aa95:	48 83 c4 08          	add    rsp,0x8
  40aa99:	5b                   	pop    rbx
  40aa9a:	5d                   	pop    rbp
  40aa9b:	41 5c                	pop    r12
  40aa9d:	41 5d                	pop    r13
  40aa9f:	41 5e                	pop    r14
  40aaa1:	41 5f                	pop    r15
  40aaa3:	c3                   	ret    
  40aaa4:	66 66 2e 0f 1f 84 00 	data16 cs nop WORD PTR [rax+rax*1+0x0]
  40aaab:	00 00 00 00 
  40aaaf:	66 66 2e 0f 1f 84 00 	data16 cs nop WORD PTR [rax+rax*1+0x0]
  40aab6:	00 00 00 00 
  40aaba:	66 0f 1f 44 00 00    	nop    WORD PTR [rax+rax*1+0x0]

000000000040aac0 <__libc_csu_fini>:
  40aac0:	f3 0f 1e fa          	endbr64 
  40aac4:	c3                   	ret    

Disassembly of section .fini:

000000000040aac8 <_fini>:
  40aac8:	f3 0f 1e fa          	endbr64 
  40aacc:	48 83 ec 08          	sub    rsp,0x8
  40aad0:	48 83 c4 08          	add    rsp,0x8
  40aad4:	c3                   	ret    
